
kernel.bin:     file format elf32-i386

Disassembly of section .text:

00100000 <__code>:
  100000:	bc 20 c0 10 00       	mov    $0x10c020,%esp
  100005:	e9 65 00 00 00       	jmp    10006f <skip>
  10000a:	90                   	nop    
  10000b:	90                   	nop    

0010000c <mboot>:
  10000c:	02 b0 ad 1b 03 00    	add    0x31bad(%eax),%dh
  100012:	01 00                	add    %eax,(%eax)
  100014:	fb                   	sti    
  100015:	4f                   	dec    %edi
  100016:	51                   	push   %ecx
  100017:	e4 0c                	in     $0xc,%al
  100019:	00 10                	add    %dl,(%eax)
  10001b:	00 00                	add    %al,(%eax)
  10001d:	00 10                	add    %dl,(%eax)
  10001f:	00 20                	add    %ah,(%eax)
  100021:	a0 10 00 dc d8       	mov    0xd8dc0010,%al
  100026:	10 00                	adc    %al,(%eax)
  100028:	00 00                	add    %al,(%eax)
  10002a:	10 00                	adc    %al,(%eax)

0010002c <Error>:
  10002c:	45                   	inc    %ebp
  10002d:	52                   	push   %edx
  10002e:	52                   	push   %edx
  10002f:	4f                   	dec    %edi
  100030:	52                   	push   %edx
  100031:	3a 20                	cmp    (%eax),%ah
  100033:	54                   	push   %esp
  100034:	68 65 20 73 79       	push   $0x79732065
  100039:	73 74                	jae    1000af <flush2+0x5>
  10003b:	65                   	gs
  10003c:	6d                   	insl   (%dx),%es:(%edi)
  10003d:	20 77 61             	and    %dh,0x61(%edi)
  100040:	73 20                	jae    100062 <Error+0x36>
  100042:	6e                   	outsb  %ds:(%esi),(%dx)
  100043:	6f                   	outsl  %ds:(%esi),(%dx)
  100044:	74 20                	je     100066 <Error+0x3a>
  100046:	62 6f 6f             	bound  %ebp,0x6f(%edi)
  100049:	74 65                	je     1000b0 <flush2+0x6>
  10004b:	64 20 77 69          	and    %dh,%fs:0x69(%edi)
  10004f:	74 68                	je     1000b9 <flush2+0xf>
  100051:	20 61 20             	and    %ah,0x20(%ecx)
  100054:	6d                   	insl   (%dx),%es:(%edi)
  100055:	75 6c                	jne    1000c3 <END+0x2>
  100057:	74 69                	je     1000c2 <END+0x1>
  100059:	62 6f 6f             	bound  %ebp,0x6f(%edi)
  10005c:	74 20                	je     10007e <skip+0xf>
  10005e:	63 6f 6d             	arpl   %bp,0x6d(%edi)
  100061:	70 6c                	jo     1000cf <gdt+0x3>
  100063:	69 61 6e 74 20 6c 6f 	imul   $0x6f6c2074,0x6e(%ecx),%esp
  10006a:	61                   	popa   
  10006b:	64                   	fs
  10006c:	65                   	gs
  10006d:	72 00                	jb     10006f <skip>

0010006f <skip>:
  10006f:	3d 02 b0 ad 2b       	cmp    $0x2badb002,%eax
  100074:	0f 84 0d 00 00 00    	je     100087 <skip.hooray>
  10007a:	68 2c 00 10 00       	push   $0x10002c
  10007f:	e8 9c 13 00 00       	call   101420 <display>
  100084:	58                   	pop    %eax
  100085:	eb fe                	jmp    100085 <skip+0x16>

00100087 <skip.hooray>:
  100087:	fa                   	cli    
  100088:	b0 ff                	mov    $0xff,%al
  10008a:	e6 21                	out    %al,$0x21
  10008c:	0f 01 15 e4 00 10 00 	lgdtl  0x1000e4
  100093:	66 b8 10 00          	mov    $0x10,%ax
  100097:	8e d8                	mov    %eax,%ds
  100099:	8e d0                	mov    %eax,%ss
  10009b:	31 c0                	xor    %eax,%eax
  10009d:	8e c0                	mov    %eax,%es
  10009f:	8e e0                	mov    %eax,%fs
  1000a1:	8e e8                	mov    %eax,%gs
  1000a3:	ea aa 00 10 00 08 00 	ljmp   $0x8,$0x1000aa

001000aa <flush2>:
  1000aa:	e8 21 17 00 00       	call   1017d0 <setupIdt>
  1000af:	0f 01 18             	lidtl  (%eax)
  1000b2:	b8 dc d8 10 00       	mov    $0x10d8dc,%eax
  1000b7:	50                   	push   %eax
  1000b8:	89 d8                	mov    %ebx,%eax
  1000ba:	50                   	push   %eax
  1000bb:	e8 00 0d 00 00       	call   100dc0 <main>
  1000c0:	58                   	pop    %eax

001000c1 <END>:
  1000c1:	f4                   	hlt    
  1000c2:	eb fd                	jmp    1000c1 <END>

001000c4 <idt_point>:
  1000c4:	00 00                	add    %al,(%eax)
	...

001000c8 <bootInfo>:
  1000c8:	00 00                	add    %al,(%eax)
	...

001000cc <gdt>:
	...

001000d4 <gdt_code>:
  1000d4:	ff                   	(bad)  
  1000d5:	ff 00                	incl   (%eax)
  1000d7:	00 00                	add    %al,(%eax)
  1000d9:	9a cf 00 ff ff 00 00 	lcall  $0x0,$0xffff00cf

001000dc <gdt_data>:
  1000dc:	ff                   	(bad)  
  1000dd:	ff 00                	incl   (%eax)
  1000df:	00 00                	add    %al,(%eax)
  1000e1:	92                   	xchg   %eax,%edx
  1000e2:	cf                   	iret   
	...

001000e4 <gdt_desc>:
  1000e4:	17                   	pop    %ss
  1000e5:	00 cc                	add    %cl,%ah
  1000e7:	00 10                	add    %dl,(%eax)
	...

001000ea <inportb>:
  1000ea:	8b 54 24 04          	mov    0x4(%esp),%edx
  1000ee:	31 c0                	xor    %eax,%eax
  1000f0:	ec                   	in     (%dx),%al
  1000f1:	c3                   	ret    

001000f2 <outportb>:
  1000f2:	52                   	push   %edx
  1000f3:	8b 44 24 08          	mov    0x8(%esp),%eax
  1000f7:	8b 54 24 0c          	mov    0xc(%esp),%edx
  1000fb:	ee                   	out    %al,(%dx)
  1000fc:	5a                   	pop    %edx
  1000fd:	c3                   	ret    

001000fe <inportw>:
  1000fe:	8b 54 24 04          	mov    0x4(%esp),%edx
  100102:	31 c0                	xor    %eax,%eax
  100104:	66 ed                	in     (%dx),%ax
  100106:	c3                   	ret    

00100107 <outportw>:
  100107:	52                   	push   %edx
  100108:	8b 44 24 08          	mov    0x8(%esp),%eax
  10010c:	8b 54 24 0c          	mov    0xc(%esp),%edx
  100110:	66 ef                	out    %ax,(%dx)
  100112:	5a                   	pop    %edx
  100113:	c3                   	ret    

00100114 <getEIP>:
  100114:	8b 04 24             	mov    (%esp),%eax
  100117:	c3                   	ret    

00100118 <multi_gdt>:
	...

00100120 <multi_gdt_code>:
  100120:	ff                   	(bad)  
  100121:	ff 00                	incl   (%eax)
  100123:	00 00                	add    %al,(%eax)
  100125:	9a cf 00 ff ff 00 00 	lcall  $0x0,$0xffff00cf

00100128 <multi_gdt_data>:
  100128:	ff                   	(bad)  
  100129:	ff 00                	incl   (%eax)
  10012b:	00 00                	add    %al,(%eax)
  10012d:	92                   	xchg   %eax,%edx
  10012e:	cf                   	iret   
	...

00100130 <multi_gdt_tss>:
  100130:	67 00 2e 00 00       	addr16 add %ch,0x0
  100135:	89 00                	mov    %eax,(%eax)
	...

00100138 <multi_gdt_tss2>:
  100138:	67 00 94 00 00       	addr16 add %dl,0x0(%si)
  10013d:	89 00                	mov    %eax,(%eax)
	...

00100140 <multi_gdt_desc>:
  100140:	27                   	daa    
  100141:	00 00                	add    %al,(%eax)
  100143:	00 00                	add    %al,(%eax)
	...

00100146 <multi_tss_begin>:
  100146:	00 00                	add    %al,(%eax)
	...

0010014a <tss_esp0>:
  10014a:	00 00                	add    %al,(%eax)
	...

0010014e <tss_ss0>:
  10014e:	00 00                	add    %al,(%eax)
	...

00100152 <tss_esp1>:
  100152:	00 00                	add    %al,(%eax)
	...

00100156 <tss_ss1>:
  100156:	00 00                	add    %al,(%eax)
	...

0010015a <tss_esp2>:
  10015a:	00 00                	add    %al,(%eax)
	...

0010015e <tss_ss2>:
  10015e:	00 00                	add    %al,(%eax)
	...

00100162 <tss_cr3>:
  100162:	00 00                	add    %al,(%eax)
	...

00100166 <tss_eip>:
  100166:	00 00                	add    %al,(%eax)
	...

0010016a <tss_eflags>:
  10016a:	00 00                	add    %al,(%eax)
	...

0010016e <tss_eax>:
  10016e:	00 00                	add    %al,(%eax)
	...

00100172 <tss_ecx>:
  100172:	00 00                	add    %al,(%eax)
	...

00100176 <tss_edx>:
  100176:	00 00                	add    %al,(%eax)
	...

0010017a <tss_ebx>:
  10017a:	00 00                	add    %al,(%eax)
	...

0010017e <tss_esp>:
  10017e:	00 00                	add    %al,(%eax)
	...

00100182 <tss_ebp>:
  100182:	00 00                	add    %al,(%eax)
	...

00100186 <tss_esi>:
  100186:	00 00                	add    %al,(%eax)
	...

0010018a <tss_edi>:
  10018a:	00 00                	add    %al,(%eax)
	...

0010018e <tss_es>:
  10018e:	00 00                	add    %al,(%eax)
	...

00100192 <tss_cs>:
  100192:	00 00                	add    %al,(%eax)
	...

00100196 <tss_ss>:
  100196:	00 00                	add    %al,(%eax)
	...

0010019a <tss_ds>:
  10019a:	00 00                	add    %al,(%eax)
	...

0010019e <tss_fs>:
  10019e:	00 00                	add    %al,(%eax)
	...

001001a2 <tss_gs>:
  1001a2:	00 00                	add    %al,(%eax)
	...

001001a6 <tss_ldtsegment>:
	...

001001a8 <tss_trapflag>:
	...

001001aa <tss_iobaseaddress>:
	...

001001ac <multi_tss2_begin>:
  1001ac:	00 00                	add    %al,(%eax)
	...

001001b0 <tss2_esp0>:
  1001b0:	00 00                	add    %al,(%eax)
	...

001001b4 <tss2_ss0>:
  1001b4:	00 00                	add    %al,(%eax)
	...

001001b8 <tss2_esp1>:
  1001b8:	00 00                	add    %al,(%eax)
	...

001001bc <tss2_ss1>:
  1001bc:	00 00                	add    %al,(%eax)
	...

001001c0 <tss2_esp2>:
  1001c0:	00 00                	add    %al,(%eax)
	...

001001c4 <tss2_ss2>:
  1001c4:	00 00                	add    %al,(%eax)
	...

001001c8 <tss2_cr3>:
  1001c8:	00 00                	add    %al,(%eax)
	...

001001cc <tss2_eip>:
  1001cc:	00 00                	add    %al,(%eax)
	...

001001d0 <tss2_eflags>:
  1001d0:	00 00                	add    %al,(%eax)
	...

001001d4 <tss2_eax>:
  1001d4:	00 00                	add    %al,(%eax)
	...

001001d8 <tss2_ecx>:
  1001d8:	00 00                	add    %al,(%eax)
	...

001001dc <tss2_edx>:
  1001dc:	00 00                	add    %al,(%eax)
	...

001001e0 <tss2_ebx>:
  1001e0:	00 00                	add    %al,(%eax)
	...

001001e4 <tss2_esp>:
  1001e4:	00 00                	add    %al,(%eax)
	...

001001e8 <tss2_ebp>:
  1001e8:	00 00                	add    %al,(%eax)
	...

001001ec <tss2_esi>:
  1001ec:	00 00                	add    %al,(%eax)
	...

001001f0 <tss2_edi>:
  1001f0:	00 00                	add    %al,(%eax)
	...

001001f4 <tss2_es>:
  1001f4:	00 00                	add    %al,(%eax)
	...

001001f8 <tss2_cs>:
  1001f8:	00 00                	add    %al,(%eax)
	...

001001fc <tss2_ss>:
  1001fc:	00 00                	add    %al,(%eax)
	...

00100200 <tss2_ds>:
  100200:	00 00                	add    %al,(%eax)
	...

00100204 <tss2_fs>:
  100204:	00 00                	add    %al,(%eax)
	...

00100208 <tss2_gs>:
  100208:	00 00                	add    %al,(%eax)
	...

0010020c <tss2_ldtsegment>:
	...

0010020e <tss2_trapflag>:
	...

00100210 <tss2_iobaseaddress>:
	...

00100212 <setup_multi_gdt>:
  100212:	68 fa 00 00 00       	push   $0xfa
  100217:	68 18 01 10 00       	push   $0x100118
  10021c:	6a 00                	push   $0x0
  10021e:	e8 c8 25 00 00       	call   1027eb <memcopy>
  100223:	58                   	pop    %eax
  100224:	58                   	pop    %eax
  100225:	58                   	pop    %eax
  100226:	0f 01 15 28 00 00 00 	lgdtl  0x28
  10022d:	ea 34 02 10 00 08 00 	ljmp   $0x8,$0x100234

00100234 <flush3>:
  100234:	b8 18 00 00 00       	mov    $0x18,%eax
  100239:	0f 00 d8             	ltr    %ax
  10023c:	c3                   	ret    

0010023d <test_and_set>:
  10023d:	8b 44 24 04          	mov    0x4(%esp),%eax
  100241:	8b 54 24 08          	mov    0x8(%esp),%edx
  100245:	f0 87 02             	lock xchg %eax,(%edx)
  100248:	39 02                	cmp    %eax,(%edx)
  10024a:	74 f1                	je     10023d <test_and_set>
  10024c:	c3                   	ret    

0010024d <SL_BLANK>:
  10024d:	00 00                	add    %al,(%eax)
	...

00100251 <SL_MEM_MNG>:
  100251:	01 00                	add    %eax,(%eax)
	...

00100255 <SL_IRQ1>:
  100255:	02 00                	add    (%eax),%al
	...

00100259 <SL_MESSAGE>:
  100259:	03 00                	add    (%eax),%eax
	...

0010025d <getCR3>:
  10025d:	0f 20 d8             	mov    %cr3,%eax
  100260:	c3                   	ret    

00100261 <EnablePaging>:
  100261:	8b 44 24 04          	mov    0x4(%esp),%eax
  100265:	0f 22 d8             	mov    %eax,%cr3
  100268:	0f 20 c0             	mov    %cr0,%eax
  10026b:	0d 00 00 00 e0       	or     $0xe0000000,%eax
  100270:	0f 22 c0             	mov    %eax,%cr0

00100273 <EnablePaging.keepgoing>:
  100273:	0f 20 c0             	mov    %cr0,%eax
  100276:	25 00 00 00 e0       	and    $0xe0000000,%eax
  10027b:	3d 00 00 00 e0       	cmp    $0xe0000000,%eax
  100280:	75 f1                	jne    100273 <EnablePaging.keepgoing>
  100282:	c3                   	ret    

00100283 <save_eax>:
  100283:	00 00                	add    %al,(%eax)
	...

00100287 <debug01>:
  100287:	0d 0a 45 61 78       	or     $0x7861450a,%eax
  10028c:	3a 20                	cmp    (%eax),%ah
	...

0010028f <debug02>:
  10028f:	2c 20                	sub    $0x20,%al
  100291:	45                   	inc    %ebp
  100292:	62 78 3a             	bound  %edi,0x3a(%eax)
  100295:	20 00                	and    %al,(%eax)

00100297 <debug03>:
  100297:	2c 20                	sub    $0x20,%al
  100299:	45                   	inc    %ebp
  10029a:	63 78 3a             	arpl   %di,0x3a(%eax)
  10029d:	20 00                	and    %al,(%eax)

0010029f <debug04>:
  10029f:	2c 20                	sub    $0x20,%al
  1002a1:	45                   	inc    %ebp
  1002a2:	64                   	fs
  1002a3:	78 3a                	js     1002df <debug12+0x2>
  1002a5:	20 00                	and    %al,(%eax)

001002a7 <debug05>:
  1002a7:	0d 0a 45 62 70       	or     $0x7062450a,%eax
  1002ac:	3a 20                	cmp    (%eax),%ah
	...

001002af <debug06>:
  1002af:	2c 20                	sub    $0x20,%al
  1002b1:	45                   	inc    %ebp
  1002b2:	73 70                	jae    100324 <dump_cpu+0x23>
  1002b4:	3a 20                	cmp    (%eax),%ah
	...

001002b7 <debug07>:
  1002b7:	2c 20                	sub    $0x20,%al
  1002b9:	45                   	inc    %ebp
  1002ba:	73 69                	jae    100325 <dump_cpu+0x24>
  1002bc:	3a 20                	cmp    (%eax),%ah
	...

001002bf <debug08>:
  1002bf:	2c 20                	sub    $0x20,%al
  1002c1:	45                   	inc    %ebp
  1002c2:	64 69 3a 20 00 0d 0a 	imul   $0xa0d0020,%fs:(%edx),%edi

001002c7 <debug09>:
  1002c7:	0d 0a 45 69 70       	or     $0x7069450a,%eax
  1002cc:	3a 20                	cmp    (%eax),%ah
	...

001002cf <debug10>:
  1002cf:	2c 20                	sub    $0x20,%al
  1002d1:	43                   	inc    %ebx
  1002d2:	53                   	push   %ebx
  1002d3:	3a 20                	cmp    (%eax),%ah
	...

001002d6 <debug11>:
  1002d6:	2c 20                	sub    $0x20,%al
  1002d8:	53                   	push   %ebx
  1002d9:	53                   	push   %ebx
  1002da:	3a 20                	cmp    (%eax),%ah
	...

001002dd <debug12>:
  1002dd:	2c 20                	sub    $0x20,%al
  1002df:	44                   	inc    %esp
  1002e0:	53                   	push   %ebx
  1002e1:	3a 20                	cmp    (%eax),%ah
	...

001002e4 <debug13>:
  1002e4:	47                   	inc    %edi
  1002e5:	44                   	inc    %esp
  1002e6:	54                   	push   %esp
  1002e7:	52                   	push   %edx
  1002e8:	3a 20                	cmp    (%eax),%ah
	...

001002eb <debug14>:
  1002eb:	2c 20                	sub    $0x20,%al
  1002ed:	49                   	dec    %ecx
  1002ee:	44                   	inc    %esp
  1002ef:	54                   	push   %esp
  1002f0:	52                   	push   %edx
  1002f1:	3a 20                	cmp    (%eax),%ah
	...

001002f4 <debug15>:
  1002f4:	2c 20                	sub    $0x20,%al
  1002f6:	63 72 30             	arpl   %si,0x30(%edx)
  1002f9:	3a 20                	cmp    (%eax),%ah
  1002fb:	0d 0a 00 0d 0a       	or     $0xa0d000a,%eax

001002fe <newline>:
  1002fe:	0d 0a 00 a3 83       	or     $0x83a3000a,%eax

00100301 <dump_cpu>:
  100301:	a3 83 02 10 00       	mov    %eax,0x100283
  100306:	68 87 02 10 00       	push   $0x100287
  10030b:	e8 10 11 00 00       	call   101420 <display>
  100310:	58                   	pop    %eax
  100311:	a1 83 02 10 00       	mov    0x100283,%eax
  100316:	50                   	push   %eax
  100317:	e8 54 11 00 00       	call   101470 <PrintNumber>
  10031c:	58                   	pop    %eax
  10031d:	68 8f 02 10 00       	push   $0x10028f
  100322:	e8 f9 10 00 00       	call   101420 <display>
  100327:	58                   	pop    %eax
  100328:	89 d8                	mov    %ebx,%eax
  10032a:	50                   	push   %eax
  10032b:	e8 40 11 00 00       	call   101470 <PrintNumber>
  100330:	58                   	pop    %eax
  100331:	68 97 02 10 00       	push   $0x100297
  100336:	e8 e5 10 00 00       	call   101420 <display>
  10033b:	58                   	pop    %eax
  10033c:	89 c8                	mov    %ecx,%eax
  10033e:	50                   	push   %eax
  10033f:	e8 2c 11 00 00       	call   101470 <PrintNumber>
  100344:	58                   	pop    %eax
  100345:	68 9f 02 10 00       	push   $0x10029f
  10034a:	e8 d1 10 00 00       	call   101420 <display>
  10034f:	58                   	pop    %eax
  100350:	89 d0                	mov    %edx,%eax
  100352:	50                   	push   %eax
  100353:	e8 18 11 00 00       	call   101470 <PrintNumber>
  100358:	58                   	pop    %eax
  100359:	68 a7 02 10 00       	push   $0x1002a7
  10035e:	e8 bd 10 00 00       	call   101420 <display>
  100363:	58                   	pop    %eax
  100364:	89 e8                	mov    %ebp,%eax
  100366:	50                   	push   %eax
  100367:	e8 04 11 00 00       	call   101470 <PrintNumber>
  10036c:	58                   	pop    %eax
  10036d:	68 af 02 10 00       	push   $0x1002af
  100372:	e8 a9 10 00 00       	call   101420 <display>
  100377:	58                   	pop    %eax
  100378:	89 e0                	mov    %esp,%eax
  10037a:	50                   	push   %eax
  10037b:	e8 f0 10 00 00       	call   101470 <PrintNumber>
  100380:	58                   	pop    %eax
  100381:	68 b7 02 10 00       	push   $0x1002b7
  100386:	e8 95 10 00 00       	call   101420 <display>
  10038b:	58                   	pop    %eax
  10038c:	89 f0                	mov    %esi,%eax
  10038e:	50                   	push   %eax
  10038f:	e8 dc 10 00 00       	call   101470 <PrintNumber>
  100394:	58                   	pop    %eax
  100395:	68 bf 02 10 00       	push   $0x1002bf
  10039a:	e8 81 10 00 00       	call   101420 <display>
  10039f:	58                   	pop    %eax
  1003a0:	89 f8                	mov    %edi,%eax
  1003a2:	50                   	push   %eax
  1003a3:	e8 c8 10 00 00       	call   101470 <PrintNumber>
  1003a8:	58                   	pop    %eax
  1003a9:	68 c7 02 10 00       	push   $0x1002c7
  1003ae:	e8 6d 10 00 00       	call   101420 <display>
  1003b3:	58                   	pop    %eax
  1003b4:	8b 04 24             	mov    (%esp),%eax
  1003b7:	50                   	push   %eax
  1003b8:	e8 b3 10 00 00       	call   101470 <PrintNumber>
  1003bd:	58                   	pop    %eax
  1003be:	68 cf 02 10 00       	push   $0x1002cf
  1003c3:	e8 58 10 00 00       	call   101420 <display>
  1003c8:	58                   	pop    %eax
  1003c9:	8c c8                	mov    %cs,%eax
  1003cb:	50                   	push   %eax
  1003cc:	e8 9f 10 00 00       	call   101470 <PrintNumber>
  1003d1:	58                   	pop    %eax
  1003d2:	68 d6 02 10 00       	push   $0x1002d6
  1003d7:	e8 44 10 00 00       	call   101420 <display>
  1003dc:	58                   	pop    %eax
  1003dd:	8c d0                	mov    %ss,%eax
  1003df:	50                   	push   %eax
  1003e0:	e8 8b 10 00 00       	call   101470 <PrintNumber>
  1003e5:	58                   	pop    %eax
  1003e6:	68 dd 02 10 00       	push   $0x1002dd
  1003eb:	e8 30 10 00 00       	call   101420 <display>
  1003f0:	58                   	pop    %eax
  1003f1:	8c d8                	mov    %ds,%eax
  1003f3:	50                   	push   %eax
  1003f4:	e8 77 10 00 00       	call   101470 <PrintNumber>
  1003f9:	58                   	pop    %eax
  1003fa:	68 fe 02 10 00       	push   $0x1002fe
  1003ff:	e8 1c 10 00 00       	call   101420 <display>
  100404:	58                   	pop    %eax
  100405:	a1 83 02 10 00       	mov    0x100283,%eax
  10040a:	c3                   	ret    

0010040b <timer>:
  10040b:	00 00                	add    %al,(%eax)
	...

0010040f <previous_tss>:
  10040f:	02 00                	add    (%eax),%al

00100410 <previous>:
  100410:	00 00                	add    %al,(%eax)
	...

00100414 <task_timer>:
  100414:	32 00                	xor    (%eax),%al
	...

00100418 <enable_multi>:
	...

00100419 <get_current_tss>:
  100419:	80 3d 0f 04 10 00 01 	cmpb   $0x1,0x10040f
  100420:	0f 84 0a 00 00 00    	je     100430 <get_current_tss.2>
  100426:	b8 2e 00 00 00       	mov    $0x2e,%eax
  10042b:	e9 05 00 00 00       	jmp    100435 <get_current_tss.1>

00100430 <get_current_tss.2>:
  100430:	b8 94 00 00 00       	mov    $0x94,%eax

00100435 <get_current_tss.1>:
  100435:	c3                   	ret    

00100436 <irqM0>:
  100436:	ff 05 0b 04 10 00    	incl   0x10040b
  10043c:	ff 0d 14 04 10 00    	decl   0x100414
  100442:	66 50                	push   %ax
  100444:	b0 20                	mov    $0x20,%al
  100446:	e6 20                	out    %al,$0x20
  100448:	66 58                	pop    %ax
  10044a:	80 3d 18 04 10 00 00 	cmpb   $0x0,0x100418
  100451:	0f 84 12 00 00 00    	je     100469 <irqM0.noSwitch>
  100457:	83 3d 14 04 10 00 00 	cmpl   $0x0,0x100414
  10045e:	0f 84 14 00 00 00    	je     100478 <irqM0.switch>
  100464:	e9 a0 00 00 00       	jmp    100509 <irqM0.1exec>

00100469 <irqM0.noSwitch>:
  100469:	c7 05 14 04 10 00 32 	movl   $0x32,0x100414
  100470:	00 00 00 
  100473:	e9 91 00 00 00       	jmp    100509 <irqM0.1exec>

00100478 <irqM0.switch>:
  100478:	c7 05 14 04 10 00 32 	movl   $0x32,0x100414
  10047f:	00 00 00 
  100482:	50                   	push   %eax
  100483:	53                   	push   %ebx
  100484:	80 3d 0f 04 10 00 01 	cmpb   $0x1,0x10040f
  10048b:	0f 84 18 00 00 00    	je     1004a9 <irqM0.2>
  100491:	b8 94 00 00 00       	mov    $0x94,%eax
  100496:	50                   	push   %eax
  100497:	b8 2e 00 00 00       	mov    $0x2e,%eax
  10049c:	50                   	push   %eax
  10049d:	c6 05 0f 04 10 00 01 	movb   $0x1,0x10040f
  1004a4:	e9 13 00 00 00       	jmp    1004bc <irqM0.1>

001004a9 <irqM0.2>:
  1004a9:	b8 2e 00 00 00       	mov    $0x2e,%eax
  1004ae:	50                   	push   %eax
  1004af:	b8 94 00 00 00       	mov    $0x94,%eax
  1004b4:	50                   	push   %eax
  1004b5:	c6 05 0f 04 10 00 02 	movb   $0x2,0x10040f

001004bc <irqM0.1>:
  1004bc:	e8 07 57 00 00       	call   105bc8 <get_sys_tasks>
  1004c1:	ff 30                	pushl  (%eax)
  1004c3:	89 c3                	mov    %eax,%ebx
  1004c5:	31 c0                	xor    %eax,%eax
  1004c7:	66 a1 10 04 10 00    	mov    0x100410,%ax
  1004cd:	50                   	push   %eax
  1004ce:	e8 9c 56 00 00       	call   105b6f <next_state>
  1004d3:	89 03                	mov    %eax,(%ebx)
  1004d5:	58                   	pop    %eax
  1004d6:	58                   	pop    %eax
  1004d7:	58                   	pop    %eax
  1004d8:	58                   	pop    %eax
  1004d9:	5b                   	pop    %ebx
  1004da:	58                   	pop    %eax
  1004db:	50                   	push   %eax
  1004dc:	b8 01 00 00 00       	mov    $0x1,%eax
  1004e1:	a3 10 04 10 00       	mov    %eax,0x100410
  1004e6:	58                   	pop    %eax

001004e7 <irqM0.catchall>:
  1004e7:	80 3d 0f 04 10 00 02 	cmpb   $0x2,0x10040f
  1004ee:	0f 84 0d 00 00 00    	je     100501 <irqM0.2exec>
  1004f4:	fb                   	sti    
  1004f5:	ea 00 00 00 00 20 00 	ljmp   $0x20,$0x0
  1004fc:	e9 08 00 00 00       	jmp    100509 <irqM0.1exec>

00100501 <irqM0.2exec>:
  100501:	fb                   	sti    
  100502:	ea 00 00 00 00 18 00 	ljmp   $0x18,$0x0

00100509 <irqM0.1exec>:
  100509:	cf                   	iret   

0010050a <Delay>:
  10050a:	50                   	push   %eax
  10050b:	53                   	push   %ebx
  10050c:	a1 0b 04 10 00       	mov    0x10040b,%eax
  100511:	03 44 24 0c          	add    0xc(%esp),%eax

00100515 <Delay.wait>:
  100515:	8b 1d 0b 04 10 00    	mov    0x10040b,%ebx
  10051b:	39 d8                	cmp    %ebx,%eax
  10051d:	7f f6                	jg     100515 <Delay.wait>
  10051f:	5b                   	pop    %ebx
  100520:	58                   	pop    %eax
  100521:	c3                   	ret    

00100522 <test_key>:
  100522:	0d 00 00 66 50       	or     $0x50660000,%eax

00100524 <PauseKey>:
	...

00100525 <WaitKey>:
  100525:	66 50                	push   %ax
  100527:	b0 00                	mov    $0x0,%al
  100529:	a2 24 05 10 00       	mov    %al,0x100524

0010052e <WaitKey.wait>:
  10052e:	3a 05 24 05 10 00    	cmp    0x100524,%al
  100534:	74 f8                	je     10052e <WaitKey.wait>
  100536:	66 58                	pop    %ax
  100538:	c3                   	ret    

00100539 <syscall1>:
  100539:	83 f8 03             	cmp    $0x3,%eax
  10053c:	0f 84 17 00 00 00    	je     100559 <syscall1.exit>
  100542:	83 f8 04             	cmp    $0x4,%eax
  100545:	0f 84 11 00 00 00    	je     10055c <syscall1.fork>
  10054b:	83 f8 06             	cmp    $0x6,%eax
  10054e:	0f 84 0e 00 00 00    	je     100562 <syscall1.getpid>
  100554:	e9 0f 00 00 00       	jmp    100568 <syscall1.one>

00100559 <syscall1.exit>:
  100559:	f4                   	hlt    
  10055a:	eb fd                	jmp    100559 <syscall1.exit>

0010055c <syscall1.fork>:
  10055c:	b8 ff ff ff ff       	mov    $0xffffffff,%eax
  100561:	cf                   	iret   

00100562 <syscall1.getpid>:
  100562:	b8 01 00 00 00       	mov    $0x1,%eax
  100567:	cf                   	iret   

00100568 <syscall1.one>:
  100568:	83 f8 0d             	cmp    $0xd,%eax
  10056b:	0f 84 05 00 00 00    	je     100576 <syscall1.sbrk>
  100571:	e9 18 00 00 00       	jmp    10058e <syscall1.two>

00100576 <syscall1.sbrk>:
  100576:	53                   	push   %ebx
  100577:	e8 f4 0e 00 00       	call   101470 <PrintNumber>
  10057c:	5b                   	pop    %ebx
  10057d:	68 fe 02 10 00       	push   $0x1002fe
  100582:	e8 99 0e 00 00       	call   101420 <display>
  100587:	58                   	pop    %eax
  100588:	b8 ff ff ff ff       	mov    $0xffffffff,%eax
  10058d:	cf                   	iret   

0010058e <syscall1.two>:
  10058e:	cf                   	iret   

0010058f <getResponse>:
  10058f:	51                   	push   %ecx
  100590:	b9 cc 05 10 00       	mov    $0x1005cc,%ecx

00100595 <getResponse.waitForIt>:
  100595:	3b 0d cc 05 10 00    	cmp    0x1005cc,%ecx
  10059b:	74 f8                	je     100595 <getResponse.waitForIt>
  10059d:	a1 cb 05 10 00       	mov    0x1005cb,%eax
  1005a2:	b9 00 00 00 00       	mov    $0x0,%ecx
  1005a7:	89 0d cb 05 10 00    	mov    %ecx,0x1005cb
  1005ad:	59                   	pop    %ecx
  1005ae:	c3                   	ret    

001005af <num_elements_used>:
  1005af:	00 00                	add    %al,(%eax)
	...

001005b3 <code_buffer>:
  1005b3:	01 00                	add    %eax,(%eax)
  1005b5:	00 00                	add    %al,(%eax)
  1005b7:	02 00                	add    (%eax),%al
  1005b9:	00 00                	add    %al,(%eax)
  1005bb:	03 00                	add    (%eax),%eax
  1005bd:	00 00                	add    %al,(%eax)
  1005bf:	04 00                	add    $0x0,%al
  1005c1:	00 00                	add    %al,(%eax)
  1005c3:	05 00 00 00 06       	add    $0x6000000,%eax
  1005c8:	00 00                	add    %al,(%eax)
	...

001005cb <LastResponse>:
	...

001005cc <NumKeyInts>:
  1005cc:	00 00                	add    %al,(%eax)
	...

001005d0 <irqM1>:
  1005d0:	60                   	pusha  
  1005d1:	31 c0                	xor    %eax,%eax
  1005d3:	e4 60                	in     $0x60,%al
  1005d5:	a2 cb 05 10 00       	mov    %al,0x1005cb
  1005da:	50                   	push   %eax
  1005db:	e8 90 37 00 00       	call   103d70 <handleScancode>
  1005e0:	58                   	pop    %eax
  1005e1:	88 c3                	mov    %al,%bl
  1005e3:	e4 61                	in     $0x61,%al
  1005e5:	88 c4                	mov    %al,%ah
  1005e7:	0c 80                	or     $0x80,%al
  1005e9:	e6 61                	out    %al,$0x61
  1005eb:	88 e0                	mov    %ah,%al
  1005ed:	e6 61                	out    %al,$0x61
  1005ef:	88 d8                	mov    %bl,%al
  1005f1:	ff 05 cc 05 10 00    	incl   0x1005cc

001005f7 <irqM1_end>:
  1005f7:	b0 20                	mov    $0x20,%al
  1005f9:	e6 20                	out    %al,$0x20
  1005fb:	61                   	popa   
  1005fc:	cf                   	iret   

001005fd <IRQM2>:
  1005fd:	49                   	dec    %ecx
  1005fe:	52                   	push   %edx
  1005ff:	51                   	push   %ecx
  100600:	32 0d 0a 00 50 68    	xor    0x6850000a,%cl

00100604 <irqM2>:
  100604:	50                   	push   %eax
  100605:	68 fd 05 10 00       	push   $0x1005fd
  10060a:	e8 11 0e 00 00       	call   101420 <display>
  10060f:	58                   	pop    %eax
  100610:	b0 20                	mov    $0x20,%al
  100612:	e6 20                	out    %al,$0x20
  100614:	58                   	pop    %eax
  100615:	cf                   	iret   

00100616 <IRQM3>:
  100616:	49                   	dec    %ecx
  100617:	52                   	push   %edx
  100618:	51                   	push   %ecx
  100619:	33 0d 0a 00 50 68    	xor    0x6850000a,%ecx

0010061d <irqM3>:
  10061d:	50                   	push   %eax
  10061e:	68 16 06 10 00       	push   $0x100616
  100623:	e8 f8 0d 00 00       	call   101420 <display>
  100628:	58                   	pop    %eax
  100629:	b0 20                	mov    $0x20,%al
  10062b:	e6 20                	out    %al,$0x20
  10062d:	58                   	pop    %eax
  10062e:	cf                   	iret   

0010062f <IRQM4>:
  10062f:	49                   	dec    %ecx
  100630:	52                   	push   %edx
  100631:	51                   	push   %ecx
  100632:	34 0d                	xor    $0xd,%al
  100634:	0a 00                	or     (%eax),%al

00100636 <irqM4>:
  100636:	50                   	push   %eax
  100637:	68 2f 06 10 00       	push   $0x10062f
  10063c:	e8 df 0d 00 00       	call   101420 <display>
  100641:	58                   	pop    %eax
  100642:	b0 20                	mov    $0x20,%al
  100644:	e6 20                	out    %al,$0x20
  100646:	58                   	pop    %eax
  100647:	cf                   	iret   

00100648 <IRQM5>:
  100648:	49                   	dec    %ecx
  100649:	52                   	push   %edx
  10064a:	51                   	push   %ecx
  10064b:	35 0d 0a 00 50       	xor    $0x50000a0d,%eax

0010064f <irqM5>:
  10064f:	50                   	push   %eax
  100650:	68 48 06 10 00       	push   $0x100648
  100655:	e8 c6 0d 00 00       	call   101420 <display>
  10065a:	58                   	pop    %eax
  10065b:	b0 20                	mov    $0x20,%al
  10065d:	e6 20                	out    %al,$0x20
  10065f:	58                   	pop    %eax
  100660:	cf                   	iret   

00100661 <FloppyTimeout>:
  100661:	54                   	push   %esp
  100662:	69 6d 65 6f 75 74 20 	imul   $0x2074756f,0x65(%ebp),%ebp
  100669:	77 61                	ja     1006cc <IRQM6+0x10>
  10066b:	69 74 69 6e 67 20 66 	imul   $0x6f662067,0x6e(%ecx,%ebp,2),%esi
  100672:	6f 
  100673:	72 20                	jb     100695 <WaitFloppyInt+0x11>
  100675:	66                   	data16
  100676:	6c                   	insb   (%dx),%es:(%edi)
  100677:	6f                   	outsl  %ds:(%esi),(%dx)
  100678:	70 70                	jo     1006ea <IRQM7+0x1>
  10067a:	79 20                	jns    10069c <WaitFloppyInt.notThereYet+0x6>
  10067c:	64                   	fs
  10067d:	72 69                	jb     1006e8 <irqM6+0xe>
  10067f:	76 65                	jbe    1006e6 <irqM6+0xc>
  100681:	0a 0d 00 53 a1 b8    	or     0xb8a15300,%cl

00100684 <WaitFloppyInt>:
  100684:	53                   	push   %ebx
  100685:	a1 b8 06 10 00       	mov    0x1006b8,%eax
  10068a:	8b 1d 0b 04 10 00    	mov    0x10040b,%ebx
  100690:	81 c3 00 02 00 00    	add    $0x200,%ebx

00100696 <WaitFloppyInt.notThereYet>:
  100696:	3b 1d 0b 04 10 00    	cmp    0x10040b,%ebx
  10069c:	0f 8c 0f 00 00 00    	jl     1006b1 <WaitFloppyInt.error>
  1006a2:	3b 05 b8 06 10 00    	cmp    0x1006b8,%eax
  1006a8:	74 ec                	je     100696 <WaitFloppyInt.notThereYet>
  1006aa:	5b                   	pop    %ebx
  1006ab:	b8 00 00 00 00       	mov    $0x0,%eax
  1006b0:	c3                   	ret    

001006b1 <WaitFloppyInt.error>:
  1006b1:	5b                   	pop    %ebx
  1006b2:	b8 ff ff ff ff       	mov    $0xffffffff,%eax
  1006b7:	c3                   	ret    

001006b8 <BytesDone>:
  1006b8:	00 00                	add    %al,(%eax)
	...

001006bc <IRQM6>:
  1006bc:	46                   	inc    %esi
  1006bd:	44                   	inc    %esp
  1006be:	43                   	inc    %ebx
  1006bf:	20 68 61             	and    %ch,0x61(%eax)
  1006c2:	73 20                	jae    1006e4 <irqM6+0xa>
  1006c4:	66 69 72 65 64 20    	imul   $0x2064,0x65(%edx),%si
  1006ca:	61                   	popa   
  1006cb:	6e                   	outsb  %ds:(%esi),(%dx)
  1006cc:	20 69 6e             	and    %ch,0x6e(%ecx)
  1006cf:	74 65                	je     100736 <irqM9+0x12>
  1006d1:	72 72                	jb     100745 <irqM10+0x5>
  1006d3:	75 70                	jne    100745 <irqM10+0x5>
  1006d5:	74 21                	je     1006f8 <irqM7+0x8>
  1006d7:	0a 0d 00 66 50 ff    	or     0xff506600,%cl

001006da <irqM6>:
  1006da:	66 50                	push   %ax
  1006dc:	ff 05 b8 06 10 00    	incl   0x1006b8
  1006e2:	b0 20                	mov    $0x20,%al
  1006e4:	e6 20                	out    %al,$0x20
  1006e6:	66 58                	pop    %ax
  1006e8:	cf                   	iret   

001006e9 <IRQM7>:
  1006e9:	49                   	dec    %ecx
  1006ea:	52                   	push   %edx
  1006eb:	51                   	push   %ecx
  1006ec:	37                   	aaa    
  1006ed:	0d 0a 00 50 68       	or     $0x6850000a,%eax

001006f0 <irqM7>:
  1006f0:	50                   	push   %eax
  1006f1:	68 e9 06 10 00       	push   $0x1006e9
  1006f6:	e8 25 0d 00 00       	call   101420 <display>
  1006fb:	58                   	pop    %eax
  1006fc:	b0 20                	mov    $0x20,%al
  1006fe:	e6 20                	out    %al,$0x20
  100700:	58                   	pop    %eax
  100701:	cf                   	iret   

00100702 <IRQM8>:
  100702:	49                   	dec    %ecx
  100703:	52                   	push   %edx
  100704:	51                   	push   %ecx
  100705:	38 0d 0a 00 50 68    	cmp    %cl,0x6850000a

00100709 <irqM8>:
  100709:	50                   	push   %eax
  10070a:	68 02 07 10 00       	push   $0x100702
  10070f:	e8 0c 0d 00 00       	call   101420 <display>
  100714:	58                   	pop    %eax
  100715:	b0 20                	mov    $0x20,%al
  100717:	e6 20                	out    %al,$0x20
  100719:	e6 a0                	out    %al,$0xa0
  10071b:	58                   	pop    %eax
  10071c:	cf                   	iret   

0010071d <IRQM9>:
  10071d:	49                   	dec    %ecx
  10071e:	52                   	push   %edx
  10071f:	51                   	push   %ecx
  100720:	39 0d 0a 00 50 68    	cmp    %ecx,0x6850000a

00100724 <irqM9>:
  100724:	50                   	push   %eax
  100725:	68 1d 07 10 00       	push   $0x10071d
  10072a:	e8 f1 0c 00 00       	call   101420 <display>
  10072f:	58                   	pop    %eax
  100730:	b0 20                	mov    $0x20,%al
  100732:	e6 20                	out    %al,$0x20
  100734:	e6 a0                	out    %al,$0xa0
  100736:	58                   	pop    %eax
  100737:	cf                   	iret   

00100738 <IRQM10>:
  100738:	49                   	dec    %ecx
  100739:	52                   	push   %edx
  10073a:	51                   	push   %ecx
  10073b:	31 30                	xor    %esi,(%eax)
  10073d:	0d 0a 00 50 68       	or     $0x6850000a,%eax

00100740 <irqM10>:
  100740:	50                   	push   %eax
  100741:	68 38 07 10 00       	push   $0x100738
  100746:	e8 d5 0c 00 00       	call   101420 <display>
  10074b:	58                   	pop    %eax
  10074c:	b0 20                	mov    $0x20,%al
  10074e:	e6 20                	out    %al,$0x20
  100750:	e6 a0                	out    %al,$0xa0
  100752:	58                   	pop    %eax
  100753:	cf                   	iret   

00100754 <IRQM11>:
  100754:	49                   	dec    %ecx
  100755:	52                   	push   %edx
  100756:	51                   	push   %ecx
  100757:	31 31                	xor    %esi,(%ecx)
  100759:	0d 0a 00 50 68       	or     $0x6850000a,%eax

0010075c <irqM11>:
  10075c:	50                   	push   %eax
  10075d:	68 54 07 10 00       	push   $0x100754
  100762:	e8 b9 0c 00 00       	call   101420 <display>
  100767:	58                   	pop    %eax
  100768:	b0 20                	mov    $0x20,%al
  10076a:	e6 20                	out    %al,$0x20
  10076c:	e6 a0                	out    %al,$0xa0
  10076e:	58                   	pop    %eax
  10076f:	cf                   	iret   

00100770 <IRQM12>:
  100770:	49                   	dec    %ecx
  100771:	52                   	push   %edx
  100772:	51                   	push   %ecx
  100773:	31 32                	xor    %esi,(%edx)
  100775:	0d 0a 00 50 68       	or     $0x6850000a,%eax

00100778 <irqM12>:
  100778:	50                   	push   %eax
  100779:	68 70 07 10 00       	push   $0x100770
  10077e:	e8 9d 0c 00 00       	call   101420 <display>
  100783:	58                   	pop    %eax
  100784:	b0 20                	mov    $0x20,%al
  100786:	e6 20                	out    %al,$0x20
  100788:	e6 a0                	out    %al,$0xa0
  10078a:	58                   	pop    %eax
  10078b:	cf                   	iret   

0010078c <IRQM13>:
  10078c:	49                   	dec    %ecx
  10078d:	52                   	push   %edx
  10078e:	51                   	push   %ecx
  10078f:	31 33                	xor    %esi,(%ebx)
  100791:	0d 0a 00 50 68       	or     $0x6850000a,%eax

00100794 <irqM13>:
  100794:	50                   	push   %eax
  100795:	68 8c 07 10 00       	push   $0x10078c
  10079a:	e8 81 0c 00 00       	call   101420 <display>
  10079f:	58                   	pop    %eax
  1007a0:	b0 20                	mov    $0x20,%al
  1007a2:	e6 20                	out    %al,$0x20
  1007a4:	e6 a0                	out    %al,$0xa0
  1007a6:	58                   	pop    %eax
  1007a7:	cf                   	iret   

001007a8 <HD_INTS>:
  1007a8:	00 00                	add    %al,(%eax)
	...

001007ac <IRQM14>:
  1007ac:	49                   	dec    %ecx
  1007ad:	52                   	push   %edx
  1007ae:	51                   	push   %ecx
  1007af:	31 34 0d 0a 00 50 ff 	xor    %esi,-0xaffff6(,%ecx,1)

001007b4 <irqM14>:
  1007b4:	50                   	push   %eax
  1007b5:	ff 05 a8 07 10 00    	incl   0x1007a8
  1007bb:	68 ac 07 10 00       	push   $0x1007ac
  1007c0:	e8 5b 0c 00 00       	call   101420 <display>
  1007c5:	58                   	pop    %eax
  1007c6:	b0 20                	mov    $0x20,%al
  1007c8:	e6 20                	out    %al,$0x20
  1007ca:	e6 a0                	out    %al,$0xa0
  1007cc:	58                   	pop    %eax
  1007cd:	cf                   	iret   

001007ce <IRQM15>:
  1007ce:	49                   	dec    %ecx
  1007cf:	52                   	push   %edx
  1007d0:	51                   	push   %ecx
  1007d1:	31 35 0d 0a 00 50    	xor    %esi,0x50000a0d

001007d6 <irqM15>:
  1007d6:	50                   	push   %eax
  1007d7:	68 ce 07 10 00       	push   $0x1007ce
  1007dc:	e8 3f 0c 00 00       	call   101420 <display>
  1007e1:	58                   	pop    %eax
  1007e2:	b0 20                	mov    $0x20,%al
  1007e4:	e6 20                	out    %al,$0x20
  1007e6:	e6 a0                	out    %al,$0xa0
  1007e8:	58                   	pop    %eax
  1007e9:	cf                   	iret   

001007ea <Code>:
  1007ea:	00 00                	add    %al,(%eax)
	...

001007ee <Zero>:
  1007ee:	44                   	inc    %esp
  1007ef:	69 76 69 64 65 20 62 	imul   $0x62206564,0x69(%esi),%esi
  1007f6:	79 20                	jns    100818 <One>
  1007f8:	7a 65                	jp     10085f <task+0x9>
  1007fa:	72 6f                	jb     10086b <task+0x15>
  1007fc:	20 65 72             	and    %ah,0x72(%ebp)
  1007ff:	72 6f                	jb     100870 <task+0x1a>
  100801:	72 21                	jb     100824 <One+0xc>
  100803:	0a 00                	or     (%eax),%al

00100805 <isr0>:
  100805:	66 b8 10 00          	mov    $0x10,%ax
  100809:	8e d8                	mov    %eax,%ds
  10080b:	68 ee 07 10 00       	push   $0x1007ee
  100810:	e8 0b 0c 00 00       	call   101420 <display>
  100815:	58                   	pop    %eax
  100816:	eb fe                	jmp    100816 <isr0+0x11>

00100818 <One>:
  100818:	44                   	inc    %esp
  100819:	65 62 75 67          	bound  %esi,%gs:0x67(%ebp)
  10081d:	20 65 78             	and    %ah,0x78(%ebp)
  100820:	63 65 70             	arpl   %sp,0x70(%ebp)
  100823:	74 69                	je     10088e <isr1+0x9>
  100825:	6f                   	outsl  %ds:(%esi),(%dx)
  100826:	6e                   	outsb  %ds:(%esi),(%dx)
  100827:	2c 20                	sub    $0x20,%al
	...

0010082a <sinStep>:
  10082a:	53                   	push   %ebx
  10082b:	69 6e 67 6c 65 20 53 	imul   $0x5320656c,0x67(%esi),%ebp
  100832:	74 65                	je     100899 <isr1+0x14>
  100834:	70 2c                	jo     100862 <task+0xc>
  100836:	20 00                	and    %al,(%eax)

00100838 <regAcc>:
  100838:	44                   	inc    %esp
  100839:	65 62 75 67          	bound  %esi,%gs:0x67(%ebp)
  10083d:	20 72 65             	and    %dh,0x65(%edx)
  100840:	67 69 73 74 65 72 20 	addr16 imul $0x77207265,0x74(%bp,%di),%esi
  100847:	77 
  100848:	61                   	popa   
  100849:	73 20                	jae    10086b <task+0x15>
  10084b:	61                   	popa   
  10084c:	63 63 65             	arpl   %sp,0x65(%ebx)
  10084f:	73 73                	jae    1008c4 <isr1.notSingleStep+0x14>
  100851:	65                   	gs
  100852:	64                   	fs
  100853:	2c 20                	sub    $0x20,%al
	...

00100856 <task>:
  100856:	54                   	push   %esp
  100857:	72 61                	jb     1008ba <isr1.notSingleStep+0xa>
  100859:	70 20                	jo     10087b <breakpoint+0xa>
  10085b:	66                   	data16
  10085c:	6c                   	insb   (%dx),%es:(%edi)
  10085d:	61                   	popa   
  10085e:	67 20 66 6f          	addr16 and %ah,0x6f(%bp)
  100862:	72 20                	jb     100884 <number+0x3>
  100864:	74 61                	je     1008c7 <isr1.notregAcc+0x1>
  100866:	73 6b                	jae    1008d3 <isr1.notregAcc+0xd>
  100868:	20 69 73             	and    %ch,0x73(%ecx)
  10086b:	20 73 65             	and    %dh,0x65(%ebx)
  10086e:	74 2c                	je     10089c <isr1+0x17>
	...

00100871 <breakpoint>:
  100871:	42                   	inc    %edx
  100872:	72 65                	jb     1008d9 <isr1.notregAcc+0x13>
  100874:	61                   	popa   
  100875:	6b 70 6f 69          	imul   $0x69,0x6f(%eax),%esi
  100879:	6e                   	outsb  %ds:(%esi),(%dx)
  10087a:	74 20                	je     10089c <isr1+0x17>
  10087c:	68 69 74 2c 00       	push   $0x2c7469

00100881 <number>:
  100881:	00 00                	add    %al,(%eax)
	...

00100885 <isr1>:
  100885:	50                   	push   %eax
  100886:	ff 05 81 08 10 00    	incl   0x100881
  10088c:	68 18 08 10 00       	push   $0x100818
  100891:	e8 8a 0b 00 00       	call   101420 <display>
  100896:	58                   	pop    %eax
  100897:	0f 21 f0             	mov    %db6,%eax
  10089a:	a9 00 40 00 00       	test   $0x4000,%eax
  10089f:	0f 84 0b 00 00 00    	je     1008b0 <isr1.notSingleStep>
  1008a5:	68 2a 08 10 00       	push   $0x10082a
  1008aa:	e8 71 0b 00 00       	call   101420 <display>
  1008af:	58                   	pop    %eax

001008b0 <isr1.notSingleStep>:
  1008b0:	a9 00 20 00 00       	test   $0x2000,%eax
  1008b5:	0f 84 0b 00 00 00    	je     1008c6 <isr1.notregAcc>
  1008bb:	68 38 08 10 00       	push   $0x100838
  1008c0:	e8 5b 0b 00 00       	call   101420 <display>
  1008c5:	58                   	pop    %eax

001008c6 <isr1.notregAcc>:
  1008c6:	a9 00 80 00 00       	test   $0x8000,%eax
  1008cb:	0f 84 0b 00 00 00    	je     1008dc <isr1.notTaskSwitch>
  1008d1:	68 56 08 10 00       	push   $0x100856
  1008d6:	e8 45 0b 00 00       	call   101420 <display>
  1008db:	58                   	pop    %eax

001008dc <isr1.notTaskSwitch>:
  1008dc:	a9 01 00 00 00       	test   $0x1,%eax
  1008e1:	0f 84 0b 00 00 00    	je     1008f2 <isr1.not1>
  1008e7:	68 71 08 10 00       	push   $0x100871
  1008ec:	e8 2f 0b 00 00       	call   101420 <display>
  1008f1:	58                   	pop    %eax

001008f2 <isr1.not1>:
  1008f2:	a9 02 00 00 00       	test   $0x2,%eax
  1008f7:	0f 84 0b 00 00 00    	je     100908 <isr1.not2>
  1008fd:	68 71 08 10 00       	push   $0x100871
  100902:	e8 19 0b 00 00       	call   101420 <display>
  100907:	58                   	pop    %eax

00100908 <isr1.not2>:
  100908:	a9 04 00 00 00       	test   $0x4,%eax
  10090d:	0f 84 0b 00 00 00    	je     10091e <isr1.not3>
  100913:	68 71 08 10 00       	push   $0x100871
  100918:	e8 03 0b 00 00       	call   101420 <display>
  10091d:	58                   	pop    %eax

0010091e <isr1.not3>:
  10091e:	a9 08 00 00 00       	test   $0x8,%eax
  100923:	0f 84 0b 00 00 00    	je     100934 <isr1.not4>
  100929:	68 71 08 10 00       	push   $0x100871
  10092e:	e8 ed 0a 00 00       	call   101420 <display>
  100933:	58                   	pop    %eax

00100934 <isr1.not4>:
  100934:	68 71 08 10 00       	push   $0x100871
  100939:	e8 e2 0a 00 00       	call   101420 <display>
  10093e:	58                   	pop    %eax
  10093f:	a1 81 08 10 00       	mov    0x100881,%eax
  100944:	50                   	push   %eax
  100945:	e8 26 0b 00 00       	call   101470 <PrintNumber>
  10094a:	58                   	pop    %eax
  10094b:	25 f0 1f ff ff       	and    $0xffff1ff0,%eax
  100950:	0f 23 f0             	mov    %eax,%db6
  100953:	8b 44 24 04          	mov    0x4(%esp),%eax
  100957:	50                   	push   %eax
  100958:	e8 13 0b 00 00       	call   101470 <PrintNumber>
  10095d:	58                   	pop    %eax
  10095e:	68 fe 02 10 00       	push   $0x1002fe
  100963:	e8 b8 0a 00 00       	call   101420 <display>
  100968:	58                   	pop    %eax
  100969:	58                   	pop    %eax
  10096a:	eb fe                	jmp    10096a <isr1.not4+0x36>
  10096c:	cf                   	iret   

0010096d <Two>:
  10096d:	4e                   	dec    %esi
  10096e:	4d                   	dec    %ebp
  10096f:	49                   	dec    %ecx
  100970:	20 49 6e             	and    %cl,0x6e(%ecx)
  100973:	74 65                	je     1009da <isr3+0x3f>
  100975:	72 72                	jb     1009e9 <Four+0x4>
  100977:	75 70                	jne    1009e9 <Four+0x4>
  100979:	74 0a                	je     100985 <isr2+0x9>
	...

0010097c <isr2>:
  10097c:	66 b8 10 00          	mov    $0x10,%ax
  100980:	8e d8                	mov    %eax,%ds
  100982:	68 6d 09 10 00       	push   $0x10096d
  100987:	e8 94 0a 00 00       	call   101420 <display>
  10098c:	58                   	pop    %eax
  10098d:	eb fe                	jmp    10098d <isr2+0x11>

0010098f <Three>:
  10098f:	42                   	inc    %edx
  100990:	72 65                	jb     1009f7 <isr4+0x8>
  100992:	61                   	popa   
  100993:	6b 70 6f 69          	imul   $0x69,0x6f(%eax),%esi
  100997:	6e                   	outsb  %ds:(%esi),(%dx)
  100998:	74 0a                	je     1009a4 <isr3+0x9>
	...

0010099b <isr3>:
  10099b:	60                   	pusha  
  10099c:	66 b8 10 00          	mov    $0x10,%ax
  1009a0:	8e d8                	mov    %eax,%ds
  1009a2:	68 8f 09 10 00       	push   $0x10098f
  1009a7:	e8 74 0a 00 00       	call   101420 <display>
  1009ac:	58                   	pop    %eax
  1009ad:	68 fe 02 10 00       	push   $0x1002fe
  1009b2:	e8 69 0a 00 00       	call   101420 <display>
  1009b7:	58                   	pop    %eax
  1009b8:	8b 04 24             	mov    (%esp),%eax
  1009bb:	50                   	push   %eax
  1009bc:	e8 af 0a 00 00       	call   101470 <PrintNumber>
  1009c1:	58                   	pop    %eax
  1009c2:	68 fe 02 10 00       	push   $0x1002fe
  1009c7:	e8 54 0a 00 00       	call   101420 <display>
  1009cc:	58                   	pop    %eax
  1009cd:	8b 44 24 04          	mov    0x4(%esp),%eax
  1009d1:	50                   	push   %eax
  1009d2:	e8 99 0a 00 00       	call   101470 <PrintNumber>
  1009d7:	58                   	pop    %eax
  1009d8:	68 fe 02 10 00       	push   $0x1002fe
  1009dd:	e8 3e 0a 00 00       	call   101420 <display>
  1009e2:	58                   	pop    %eax
  1009e3:	61                   	popa   
  1009e4:	cf                   	iret   

001009e5 <Four>:
  1009e5:	4f                   	dec    %edi
  1009e6:	76 65                	jbe    100a4d <isr6+0x11>
  1009e8:	72 66                	jb     100a50 <isr6+0x14>
  1009ea:	6c                   	insb   (%dx),%es:(%edi)
  1009eb:	6f                   	outsl  %ds:(%esi),(%dx)
  1009ec:	77 0a                	ja     1009f8 <isr4+0x9>
	...

001009ef <isr4>:
  1009ef:	66 b8 10 00          	mov    $0x10,%ax
  1009f3:	8e d8                	mov    %eax,%ds
  1009f5:	68 e5 09 10 00       	push   $0x1009e5
  1009fa:	e8 21 0a 00 00       	call   101420 <display>
  1009ff:	58                   	pop    %eax
  100a00:	eb fe                	jmp    100a00 <isr4+0x11>

00100a02 <Five>:
  100a02:	42                   	inc    %edx
  100a03:	6f                   	outsl  %ds:(%esi),(%dx)
  100a04:	75 6e                	jne    100a74 <Seven+0x8>
  100a06:	64                   	fs
  100a07:	73 20                	jae    100a29 <isr5+0x10>
  100a09:	72 61                	jb     100a6c <Seven>
  100a0b:	6e                   	outsb  %ds:(%esi),(%dx)
  100a0c:	67 65 20 65 78       	addr16 and %ah,%gs:0x78(%di)
  100a11:	63 65 65             	arpl   %sp,0x65(%ebp)
  100a14:	64 65 64 0a 00       	or     %fs:%gs:(%eax),%al

00100a19 <isr5>:
  100a19:	66 b8 10 00          	mov    $0x10,%ax
  100a1d:	8e d8                	mov    %eax,%ds
  100a1f:	68 02 0a 10 00       	push   $0x100a02
  100a24:	e8 f7 09 00 00       	call   101420 <display>
  100a29:	58                   	pop    %eax
  100a2a:	eb fe                	jmp    100a2a <isr5+0x11>

00100a2c <Six>:
  100a2c:	49                   	dec    %ecx
  100a2d:	6e                   	outsb  %ds:(%esi),(%dx)
  100a2e:	76 61                	jbe    100a91 <isr7+0xf>
  100a30:	6c                   	insb   (%dx),%es:(%edi)
  100a31:	69 64 20 6f 70 63 6f 	imul   $0x646f6370,0x6f(%eax),%esp
  100a38:	64 
  100a39:	65 0a 00             	or     %gs:(%eax),%al

00100a3c <isr6>:
  100a3c:	66 b8 10 00          	mov    $0x10,%ax
  100a40:	8e d8                	mov    %eax,%ds
  100a42:	68 2c 0a 10 00       	push   $0x100a2c
  100a47:	e8 d4 09 00 00       	call   101420 <display>
  100a4c:	58                   	pop    %eax
  100a4d:	66 58                	pop    %ax
  100a4f:	8e c0                	mov    %eax,%es
  100a51:	5b                   	pop    %ebx
  100a52:	26 66 81 3b 0f 09    	cmpw   $0x90f,%es:(%ebx)
  100a58:	0f 84 05 00 00 00    	je     100a63 <isr6.Wbinvd>
  100a5e:	e9 07 00 00 00       	jmp    100a6a <isr6.Other>

00100a63 <isr6.Wbinvd>:
  100a63:	83 c3 02             	add    $0x2,%ebx
  100a66:	53                   	push   %ebx
  100a67:	66 50                	push   %ax
  100a69:	cf                   	iret   

00100a6a <isr6.Other>:
  100a6a:	eb fe                	jmp    100a6a <isr6.Other>

00100a6c <Seven>:
  100a6c:	44                   	inc    %esp
  100a6d:	65                   	gs
  100a6e:	76 69                	jbe    100ad9 <isr9+0x4>
  100a70:	63 65 20             	arpl   %sp,0x20(%ebp)
  100a73:	6e                   	outsb  %ds:(%esi),(%dx)
  100a74:	6f                   	outsl  %ds:(%esi),(%dx)
  100a75:	74 20                	je     100a97 <Eight+0x2>
  100a77:	61                   	popa   
  100a78:	76 61                	jbe    100adb <isr9+0x6>
  100a7a:	69 6c 61 62 6c 65 0a 	imul   $0xa656c,0x62(%ecx),%ebp
  100a81:	00 

00100a82 <isr7>:
  100a82:	66 b8 10 00          	mov    $0x10,%ax
  100a86:	8e d8                	mov    %eax,%ds
  100a88:	68 6c 0a 10 00       	push   $0x100a6c
  100a8d:	e8 8e 09 00 00       	call   101420 <display>
  100a92:	58                   	pop    %eax
  100a93:	eb fe                	jmp    100a93 <isr7+0x11>

00100a95 <Eight>:
  100a95:	44                   	inc    %esp
  100a96:	6f                   	outsl  %ds:(%esi),(%dx)
  100a97:	75 62                	jne    100afb <Ten+0x13>
  100a99:	6c                   	insb   (%dx),%es:(%edi)
  100a9a:	65 20 2d 20 66 61 75 	and    %ch,%gs:0x75616620
  100aa1:	6c                   	insb   (%dx),%es:(%edi)
  100aa2:	74 0a                	je     100aae <isr8+0x9>
	...

00100aa5 <isr8>:
  100aa5:	66 b8 10 00          	mov    $0x10,%ax
  100aa9:	8e d8                	mov    %eax,%ds
  100aab:	68 95 0a 10 00       	push   $0x100a95
  100ab0:	e8 6b 09 00 00       	call   101420 <display>
  100ab5:	58                   	pop    %eax
  100ab6:	fa                   	cli    
  100ab7:	f4                   	hlt    

00100ab8 <Nine>:
  100ab8:	43                   	inc    %ebx
  100ab9:	6f                   	outsl  %ds:(%esi),(%dx)
  100aba:	70 72                	jo     100b2e <isr11+0x7>
  100abc:	6f                   	outsl  %ds:(%esi),(%dx)
  100abd:	63 65 73             	arpl   %sp,0x73(%ebp)
  100ac0:	73 6f                	jae    100b31 <isr11+0xa>
  100ac2:	72 20                	jb     100ae4 <isr9+0xf>
  100ac4:	73 65                	jae    100b2b <isr11+0x4>
  100ac6:	67 6d                	addr16 insl (%dx),%es:(%di)
  100ac8:	65 6e                	outsb  %gs:(%esi),(%dx)
  100aca:	74 20                	je     100aec <Ten+0x4>
  100acc:	6f                   	outsl  %ds:(%esi),(%dx)
  100acd:	76 65                	jbe    100b34 <isr11+0xd>
  100acf:	72 72                	jb     100b43 <Twelve+0x9>
  100ad1:	75 6e                	jne    100b41 <Twelve+0x7>
  100ad3:	0a 00                	or     (%eax),%al

00100ad5 <isr9>:
  100ad5:	66 b8 10 00          	mov    $0x10,%ax
  100ad9:	8e d8                	mov    %eax,%ds
  100adb:	68 b8 0a 10 00       	push   $0x100ab8
  100ae0:	e8 3b 09 00 00       	call   101420 <display>
  100ae5:	58                   	pop    %eax
  100ae6:	eb fe                	jmp    100ae6 <isr9+0x11>

00100ae8 <Ten>:
  100ae8:	49                   	dec    %ecx
  100ae9:	6e                   	outsb  %ds:(%esi),(%dx)
  100aea:	76 61                	jbe    100b4d <Twelve+0x13>
  100aec:	6c                   	insb   (%dx),%es:(%edi)
  100aed:	69 64 20 54 53 53 20 	imul   $0x65205353,0x54(%eax),%esp
  100af4:	65 
  100af5:	78 63                	js     100b5a <isr12+0x9>
  100af7:	65                   	gs
  100af8:	70 74                	jo     100b6e <Thirteen+0xa>
  100afa:	69 6f 6e 0a 00 66 b8 	imul   $0xb866000a,0x6e(%edi),%ebp

00100aff <isr10>:
  100aff:	66 b8 10 00          	mov    $0x10,%ax
  100b03:	8e d8                	mov    %eax,%ds
  100b05:	68 e8 0a 10 00       	push   $0x100ae8
  100b0a:	e8 11 09 00 00       	call   101420 <display>
  100b0f:	58                   	pop    %eax
  100b10:	eb fe                	jmp    100b10 <isr10+0x11>

00100b12 <Eleven>:
  100b12:	53                   	push   %ebx
  100b13:	65                   	gs
  100b14:	67 6d                	addr16 insl (%dx),%es:(%di)
  100b16:	65 6e                	outsb  %gs:(%esi),(%dx)
  100b18:	74 20                	je     100b3a <Twelve>
  100b1a:	6e                   	outsb  %ds:(%esi),(%dx)
  100b1b:	6f                   	outsl  %ds:(%esi),(%dx)
  100b1c:	74 20                	je     100b3e <Twelve+0x4>
  100b1e:	70 72                	jo     100b92 <Fourteen+0x1>
  100b20:	65                   	gs
  100b21:	73 65                	jae    100b88 <isr13+0xa>
  100b23:	6e                   	outsb  %ds:(%esi),(%dx)
  100b24:	74 0a                	je     100b30 <isr11+0x9>
	...

00100b27 <isr11>:
  100b27:	66 b8 10 00          	mov    $0x10,%ax
  100b2b:	8e d8                	mov    %eax,%ds
  100b2d:	68 12 0b 10 00       	push   $0x100b12
  100b32:	e8 e9 08 00 00       	call   101420 <display>
  100b37:	58                   	pop    %eax
  100b38:	eb fe                	jmp    100b38 <isr11+0x11>

00100b3a <Twelve>:
  100b3a:	53                   	push   %ebx
  100b3b:	74 61                	je     100b9e <Fourteen+0xd>
  100b3d:	63 6b 20             	arpl   %bp,0x20(%ebx)
  100b40:	66 61                	popaw  
  100b42:	75 6c                	jne    100bb0 <_Fourteen+0x9>
  100b44:	74 20                	je     100b66 <Thirteen+0x2>
  100b46:	65                   	gs
  100b47:	78 63                	js     100bac <_Fourteen+0x5>
  100b49:	65                   	gs
  100b4a:	70 74                	jo     100bc0 <_Fourteen+0x19>
  100b4c:	69 6f 6e 0a 00 66 b8 	imul   $0xb866000a,0x6e(%edi),%ebp

00100b51 <isr12>:
  100b51:	66 b8 10 00          	mov    $0x10,%ax
  100b55:	8e d8                	mov    %eax,%ds
  100b57:	68 3a 0b 10 00       	push   $0x100b3a
  100b5c:	e8 bf 08 00 00       	call   101420 <display>
  100b61:	58                   	pop    %eax
  100b62:	eb fe                	jmp    100b62 <isr12+0x11>

00100b64 <Thirteen>:
  100b64:	47                   	inc    %edi
  100b65:	65 6e                	outsb  %gs:(%esi),(%dx)
  100b67:	65                   	gs
  100b68:	72 61                	jb     100bcb <_Fourteen+0x24>
  100b6a:	6c                   	insb   (%dx),%es:(%edi)
  100b6b:	20 50 72             	and    %dl,0x72(%eax)
  100b6e:	6f                   	outsl  %ds:(%esi),(%dx)
  100b6f:	74 65                	je     100bd6 <_Fourteen+0x2f>
  100b71:	63 74 69 6f          	arpl   %si,0x6f(%ecx,%ebp,2)
  100b75:	6e                   	outsb  %ds:(%esi),(%dx)
  100b76:	20 46 61             	and    %al,0x61(%esi)
  100b79:	75 6c                	jne    100be7 <_2Fourteen+0xd>
  100b7b:	74 0a                	je     100b87 <isr13+0x9>
	...

00100b7e <isr13>:
  100b7e:	66 b8 10 00          	mov    $0x10,%ax
  100b82:	8e d8                	mov    %eax,%ds
  100b84:	68 64 0b 10 00       	push   $0x100b64
  100b89:	e8 92 08 00 00       	call   101420 <display>
  100b8e:	58                   	pop    %eax
  100b8f:	eb fe                	jmp    100b8f <isr13+0x11>

00100b91 <Fourteen>:
  100b91:	50                   	push   %eax
  100b92:	61                   	popa   
  100b93:	67 65 20 46 61       	addr16 and %al,%gs:0x61(%bp)
  100b98:	75 6c                	jne    100c06 <_2Fourteen+0x2c>
  100b9a:	74 20                	je     100bbc <_Fourteen+0x15>
  100b9c:	45                   	inc    %ebp
  100b9d:	78 63                	js     100c02 <_2Fourteen+0x28>
  100b9f:	65                   	gs
  100ba0:	70 74                	jo     100c16 <_3Fourteen+0xc>
  100ba2:	69 6f 6e 0a 00 41 20 	imul   $0x2041000a,0x6e(%edi),%ebp

00100ba7 <_Fourteen>:
  100ba7:	41                   	inc    %ecx
  100ba8:	20 72 65             	and    %dh,0x65(%edx)
  100bab:	73 65                	jae    100c12 <_3Fourteen+0x8>
  100bad:	72 76                	jb     100c25 <_3Fourteen+0x1b>
  100baf:	65 64 20 62 69       	and    %ah,%fs:%gs:0x69(%edx)
  100bb4:	74 20                	je     100bd6 <_Fourteen+0x2f>
  100bb6:	68 61 73 20 62       	push   $0x62207361
  100bbb:	65 65 6e             	outsb  %gs:(%esi),(%dx)
  100bbe:	20 73 65             	and    %dh,0x65(%ebx)
  100bc1:	74 20                	je     100be3 <_2Fourteen+0x9>
  100bc3:	69 6e 20 74 68 65 20 	imul   $0x20656874,0x20(%esi),%ebp
  100bca:	70 61                	jo     100c2d <_3Fourteen+0x23>
  100bcc:	67 65 20 64 69       	addr16 and %ah,%gs:0x69(%si)
  100bd1:	72 65                	jb     100c38 <_3Fourteen+0x2e>
  100bd3:	63 74 6f 72          	arpl   %si,0x72(%edi,%ebp,2)
  100bd7:	79 21                	jns    100bfa <_2Fourteen+0x20>
	...

00100bda <_2Fourteen>:
  100bda:	41                   	inc    %ecx
  100bdb:	20 70 61             	and    %dh,0x61(%eax)
  100bde:	67 65 20 6c 65       	addr16 and %ch,%gs:0x65(%si)
  100be3:	76 65                	jbe    100c4a <isr14+0x4>
  100be5:	6c                   	insb   (%dx),%es:(%edi)
  100be6:	20 70 72             	and    %dh,0x72(%eax)
  100be9:	6f                   	outsl  %ds:(%esi),(%dx)
  100bea:	74 65                	je     100c51 <isr14+0xb>
  100bec:	63 74 69 6f          	arpl   %si,0x6f(%ecx,%ebp,2)
  100bf0:	6e                   	outsb  %ds:(%esi),(%dx)
  100bf1:	20 76 69             	and    %dh,0x69(%esi)
  100bf4:	6f                   	outsl  %ds:(%esi),(%dx)
  100bf5:	6c                   	insb   (%dx),%es:(%edi)
  100bf6:	61                   	popa   
  100bf7:	74 69                	je     100c62 <isr14+0x1c>
  100bf9:	6f                   	outsl  %ds:(%esi),(%dx)
  100bfa:	6e                   	outsb  %ds:(%esi),(%dx)
  100bfb:	20 68 61             	and    %ch,0x61(%eax)
  100bfe:	73 20                	jae    100c20 <_3Fourteen+0x16>
  100c00:	6f                   	outsl  %ds:(%esi),(%dx)
  100c01:	63 63 75             	arpl   %sp,0x75(%ebx)
  100c04:	72 72                	jb     100c78 <isr14+0x32>
  100c06:	65 64 21 00          	and    %eax,%fs:%gs:(%eax)

00100c0a <_3Fourteen>:
  100c0a:	41                   	inc    %ecx
  100c0b:	20 70 61             	and    %dh,0x61(%eax)
  100c0e:	67 65 20 74 68       	addr16 and %dh,%gs:0x68(%si)
  100c13:	61                   	popa   
  100c14:	74 20                	je     100c36 <_3Fourteen+0x2c>
  100c16:	64 6f                	outsl  %fs:(%esi),(%dx)
  100c18:	65                   	gs
  100c19:	73 20                	jae    100c3b <_3Fourteen+0x31>
  100c1b:	6e                   	outsb  %ds:(%esi),(%dx)
  100c1c:	6f                   	outsl  %ds:(%esi),(%dx)
  100c1d:	74 20                	je     100c3f <Location+0x1>
  100c1f:	65                   	gs
  100c20:	78 69                	js     100c8b <isr14+0x45>
  100c22:	73 74                	jae    100c98 <isr14.Yay+0xc>
  100c24:	20 69 6e             	and    %ch,0x6e(%ecx)
  100c27:	20 52 41             	and    %dl,0x41(%edx)
  100c2a:	4d                   	dec    %ebp
  100c2b:	20 68 61             	and    %ch,0x61(%eax)
  100c2e:	73 20                	jae    100c50 <isr14+0xa>
  100c30:	62 65 65             	bound  %esp,0x65(%ebp)
  100c33:	6e                   	outsb  %ds:(%esi),(%dx)
  100c34:	20 61 63             	and    %ah,0x63(%ecx)
  100c37:	63 65 73             	arpl   %sp,0x73(%ebp)
  100c3a:	73 65                	jae    100ca1 <isr14.Yay+0x15>
  100c3c:	64 00 00             	add    %al,%fs:(%eax)

00100c3e <Location>:
  100c3e:	00 00                	add    %al,(%eax)
	...

00100c42 <_EAX>:
  100c42:	00 00                	add    %al,(%eax)
	...

00100c46 <isr14>:
  100c46:	50                   	push   %eax
  100c47:	66 b8 10 00          	mov    $0x10,%ax
  100c4b:	8e d8                	mov    %eax,%ds
  100c4d:	58                   	pop    %eax
  100c4e:	a3 42 0c 10 00       	mov    %eax,0x100c42
  100c53:	58                   	pop    %eax
  100c54:	a3 ea 07 10 00       	mov    %eax,0x1007ea
  100c59:	b8 42 0c 10 00       	mov    $0x100c42,%eax
  100c5e:	60                   	pusha  
  100c5f:	0f 20 d0             	mov    %cr2,%eax
  100c62:	50                   	push   %eax
  100c63:	68 91 0b 10 00       	push   $0x100b91
  100c68:	e8 b3 07 00 00       	call   101420 <display>
  100c6d:	58                   	pop    %eax
  100c6e:	b8 ea 07 10 00       	mov    $0x1007ea,%eax
  100c73:	83 e0 08             	and    $0x8,%eax
  100c76:	83 f8 08             	cmp    $0x8,%eax
  100c79:	0f 85 0d 00 00 00    	jne    100c8c <isr14.Yay>
  100c7f:	68 a7 0b 10 00       	push   $0x100ba7
  100c84:	e8 97 07 00 00       	call   101420 <display>
  100c89:	58                   	pop    %eax
  100c8a:	eb fe                	jmp    100c8a <isr14+0x44>

00100c8c <isr14.Yay>:
  100c8c:	b8 ea 07 10 00       	mov    $0x1007ea,%eax
  100c91:	83 e0 01             	and    $0x1,%eax
  100c94:	83 f8 01             	cmp    $0x1,%eax
  100c97:	0f 85 0d 00 00 00    	jne    100caa <Ok>
  100c9d:	68 da 0b 10 00       	push   $0x100bda
  100ca2:	e8 79 07 00 00       	call   101420 <display>
  100ca7:	58                   	pop    %eax
  100ca8:	eb fe                	jmp    100ca8 <isr14.Yay+0x1c>

00100caa <Ok>:
  100caa:	68 0a 0c 10 00       	push   $0x100c0a
  100caf:	e8 6c 07 00 00       	call   101420 <display>
  100cb4:	58                   	pop    %eax
  100cb5:	eb fe                	jmp    100cb5 <Ok+0xb>

00100cb7 <Fifteen>:
  100cb7:	49                   	dec    %ecx
  100cb8:	6e                   	outsb  %ds:(%esi),(%dx)
  100cb9:	74 65                	je     100d20 <isr16>
  100cbb:	6c                   	insb   (%dx),%es:(%edi)
  100cbc:	20 72 65             	and    %dh,0x65(%edx)
  100cbf:	73 65                	jae    100d26 <isr16+0x6>
  100cc1:	72 76                	jb     100d39 <Seventeen+0x6>
  100cc3:	65 64 20 69 6e       	and    %ch,%fs:%gs:0x6e(%ecx)
  100cc8:	74 65                	je     100d2f <isr16+0xf>
  100cca:	72 72                	jb     100d3e <Seventeen+0xb>
  100ccc:	75 70                	jne    100d3e <Seventeen+0xb>
  100cce:	74 20                	je     100cf0 <isr15+0x1>
  100cd0:	68 61 73 20 62       	push   $0x62207361
  100cd5:	65 65 6e             	outsb  %gs:(%esi),(%dx)
  100cd8:	20 63 61             	and    %ah,0x61(%ebx)
  100cdb:	6c                   	insb   (%dx),%es:(%edi)
  100cdc:	6c                   	insb   (%dx),%es:(%edi)
  100cdd:	65 64 20 2d 20 74 68 	and    %ch,%fs:%gs:0x69687420
  100ce4:	69 
  100ce5:	73 20                	jae    100d07 <Sixteen+0x5>
  100ce7:	69 73 20 62 61 64 0a 	imul   $0xa646162,0x20(%ebx),%esi
	...

00100cef <isr15>:
  100cef:	66 b8 10 00          	mov    $0x10,%ax
  100cf3:	8e d8                	mov    %eax,%ds
  100cf5:	68 b7 0c 10 00       	push   $0x100cb7
  100cfa:	e8 21 07 00 00       	call   101420 <display>
  100cff:	58                   	pop    %eax
  100d00:	eb fe                	jmp    100d00 <isr15+0x11>

00100d02 <Sixteen>:
  100d02:	78 38                	js     100d3c <Seventeen+0x9>
  100d04:	37                   	aaa    
  100d05:	20 46 50             	and    %al,0x50(%esi)
  100d08:	55                   	push   %ebp
  100d09:	20 46 6c             	and    %al,0x6c(%esi)
  100d0c:	6f                   	outsl  %ds:(%esi),(%dx)
  100d0d:	61                   	popa   
  100d0e:	74 69                	je     100d79 <Eighteen+0x18>
  100d10:	6e                   	outsb  %ds:(%esi),(%dx)
  100d11:	67 2d 50 6f 69 6e    	addr16 sub $0x6e696f50,%eax
  100d17:	74 20                	je     100d39 <Seventeen+0x6>
  100d19:	45                   	inc    %ebp
  100d1a:	72 72                	jb     100d8e <Nineteen+0x1>
  100d1c:	6f                   	outsl  %ds:(%esi),(%dx)
  100d1d:	72 0a                	jb     100d29 <isr16+0x9>
	...

00100d20 <isr16>:
  100d20:	66 b8 10 00          	mov    $0x10,%ax
  100d24:	8e d8                	mov    %eax,%ds
  100d26:	68 02 0d 10 00       	push   $0x100d02
  100d2b:	e8 f0 06 00 00       	call   101420 <display>
  100d30:	58                   	pop    %eax
  100d31:	eb fe                	jmp    100d31 <isr16+0x11>

00100d33 <Seventeen>:
  100d33:	41                   	inc    %ecx
  100d34:	6c                   	insb   (%dx),%es:(%edi)
  100d35:	69 67 6e 6d 65 6e 74 	imul   $0x746e656d,0x6e(%edi),%esp
  100d3c:	20 43 68             	and    %al,0x68(%ebx)
  100d3f:	65 63 6b 20          	arpl   %bp,%gs:0x20(%ebx)
  100d43:	45                   	inc    %ebp
  100d44:	78 63                	js     100da9 <Nineteen+0x1c>
  100d46:	65                   	gs
  100d47:	70 74                	jo     100dbd <isr19+0x11>
  100d49:	69 6f 6e 0a 00 66 b8 	imul   $0xb866000a,0x6e(%edi),%ebp

00100d4e <isr17>:
  100d4e:	66 b8 10 00          	mov    $0x10,%ax
  100d52:	8e d8                	mov    %eax,%ds
  100d54:	68 33 0d 10 00       	push   $0x100d33
  100d59:	e8 c2 06 00 00       	call   101420 <display>
  100d5e:	58                   	pop    %eax
  100d5f:	eb fe                	jmp    100d5f <isr17+0x11>

00100d61 <Eighteen>:
  100d61:	4d                   	dec    %ebp
  100d62:	61                   	popa   
  100d63:	63 68 69             	arpl   %bp,0x69(%eax)
  100d66:	6e                   	outsb  %ds:(%esi),(%dx)
  100d67:	65                   	gs
  100d68:	2d 43 68 65 63       	sub    $0x63656843,%eax
  100d6d:	6b 20 45             	imul   $0x45,(%eax),%esp
  100d70:	78 63                	js     100dd5 <main+0x15>
  100d72:	65                   	gs
  100d73:	70 74                	jo     100de9 <main+0x29>
  100d75:	69 6f 6e 0a 00 66 b8 	imul   $0xb866000a,0x6e(%edi),%ebp

00100d7a <isr18>:
  100d7a:	66 b8 10 00          	mov    $0x10,%ax
  100d7e:	8e d8                	mov    %eax,%ds
  100d80:	68 61 0d 10 00       	push   $0x100d61
  100d85:	e8 96 06 00 00       	call   101420 <display>
  100d8a:	58                   	pop    %eax
  100d8b:	eb fe                	jmp    100d8b <isr18+0x11>

00100d8d <Nineteen>:
  100d8d:	53                   	push   %ebx
  100d8e:	49                   	dec    %ecx
  100d8f:	4d                   	dec    %ebp
  100d90:	44                   	inc    %esp
  100d91:	20 46 6c             	and    %al,0x6c(%esi)
  100d94:	6f                   	outsl  %ds:(%esi),(%dx)
  100d95:	61                   	popa   
  100d96:	74 69                	je     100e01 <main+0x41>
  100d98:	6e                   	outsb  %ds:(%esi),(%dx)
  100d99:	67 2d 50 6f 69 6e    	addr16 sub $0x6e696f50,%eax
  100d9f:	74 20                	je     100dc1 <main+0x1>
  100da1:	45                   	inc    %ebp
  100da2:	78 63                	js     100e07 <main+0x47>
  100da4:	65                   	gs
  100da5:	70 74                	jo     100e1b <main+0x5b>
  100da7:	69 6f 6e 0a 00 66 b8 	imul   $0xb866000a,0x6e(%edi),%ebp

00100dac <isr19>:
  100dac:	66 b8 10 00          	mov    $0x10,%ax
  100db0:	8e d8                	mov    %eax,%ds
  100db2:	68 8d 0d 10 00       	push   $0x100d8d
  100db7:	e8 64 06 00 00       	call   101420 <display>
  100dbc:	58                   	pop    %eax
  100dbd:	eb fe                	jmp    100dbd <isr19+0x11>
	...

00100dc0 <main>:
  100dc0:	8d 4c 24 04          	lea    0x4(%esp),%ecx
  100dc4:	83 e4 f0             	and    $0xfffffff0,%esp
  100dc7:	ff 71 fc             	pushl  -0x4(%ecx)
  100dca:	55                   	push   %ebp
  100dcb:	89 e5                	mov    %esp,%ebp
  100dcd:	51                   	push   %ecx
  100dce:	83 ec 24             	sub    $0x24,%esp
  100dd1:	89 4d d8             	mov    %ecx,-0x28(%ebp)
  100dd4:	e8 53 09 00 00       	call   10172c <clear_screen>
  100dd9:	e8 62 3b 00 00       	call   104940 <initialize_spinlock>
  100dde:	83 ec 0c             	sub    $0xc,%esp
  100de1:	68 fb 81 10 00       	push   $0x1081fb
  100de6:	e8 35 06 00 00       	call   101420 <display>
  100deb:	83 c4 10             	add    $0x10,%esp
  100dee:	83 ec 0c             	sub    $0xc,%esp
  100df1:	68 18 82 10 00       	push   $0x108218
  100df6:	e8 25 06 00 00       	call   101420 <display>
  100dfb:	83 c4 10             	add    $0x10,%esp
  100dfe:	e8 75 2c 00 00       	call   103a78 <setupPIC>
  100e03:	e8 0c f3 ff ff       	call   100114 <getEIP>
  100e08:	83 ec 0c             	sub    $0xc,%esp
  100e0b:	50                   	push   %eax
  100e0c:	e8 5f 06 00 00       	call   101470 <PrintNumber>
  100e11:	83 c4 10             	add    $0x10,%esp
  100e14:	83 ec 0c             	sub    $0xc,%esp
  100e17:	68 40 82 10 00       	push   $0x108240
  100e1c:	e8 3b 4e 00 00       	call   105c5c <puts>
  100e21:	83 c4 10             	add    $0x10,%esp
  100e24:	83 ec 0c             	sub    $0xc,%esp
  100e27:	68 45 82 10 00       	push   $0x108245
  100e2c:	e8 ef 05 00 00       	call   101420 <display>
  100e31:	83 c4 10             	add    $0x10,%esp
  100e34:	83 ec 0c             	sub    $0xc,%esp
  100e37:	68 e8 03 00 00       	push   $0x3e8
  100e3c:	e8 2f 06 00 00       	call   101470 <PrintNumber>
  100e41:	83 c4 10             	add    $0x10,%esp
  100e44:	83 ec 0c             	sub    $0xc,%esp
  100e47:	68 63 82 10 00       	push   $0x108263
  100e4c:	e8 cf 05 00 00       	call   101420 <display>
  100e51:	83 c4 10             	add    $0x10,%esp
  100e54:	83 ec 0c             	sub    $0xc,%esp
  100e57:	68 e8 03 00 00       	push   $0x3e8
  100e5c:	e8 f5 2c 00 00       	call   103b56 <setupTimer>
  100e61:	83 c4 10             	add    $0x10,%esp
  100e64:	83 ec 0c             	sub    $0xc,%esp
  100e67:	68 6c 82 10 00       	push   $0x10826c
  100e6c:	e8 af 05 00 00       	call   101420 <display>
  100e71:	83 c4 10             	add    $0x10,%esp
  100e74:	83 ec 08             	sub    $0x8,%esp
  100e77:	8b 45 d8             	mov    -0x28(%ebp),%eax
  100e7a:	ff 70 04             	pushl  0x4(%eax)
  100e7d:	8b 55 d8             	mov    -0x28(%ebp),%edx
  100e80:	ff 32                	pushl  (%edx)
  100e82:	e8 ce 19 00 00       	call   102855 <setup_paging>
  100e87:	83 c4 10             	add    $0x10,%esp
  100e8a:	8b 55 d8             	mov    -0x28(%ebp),%edx
  100e8d:	8b 02                	mov    (%edx),%eax
  100e8f:	8b 00                	mov    (%eax),%eax
  100e91:	83 e0 02             	and    $0x2,%eax
  100e94:	85 c0                	test   %eax,%eax
  100e96:	74 34                	je     100ecc <main+0x10c>
  100e98:	83 ec 0c             	sub    $0xc,%esp
  100e9b:	68 8b 82 10 00       	push   $0x10828b
  100ea0:	e8 7b 05 00 00       	call   101420 <display>
  100ea5:	83 c4 10             	add    $0x10,%esp
  100ea8:	8b 55 d8             	mov    -0x28(%ebp),%edx
  100eab:	8b 02                	mov    (%edx),%eax
  100ead:	8b 40 0c             	mov    0xc(%eax),%eax
  100eb0:	83 ec 0c             	sub    $0xc,%esp
  100eb3:	50                   	push   %eax
  100eb4:	e8 b7 05 00 00       	call   101470 <PrintNumber>
  100eb9:	83 c4 10             	add    $0x10,%esp
  100ebc:	83 ec 0c             	sub    $0xc,%esp
  100ebf:	68 99 82 10 00       	push   $0x108299
  100ec4:	e8 57 05 00 00       	call   101420 <display>
  100ec9:	83 c4 10             	add    $0x10,%esp
  100ecc:	8b 55 d8             	mov    -0x28(%ebp),%edx
  100ecf:	8b 02                	mov    (%edx),%eax
  100ed1:	8b 00                	mov    (%eax),%eax
  100ed3:	83 e0 04             	and    $0x4,%eax
  100ed6:	85 c0                	test   %eax,%eax
  100ed8:	74 34                	je     100f0e <main+0x14e>
  100eda:	83 ec 0c             	sub    $0xc,%esp
  100edd:	68 9b 82 10 00       	push   $0x10829b
  100ee2:	e8 39 05 00 00       	call   101420 <display>
  100ee7:	83 c4 10             	add    $0x10,%esp
  100eea:	8b 55 d8             	mov    -0x28(%ebp),%edx
  100eed:	8b 02                	mov    (%edx),%eax
  100eef:	8b 40 10             	mov    0x10(%eax),%eax
  100ef2:	83 ec 0c             	sub    $0xc,%esp
  100ef5:	50                   	push   %eax
  100ef6:	e8 25 05 00 00       	call   101420 <display>
  100efb:	83 c4 10             	add    $0x10,%esp
  100efe:	83 ec 0c             	sub    $0xc,%esp
  100f01:	68 99 82 10 00       	push   $0x108299
  100f06:	e8 15 05 00 00       	call   101420 <display>
  100f0b:	83 c4 10             	add    $0x10,%esp
  100f0e:	83 ec 0c             	sub    $0xc,%esp
  100f11:	68 ac 82 10 00       	push   $0x1082ac
  100f16:	e8 05 05 00 00       	call   101420 <display>
  100f1b:	83 c4 10             	add    $0x10,%esp
  100f1e:	83 ec 0c             	sub    $0xc,%esp
  100f21:	6a 0c                	push   $0xc
  100f23:	e8 65 14 00 00       	call   10238d <malloc>
  100f28:	83 c4 10             	add    $0x10,%esp
  100f2b:	a3 00 d0 10 00       	mov    %eax,0x10d000
  100f30:	83 ec 0c             	sub    $0xc,%esp
  100f33:	68 00 10 00 00       	push   $0x1000
  100f38:	e8 50 14 00 00       	call   10238d <malloc>
  100f3d:	83 c4 10             	add    $0x10,%esp
  100f40:	89 45 f0             	mov    %eax,-0x10(%ebp)
  100f43:	83 ec 04             	sub    $0x4,%esp
  100f46:	68 00 10 00 00       	push   $0x1000
  100f4b:	6a 00                	push   $0x0
  100f4d:	ff 75 f0             	pushl  -0x10(%ebp)
  100f50:	e8 96 18 00 00       	call   1027eb <memcopy>
  100f55:	83 c4 10             	add    $0x10,%esp
  100f58:	e8 b5 f2 ff ff       	call   100212 <setup_multi_gdt>
  100f5d:	a1 00 d0 10 00       	mov    0x10d000,%eax
  100f62:	83 ec 0c             	sub    $0xc,%esp
  100f65:	50                   	push   %eax
  100f66:	e8 06 4b 00 00       	call   105a71 <init_first_task>
  100f6b:	83 c4 10             	add    $0x10,%esp
  100f6e:	83 ec 0c             	sub    $0xc,%esp
  100f71:	68 cf 82 10 00       	push   $0x1082cf
  100f76:	e8 a5 04 00 00       	call   101420 <display>
  100f7b:	83 c4 10             	add    $0x10,%esp
  100f7e:	b8 c0 0d 10 00       	mov    $0x100dc0,%eax
  100f83:	83 ec 0c             	sub    $0xc,%esp
  100f86:	50                   	push   %eax
  100f87:	e8 e4 04 00 00       	call   101470 <PrintNumber>
  100f8c:	83 c4 10             	add    $0x10,%esp
  100f8f:	83 ec 0c             	sub    $0xc,%esp
  100f92:	68 d6 82 10 00       	push   $0x1082d6
  100f97:	e8 84 04 00 00       	call   101420 <display>
  100f9c:	83 c4 10             	add    $0x10,%esp
  100f9f:	b8 d2 5b 10 00       	mov    $0x105bd2,%eax
  100fa4:	83 ec 0c             	sub    $0xc,%esp
  100fa7:	50                   	push   %eax
  100fa8:	e8 c3 04 00 00       	call   101470 <PrintNumber>
  100fad:	83 c4 10             	add    $0x10,%esp
  100fb0:	83 ec 0c             	sub    $0xc,%esp
  100fb3:	68 e8 82 10 00       	push   $0x1082e8
  100fb8:	e8 63 04 00 00       	call   101420 <display>
  100fbd:	83 c4 10             	add    $0x10,%esp
  100fc0:	b8 d0 11 10 00       	mov    $0x1011d0,%eax
  100fc5:	83 ec 0c             	sub    $0xc,%esp
  100fc8:	50                   	push   %eax
  100fc9:	e8 a2 04 00 00       	call   101470 <PrintNumber>
  100fce:	83 c4 10             	add    $0x10,%esp
  100fd1:	83 ec 0c             	sub    $0xc,%esp
  100fd4:	68 99 82 10 00       	push   $0x108299
  100fd9:	e8 42 04 00 00       	call   101420 <display>
  100fde:	83 c4 10             	add    $0x10,%esp
  100fe1:	83 ec 0c             	sub    $0xc,%esp
  100fe4:	68 00 10 00 00       	push   $0x1000
  100fe9:	e8 9f 13 00 00       	call   10238d <malloc>
  100fee:	83 c4 10             	add    $0x10,%esp
  100ff1:	89 45 f8             	mov    %eax,-0x8(%ebp)
  100ff4:	83 ec 0c             	sub    $0xc,%esp
  100ff7:	6a 66                	push   $0x66
  100ff9:	e8 8f 13 00 00       	call   10238d <malloc>
  100ffe:	83 c4 10             	add    $0x10,%esp
  101001:	89 45 f4             	mov    %eax,-0xc(%ebp)
  101004:	8b 45 f8             	mov    -0x8(%ebp),%eax
  101007:	8d 90 fc 0f 00 00    	lea    0xffc(%eax),%edx
  10100d:	8b 45 f4             	mov    -0xc(%ebp),%eax
  101010:	89 50 38             	mov    %edx,0x38(%eax)
  101013:	8b 45 f4             	mov    -0xc(%ebp),%eax
  101016:	66 c7 40 4c 08 00    	movw   $0x8,0x4c(%eax)
  10101c:	8b 45 f4             	mov    -0xc(%ebp),%eax
  10101f:	66 c7 40 54 10 00    	movw   $0x10,0x54(%eax)
  101025:	8b 45 f4             	mov    -0xc(%ebp),%eax
  101028:	66 c7 40 48 10 00    	movw   $0x10,0x48(%eax)
  10102e:	8b 45 f4             	mov    -0xc(%ebp),%eax
  101031:	66 c7 40 58 10 00    	movw   $0x10,0x58(%eax)
  101037:	8b 45 f4             	mov    -0xc(%ebp),%eax
  10103a:	66 c7 40 5c 10 00    	movw   $0x10,0x5c(%eax)
  101040:	8b 45 f4             	mov    -0xc(%ebp),%eax
  101043:	66 c7 40 50 10 00    	movw   $0x10,0x50(%eax)
  101049:	e8 0f f2 ff ff       	call   10025d <getCR3>
  10104e:	89 c2                	mov    %eax,%edx
  101050:	8b 45 f4             	mov    -0xc(%ebp),%eax
  101053:	89 50 1c             	mov    %edx,0x1c(%eax)
  101056:	8b 45 f4             	mov    -0xc(%ebp),%eax
  101059:	66 c7 40 60 00 00    	movw   $0x0,0x60(%eax)
  10105f:	8b 45 f4             	mov    -0xc(%ebp),%eax
  101062:	c7 40 24 02 02 00 00 	movl   $0x202,0x24(%eax)
  101069:	b8 d2 5b 10 00       	mov    $0x105bd2,%eax
  10106e:	89 c2                	mov    %eax,%edx
  101070:	8b 45 f4             	mov    -0xc(%ebp),%eax
  101073:	89 50 20             	mov    %edx,0x20(%eax)
  101076:	a1 00 d0 10 00       	mov    0x10d000,%eax
  10107b:	83 ec 08             	sub    $0x8,%esp
  10107e:	50                   	push   %eax
  10107f:	ff 75 f4             	pushl  -0xc(%ebp)
  101082:	e8 7d 47 00 00       	call   105804 <add_task_before>
  101087:	83 c4 10             	add    $0x10,%esp
  10108a:	83 ec 0c             	sub    $0xc,%esp
  10108d:	68 00 10 00 00       	push   $0x1000
  101092:	e8 f6 12 00 00       	call   10238d <malloc>
  101097:	83 c4 10             	add    $0x10,%esp
  10109a:	89 45 f8             	mov    %eax,-0x8(%ebp)
  10109d:	8b 45 f8             	mov    -0x8(%ebp),%eax
  1010a0:	8d 90 fc 0f 00 00    	lea    0xffc(%eax),%edx
  1010a6:	8b 45 f4             	mov    -0xc(%ebp),%eax
  1010a9:	89 50 38             	mov    %edx,0x38(%eax)
  1010ac:	b8 d0 11 10 00       	mov    $0x1011d0,%eax
  1010b1:	89 c2                	mov    %eax,%edx
  1010b3:	8b 45 f4             	mov    -0xc(%ebp),%eax
  1010b6:	89 50 20             	mov    %edx,0x20(%eax)
  1010b9:	a1 00 d0 10 00       	mov    0x10d000,%eax
  1010be:	83 ec 08             	sub    $0x8,%esp
  1010c1:	50                   	push   %eax
  1010c2:	ff 75 f4             	pushl  -0xc(%ebp)
  1010c5:	e8 3a 47 00 00       	call   105804 <add_task_before>
  1010ca:	83 c4 10             	add    $0x10,%esp
  1010cd:	c6 05 18 04 10 00 01 	movb   $0x1,0x100418
  1010d4:	83 ec 0c             	sub    $0xc,%esp
  1010d7:	68 f8 82 10 00       	push   $0x1082f8
  1010dc:	e8 3f 03 00 00       	call   101420 <display>
  1010e1:	83 c4 10             	add    $0x10,%esp
  1010e4:	e8 b3 38 00 00       	call   10499c <init_messaging>
  1010e9:	83 ec 0c             	sub    $0xc,%esp
  1010ec:	68 21 83 10 00       	push   $0x108321
  1010f1:	e8 2a 03 00 00       	call   101420 <display>
  1010f6:	83 c4 10             	add    $0x10,%esp
  1010f9:	e8 4a 2b 00 00       	call   103c48 <init_keyboard>
  1010fe:	83 ec 0c             	sub    $0xc,%esp
  101101:	68 37 83 10 00       	push   $0x108337
  101106:	e8 15 03 00 00       	call   101420 <display>
  10110b:	83 c4 10             	add    $0x10,%esp
  10110e:	83 ec 0c             	sub    $0xc,%esp
  101111:	8d 45 dc             	lea    -0x24(%ebp),%eax
  101114:	50                   	push   %eax
  101115:	e8 5e 39 00 00       	call   104a78 <check_system_event>
  10111a:	83 c4 10             	add    $0x10,%esp
  10111d:	8b 45 dc             	mov    -0x24(%ebp),%eax
  101120:	85 c0                	test   %eax,%eax
  101122:	74 ea                	je     10110e <main+0x34e>
  101124:	83 ec 0c             	sub    $0xc,%esp
  101127:	8d 45 e0             	lea    -0x20(%ebp),%eax
  10112a:	50                   	push   %eax
  10112b:	e8 75 39 00 00       	call   104aa5 <get_system_event>
  101130:	83 c4 10             	add    $0x10,%esp
  101133:	8b 45 e0             	mov    -0x20(%ebp),%eax
  101136:	83 f8 01             	cmp    $0x1,%eax
  101139:	74 02                	je     10113d <main+0x37d>
  10113b:	eb 5f                	jmp    10119c <main+0x3dc>
  10113d:	8b 45 e8             	mov    -0x18(%ebp),%eax
  101140:	25 00 01 00 00       	and    $0x100,%eax
  101145:	85 c0                	test   %eax,%eax
  101147:	74 c5                	je     10110e <main+0x34e>
  101149:	8b 45 e8             	mov    -0x18(%ebp),%eax
  10114c:	25 ff 00 00 00       	and    $0xff,%eax
  101151:	83 f8 01             	cmp    $0x1,%eax
  101154:	74 02                	je     101158 <main+0x398>
  101156:	eb 24                	jmp    10117c <main+0x3bc>
  101158:	83 ec 08             	sub    $0x8,%esp
  10115b:	6a 64                	push   $0x64
  10115d:	68 fe 00 00 00       	push   $0xfe
  101162:	e8 8b ef ff ff       	call   1000f2 <outportb>
  101167:	83 c4 10             	add    $0x10,%esp
  10116a:	83 ec 0c             	sub    $0xc,%esp
  10116d:	68 54 83 10 00       	push   $0x108354
  101172:	e8 a9 02 00 00       	call   101420 <display>
  101177:	83 c4 10             	add    $0x10,%esp
  10117a:	eb 92                	jmp    10110e <main+0x34e>
  10117c:	8b 45 e8             	mov    -0x18(%ebp),%eax
  10117f:	25 ff 00 00 00       	and    $0xff,%eax
  101184:	8b 04 85 00 90 10 00 	mov    0x109000(,%eax,4),%eax
  10118b:	83 ec 0c             	sub    $0xc,%esp
  10118e:	50                   	push   %eax
  10118f:	e8 8c 02 00 00       	call   101420 <display>
  101194:	83 c4 10             	add    $0x10,%esp
  101197:	e9 72 ff ff ff       	jmp    10110e <main+0x34e>
  10119c:	83 ec 0c             	sub    $0xc,%esp
  10119f:	68 76 83 10 00       	push   $0x108376
  1011a4:	e8 77 02 00 00       	call   101420 <display>
  1011a9:	83 c4 10             	add    $0x10,%esp
  1011ac:	8b 45 e0             	mov    -0x20(%ebp),%eax
  1011af:	83 ec 0c             	sub    $0xc,%esp
  1011b2:	50                   	push   %eax
  1011b3:	e8 b8 02 00 00       	call   101470 <PrintNumber>
  1011b8:	83 c4 10             	add    $0x10,%esp
  1011bb:	83 ec 0c             	sub    $0xc,%esp
  1011be:	68 99 82 10 00       	push   $0x108299
  1011c3:	e8 58 02 00 00       	call   101420 <display>
  1011c8:	83 c4 10             	add    $0x10,%esp
  1011cb:	e9 3e ff ff ff       	jmp    10110e <main+0x34e>

001011d0 <setupFloppy>:
  1011d0:	55                   	push   %ebp
  1011d1:	89 e5                	mov    %esp,%ebp
  1011d3:	81 ec 88 00 00 00    	sub    $0x88,%esp
  1011d9:	83 ec 0c             	sub    $0xc,%esp
  1011dc:	68 90 83 10 00       	push   $0x108390
  1011e1:	e8 3a 02 00 00       	call   101420 <display>
  1011e6:	83 c4 10             	add    $0x10,%esp
  1011e9:	e8 71 26 00 00       	call   10385f <initialize>
  1011ee:	83 ec 0c             	sub    $0xc,%esp
  1011f1:	68 00 10 00 00       	push   $0x1000
  1011f6:	e8 92 11 00 00       	call   10238d <malloc>
  1011fb:	83 c4 10             	add    $0x10,%esp
  1011fe:	89 45 f8             	mov    %eax,-0x8(%ebp)
  101201:	83 ec 0c             	sub    $0xc,%esp
  101204:	68 ac 83 10 00       	push   $0x1083ac
  101209:	e8 12 02 00 00       	call   101420 <display>
  10120e:	83 c4 10             	add    $0x10,%esp
  101211:	83 ec 0c             	sub    $0xc,%esp
  101214:	6a 09                	push   $0x9
  101216:	e8 72 11 00 00       	call   10238d <malloc>
  10121b:	83 c4 10             	add    $0x10,%esp
  10121e:	89 45 fc             	mov    %eax,-0x4(%ebp)
  101221:	8b 45 fc             	mov    -0x4(%ebp),%eax
  101224:	c6 00 00             	movb   $0x0,(%eax)
  101227:	8d 45 84             	lea    -0x7c(%ebp),%eax
  10122a:	83 ec 04             	sub    $0x4,%esp
  10122d:	6a 00                	push   $0x0
  10122f:	6a 00                	push   $0x0
  101231:	50                   	push   %eax
  101232:	e8 d1 38 00 00       	call   104b08 <readSector>
  101237:	83 c4 0c             	add    $0xc,%esp
  10123a:	8b 45 88             	mov    -0x78(%ebp),%eax
  10123d:	85 c0                	test   %eax,%eax
  10123f:	75 12                	jne    101253 <setupFloppy+0x83>
  101241:	83 ec 0c             	sub    $0xc,%esp
  101244:	68 d8 83 10 00       	push   $0x1083d8
  101249:	e8 d2 01 00 00       	call   101420 <display>
  10124e:	83 c4 10             	add    $0x10,%esp
  101251:	eb 15                	jmp    101268 <setupFloppy+0x98>
  101253:	8b 45 84             	mov    -0x7c(%ebp),%eax
  101256:	83 ec 04             	sub    $0x4,%esp
  101259:	50                   	push   %eax
  10125a:	8d 45 8c             	lea    -0x74(%ebp),%eax
  10125d:	50                   	push   %eax
  10125e:	6a 00                	push   $0x0
  101260:	e8 f7 3b 00 00       	call   104e5c <load_boot_sector>
  101265:	83 c4 10             	add    $0x10,%esp
  101268:	8b 45 84             	mov    -0x7c(%ebp),%eax
  10126b:	83 c0 03             	add    $0x3,%eax
  10126e:	83 ec 04             	sub    $0x4,%esp
  101271:	6a 08                	push   $0x8
  101273:	50                   	push   %eax
  101274:	ff 75 fc             	pushl  -0x4(%ebp)
  101277:	e8 6f 15 00 00       	call   1027eb <memcopy>
  10127c:	83 c4 10             	add    $0x10,%esp
  10127f:	83 ec 0c             	sub    $0xc,%esp
  101282:	68 00 84 10 00       	push   $0x108400
  101287:	e8 94 01 00 00       	call   101420 <display>
  10128c:	83 c4 10             	add    $0x10,%esp
  10128f:	8b 45 fc             	mov    -0x4(%ebp),%eax
  101292:	83 ec 0c             	sub    $0xc,%esp
  101295:	50                   	push   %eax
  101296:	e8 85 01 00 00       	call   101420 <display>
  10129b:	83 c4 10             	add    $0x10,%esp
  10129e:	83 ec 0c             	sub    $0xc,%esp
  1012a1:	68 14 84 10 00       	push   $0x108414
  1012a6:	e8 75 01 00 00       	call   101420 <display>
  1012ab:	83 c4 10             	add    $0x10,%esp
  1012ae:	8b 45 84             	mov    -0x7c(%ebp),%eax
  1012b1:	83 c0 0c             	add    $0xc,%eax
  1012b4:	8a 00                	mov    (%eax),%al
  1012b6:	0f b6 c0             	movzbl %al,%eax
  1012b9:	89 c2                	mov    %eax,%edx
  1012bb:	c1 e2 08             	shl    $0x8,%edx
  1012be:	8b 45 84             	mov    -0x7c(%ebp),%eax
  1012c1:	83 c0 0b             	add    $0xb,%eax
  1012c4:	8a 00                	mov    (%eax),%al
  1012c6:	0f b6 c0             	movzbl %al,%eax
  1012c9:	8d 04 02             	lea    (%edx,%eax,1),%eax
  1012cc:	83 ec 0c             	sub    $0xc,%esp
  1012cf:	50                   	push   %eax
  1012d0:	e8 9b 01 00 00       	call   101470 <PrintNumber>
  1012d5:	83 c4 10             	add    $0x10,%esp
  1012d8:	83 ec 0c             	sub    $0xc,%esp
  1012db:	68 27 84 10 00       	push   $0x108427
  1012e0:	e8 3b 01 00 00       	call   101420 <display>
  1012e5:	83 c4 10             	add    $0x10,%esp
  1012e8:	8b 45 84             	mov    -0x7c(%ebp),%eax
  1012eb:	83 c0 0d             	add    $0xd,%eax
  1012ee:	8a 00                	mov    (%eax),%al
  1012f0:	0f b6 c0             	movzbl %al,%eax
  1012f3:	83 ec 0c             	sub    $0xc,%esp
  1012f6:	50                   	push   %eax
  1012f7:	e8 74 01 00 00       	call   101470 <PrintNumber>
  1012fc:	83 c4 10             	add    $0x10,%esp
  1012ff:	83 ec 0c             	sub    $0xc,%esp
  101302:	68 3d 84 10 00       	push   $0x10843d
  101307:	e8 14 01 00 00       	call   101420 <display>
  10130c:	83 c4 10             	add    $0x10,%esp
  10130f:	8b 45 84             	mov    -0x7c(%ebp),%eax
  101312:	83 c0 0f             	add    $0xf,%eax
  101315:	8a 00                	mov    (%eax),%al
  101317:	0f b6 c0             	movzbl %al,%eax
  10131a:	89 c2                	mov    %eax,%edx
  10131c:	c1 e2 08             	shl    $0x8,%edx
  10131f:	8b 45 84             	mov    -0x7c(%ebp),%eax
  101322:	83 c0 0e             	add    $0xe,%eax
  101325:	8a 00                	mov    (%eax),%al
  101327:	0f b6 c0             	movzbl %al,%eax
  10132a:	8d 04 02             	lea    (%edx,%eax,1),%eax
  10132d:	83 ec 0c             	sub    $0xc,%esp
  101330:	50                   	push   %eax
  101331:	e8 3a 01 00 00       	call   101470 <PrintNumber>
  101336:	83 c4 10             	add    $0x10,%esp
  101339:	83 ec 0c             	sub    $0xc,%esp
  10133c:	68 5a 84 10 00       	push   $0x10845a
  101341:	e8 da 00 00 00       	call   101420 <display>
  101346:	83 c4 10             	add    $0x10,%esp
  101349:	8b 45 84             	mov    -0x7c(%ebp),%eax
  10134c:	83 c0 10             	add    $0x10,%eax
  10134f:	8a 00                	mov    (%eax),%al
  101351:	0f b6 c0             	movzbl %al,%eax
  101354:	83 ec 0c             	sub    $0xc,%esp
  101357:	50                   	push   %eax
  101358:	e8 13 01 00 00       	call   101470 <PrintNumber>
  10135d:	83 c4 10             	add    $0x10,%esp
  101360:	83 ec 0c             	sub    $0xc,%esp
  101363:	68 74 84 10 00       	push   $0x108474
  101368:	e8 b3 00 00 00       	call   101420 <display>
  10136d:	83 c4 10             	add    $0x10,%esp
  101370:	8b 45 84             	mov    -0x7c(%ebp),%eax
  101373:	83 c0 12             	add    $0x12,%eax
  101376:	8a 00                	mov    (%eax),%al
  101378:	0f b6 c0             	movzbl %al,%eax
  10137b:	89 c2                	mov    %eax,%edx
  10137d:	c1 e2 08             	shl    $0x8,%edx
  101380:	8b 45 84             	mov    -0x7c(%ebp),%eax
  101383:	83 c0 11             	add    $0x11,%eax
  101386:	8a 00                	mov    (%eax),%al
  101388:	0f b6 c0             	movzbl %al,%eax
  10138b:	8d 04 02             	lea    (%edx,%eax,1),%eax
  10138e:	83 ec 0c             	sub    $0xc,%esp
  101391:	50                   	push   %eax
  101392:	e8 d9 00 00 00       	call   101470 <PrintNumber>
  101397:	83 c4 10             	add    $0x10,%esp
  10139a:	83 ec 0c             	sub    $0xc,%esp
  10139d:	68 94 84 10 00       	push   $0x108494
  1013a2:	e8 79 00 00 00       	call   101420 <display>
  1013a7:	83 c4 10             	add    $0x10,%esp
  1013aa:	8b 45 84             	mov    -0x7c(%ebp),%eax
  1013ad:	83 c0 14             	add    $0x14,%eax
  1013b0:	8a 00                	mov    (%eax),%al
  1013b2:	0f b6 c0             	movzbl %al,%eax
  1013b5:	89 c2                	mov    %eax,%edx
  1013b7:	c1 e2 08             	shl    $0x8,%edx
  1013ba:	8b 45 84             	mov    -0x7c(%ebp),%eax
  1013bd:	83 c0 13             	add    $0x13,%eax
  1013c0:	8a 00                	mov    (%eax),%al
  1013c2:	0f b6 c0             	movzbl %al,%eax
  1013c5:	8d 04 02             	lea    (%edx,%eax,1),%eax
  1013c8:	83 ec 0c             	sub    $0xc,%esp
  1013cb:	50                   	push   %eax
  1013cc:	e8 9f 00 00 00       	call   101470 <PrintNumber>
  1013d1:	83 c4 10             	add    $0x10,%esp
  1013d4:	83 ec 0c             	sub    $0xc,%esp
  1013d7:	68 ae 84 10 00       	push   $0x1084ae
  1013dc:	e8 3f 00 00 00       	call   101420 <display>
  1013e1:	83 c4 10             	add    $0x10,%esp
  1013e4:	8b 45 84             	mov    -0x7c(%ebp),%eax
  1013e7:	83 c0 17             	add    $0x17,%eax
  1013ea:	8a 00                	mov    (%eax),%al
  1013ec:	0f b6 c0             	movzbl %al,%eax
  1013ef:	89 c2                	mov    %eax,%edx
  1013f1:	c1 e2 08             	shl    $0x8,%edx
  1013f4:	8b 45 84             	mov    -0x7c(%ebp),%eax
  1013f7:	83 c0 16             	add    $0x16,%eax
  1013fa:	8a 00                	mov    (%eax),%al
  1013fc:	0f b6 c0             	movzbl %al,%eax
  1013ff:	8d 04 02             	lea    (%edx,%eax,1),%eax
  101402:	83 ec 0c             	sub    $0xc,%esp
  101405:	50                   	push   %eax
  101406:	e8 65 00 00 00       	call   101470 <PrintNumber>
  10140b:	83 c4 10             	add    $0x10,%esp
  10140e:	83 ec 0c             	sub    $0xc,%esp
  101411:	68 99 82 10 00       	push   $0x108299
  101416:	e8 05 00 00 00       	call   101420 <display>
  10141b:	83 c4 10             	add    $0x10,%esp
  10141e:	eb fe                	jmp    10141e <setupFloppy+0x24e>

00101420 <display>:
  101420:	55                   	push   %ebp
  101421:	89 e5                	mov    %esp,%ebp
  101423:	83 ec 18             	sub    $0x18,%esp
  101426:	83 ec 0c             	sub    $0xc,%esp
  101429:	6a 02                	push   $0x2
  10142b:	e8 24 33 00 00       	call   104754 <enter_spinlock>
  101430:	83 c4 10             	add    $0x10,%esp
  101433:	8b 45 08             	mov    0x8(%ebp),%eax
  101436:	89 45 f8             	mov    %eax,-0x8(%ebp)
  101439:	8b 45 f8             	mov    -0x8(%ebp),%eax
  10143c:	89 45 fc             	mov    %eax,-0x4(%ebp)
  10143f:	eb 17                	jmp    101458 <display+0x38>
  101441:	8b 45 fc             	mov    -0x4(%ebp),%eax
  101444:	8a 00                	mov    (%eax),%al
  101446:	0f b6 c0             	movzbl %al,%eax
  101449:	83 ec 0c             	sub    $0xc,%esp
  10144c:	50                   	push   %eax
  10144d:	e8 b1 00 00 00       	call   101503 <put>
  101452:	83 c4 10             	add    $0x10,%esp
  101455:	ff 45 fc             	incl   -0x4(%ebp)
  101458:	8b 45 fc             	mov    -0x4(%ebp),%eax
  10145b:	8a 00                	mov    (%eax),%al
  10145d:	84 c0                	test   %al,%al
  10145f:	75 e0                	jne    101441 <display+0x21>
  101461:	83 ec 0c             	sub    $0xc,%esp
  101464:	6a 02                	push   $0x2
  101466:	e8 94 33 00 00       	call   1047ff <leave_spinlock>
  10146b:	83 c4 10             	add    $0x10,%esp
  10146e:	c9                   	leave  
  10146f:	c3                   	ret    

00101470 <PrintNumber>:
  101470:	55                   	push   %ebp
  101471:	89 e5                	mov    %esp,%ebp
  101473:	83 ec 18             	sub    $0x18,%esp
  101476:	83 ec 0c             	sub    $0xc,%esp
  101479:	6a 02                	push   $0x2
  10147b:	e8 d4 32 00 00       	call   104754 <enter_spinlock>
  101480:	83 c4 10             	add    $0x10,%esp
  101483:	c7 45 f8 00 00 00 00 	movl   $0x0,-0x8(%ebp)
  10148a:	83 ec 0c             	sub    $0xc,%esp
  10148d:	6a 30                	push   $0x30
  10148f:	e8 6f 00 00 00       	call   101503 <put>
  101494:	83 c4 10             	add    $0x10,%esp
  101497:	83 ec 0c             	sub    $0xc,%esp
  10149a:	6a 78                	push   $0x78
  10149c:	e8 62 00 00 00       	call   101503 <put>
  1014a1:	83 c4 10             	add    $0x10,%esp
  1014a4:	c7 45 fc 07 00 00 00 	movl   $0x7,-0x4(%ebp)
  1014ab:	c7 45 fc 07 00 00 00 	movl   $0x7,-0x4(%ebp)
  1014b2:	eb 3a                	jmp    1014ee <PrintNumber+0x7e>
  1014b4:	8b 45 fc             	mov    -0x4(%ebp),%eax
  1014b7:	8d 0c 85 00 00 00 00 	lea    0x0(,%eax,4),%ecx
  1014be:	8b 45 08             	mov    0x8(%ebp),%eax
  1014c1:	d3 e8                	shr    %cl,%eax
  1014c3:	83 e0 0f             	and    $0xf,%eax
  1014c6:	89 45 f8             	mov    %eax,-0x8(%ebp)
  1014c9:	83 7d f8 09          	cmpl   $0x9,-0x8(%ebp)
  1014cd:	76 06                	jbe    1014d5 <PrintNumber+0x65>
  1014cf:	83 45 f8 37          	addl   $0x37,-0x8(%ebp)
  1014d3:	eb 04                	jmp    1014d9 <PrintNumber+0x69>
  1014d5:	83 45 f8 30          	addl   $0x30,-0x8(%ebp)
  1014d9:	8b 45 f8             	mov    -0x8(%ebp),%eax
  1014dc:	0f b6 c0             	movzbl %al,%eax
  1014df:	83 ec 0c             	sub    $0xc,%esp
  1014e2:	50                   	push   %eax
  1014e3:	e8 1b 00 00 00       	call   101503 <put>
  1014e8:	83 c4 10             	add    $0x10,%esp
  1014eb:	ff 4d fc             	decl   -0x4(%ebp)
  1014ee:	83 7d fc 00          	cmpl   $0x0,-0x4(%ebp)
  1014f2:	79 c0                	jns    1014b4 <PrintNumber+0x44>
  1014f4:	83 ec 0c             	sub    $0xc,%esp
  1014f7:	6a 02                	push   $0x2
  1014f9:	e8 01 33 00 00       	call   1047ff <leave_spinlock>
  1014fe:	83 c4 10             	add    $0x10,%esp
  101501:	c9                   	leave  
  101502:	c3                   	ret    

00101503 <put>:
  101503:	55                   	push   %ebp
  101504:	89 e5                	mov    %esp,%ebp
  101506:	83 ec 18             	sub    $0x18,%esp
  101509:	8b 45 08             	mov    0x8(%ebp),%eax
  10150c:	88 45 ec             	mov    %al,-0x14(%ebp)
  10150f:	c7 45 fc 00 80 0b 00 	movl   $0xb8000,-0x4(%ebp)
  101516:	a1 28 d8 10 00       	mov    0x10d828,%eax
  10151b:	83 f8 4f             	cmp    $0x4f,%eax
  10151e:	76 17                	jbe    101537 <put+0x34>
  101520:	c7 05 28 d8 10 00 00 	movl   $0x0,0x10d828
  101527:	00 00 00 
  10152a:	a1 2c d8 10 00       	mov    0x10d82c,%eax
  10152f:	83 c0 50             	add    $0x50,%eax
  101532:	a3 2c d8 10 00       	mov    %eax,0x10d82c
  101537:	a1 2c d8 10 00       	mov    0x10d82c,%eax
  10153c:	3d cf 07 00 00       	cmp    $0x7cf,%eax
  101541:	76 0f                	jbe    101552 <put+0x4f>
  101543:	e8 29 02 00 00       	call   101771 <scroll_screen>
  101548:	c7 05 2c d8 10 00 80 	movl   $0x780,0x10d82c
  10154f:	07 00 00 
  101552:	0f b6 45 ec          	movzbl -0x14(%ebp),%eax
  101556:	89 45 e8             	mov    %eax,-0x18(%ebp)
  101559:	83 7d e8 0a          	cmpl   $0xa,-0x18(%ebp)
  10155d:	0f 84 78 01 00 00    	je     1016db <put+0x1d8>
  101563:	83 7d e8 0a          	cmpl   $0xa,-0x18(%ebp)
  101567:	7f 34                	jg     10159d <put+0x9a>
  101569:	83 7d e8 07          	cmpl   $0x7,-0x18(%ebp)
  10156d:	0f 84 b7 01 00 00    	je     10172a <put+0x227>
  101573:	83 7d e8 07          	cmpl   $0x7,-0x18(%ebp)
  101577:	7f 0f                	jg     101588 <put+0x85>
  101579:	83 7d e8 00          	cmpl   $0x0,-0x18(%ebp)
  10157d:	0f 88 7d 01 00 00    	js     101700 <put+0x1fd>
  101583:	e9 a2 01 00 00       	jmp    10172a <put+0x227>
  101588:	83 7d e8 08          	cmpl   $0x8,-0x18(%ebp)
  10158c:	74 5b                	je     1015e9 <put+0xe6>
  10158e:	83 7d e8 09          	cmpl   $0x9,-0x18(%ebp)
  101592:	0f 84 ec 00 00 00    	je     101684 <put+0x181>
  101598:	e9 63 01 00 00       	jmp    101700 <put+0x1fd>
  10159d:	83 7d e8 0d          	cmpl   $0xd,-0x18(%ebp)
  1015a1:	0f 84 4d 01 00 00    	je     1016f4 <put+0x1f1>
  1015a7:	83 7d e8 0d          	cmpl   $0xd,-0x18(%ebp)
  1015ab:	7f 19                	jg     1015c6 <put+0xc3>
  1015ad:	83 7d e8 0b          	cmpl   $0xb,-0x18(%ebp)
  1015b1:	0f 84 73 01 00 00    	je     10172a <put+0x227>
  1015b7:	83 7d e8 0c          	cmpl   $0xc,-0x18(%ebp)
  1015bb:	0f 84 69 01 00 00    	je     10172a <put+0x227>
  1015c1:	e9 3a 01 00 00       	jmp    101700 <put+0x1fd>
  1015c6:	83 7d e8 0f          	cmpl   $0xf,-0x18(%ebp)
  1015ca:	0f 8c 30 01 00 00    	jl     101700 <put+0x1fd>
  1015d0:	83 7d e8 1f          	cmpl   $0x1f,-0x18(%ebp)
  1015d4:	0f 8e 50 01 00 00    	jle    10172a <put+0x227>
  1015da:	83 7d e8 7f          	cmpl   $0x7f,-0x18(%ebp)
  1015de:	0f 84 46 01 00 00    	je     10172a <put+0x227>
  1015e4:	e9 17 01 00 00       	jmp    101700 <put+0x1fd>
  1015e9:	a1 28 d8 10 00       	mov    0x10d828,%eax
  1015ee:	85 c0                	test   %eax,%eax
  1015f0:	74 28                	je     10161a <put+0x117>
  1015f2:	a1 28 d8 10 00       	mov    0x10d828,%eax
  1015f7:	48                   	dec    %eax
  1015f8:	a3 28 d8 10 00       	mov    %eax,0x10d828
  1015fd:	8b 15 2c d8 10 00    	mov    0x10d82c,%edx
  101603:	a1 28 d8 10 00       	mov    0x10d828,%eax
  101608:	8d 04 02             	lea    (%edx,%eax,1),%eax
  10160b:	d1 e0                	shl    %eax
  10160d:	03 45 fc             	add    -0x4(%ebp),%eax
  101610:	66 c7 00 20 07       	movw   $0x720,(%eax)
  101615:	e9 10 01 00 00       	jmp    10172a <put+0x227>
  10161a:	a1 28 d8 10 00       	mov    0x10d828,%eax
  10161f:	85 c0                	test   %eax,%eax
  101621:	0f 85 03 01 00 00    	jne    10172a <put+0x227>
  101627:	c7 05 28 d8 10 00 4f 	movl   $0x4f,0x10d828
  10162e:	00 00 00 
  101631:	a1 2c d8 10 00       	mov    0x10d82c,%eax
  101636:	83 e8 50             	sub    $0x50,%eax
  101639:	a3 2c d8 10 00       	mov    %eax,0x10d82c
  10163e:	eb 0b                	jmp    10164b <put+0x148>
  101640:	a1 28 d8 10 00       	mov    0x10d828,%eax
  101645:	48                   	dec    %eax
  101646:	a3 28 d8 10 00       	mov    %eax,0x10d828
  10164b:	8b 15 2c d8 10 00    	mov    0x10d82c,%edx
  101651:	a1 28 d8 10 00       	mov    0x10d828,%eax
  101656:	8d 04 02             	lea    (%edx,%eax,1),%eax
  101659:	d1 e0                	shl    %eax
  10165b:	03 45 fc             	add    -0x4(%ebp),%eax
  10165e:	66 8b 00             	mov    (%eax),%ax
  101661:	66 83 f8 20          	cmp    $0x20,%ax
  101665:	74 d9                	je     101640 <put+0x13d>
  101667:	8b 15 2c d8 10 00    	mov    0x10d82c,%edx
  10166d:	a1 28 d8 10 00       	mov    0x10d828,%eax
  101672:	8d 04 02             	lea    (%edx,%eax,1),%eax
  101675:	d1 e0                	shl    %eax
  101677:	03 45 fc             	add    -0x4(%ebp),%eax
  10167a:	66 c7 00 20 07       	movw   $0x720,(%eax)
  10167f:	e9 a6 00 00 00       	jmp    10172a <put+0x227>
  101684:	a1 28 d8 10 00       	mov    0x10d828,%eax
  101689:	83 f8 4b             	cmp    $0x4b,%eax
  10168c:	76 1c                	jbe    1016aa <put+0x1a7>
  10168e:	c7 05 28 d8 10 00 00 	movl   $0x0,0x10d828
  101695:	00 00 00 
  101698:	a1 2c d8 10 00       	mov    0x10d82c,%eax
  10169d:	83 c0 50             	add    $0x50,%eax
  1016a0:	a3 2c d8 10 00       	mov    %eax,0x10d82c
  1016a5:	e9 80 00 00 00       	jmp    10172a <put+0x227>
  1016aa:	8b 15 2c d8 10 00    	mov    0x10d82c,%edx
  1016b0:	a1 28 d8 10 00       	mov    0x10d828,%eax
  1016b5:	8d 04 02             	lea    (%edx,%eax,1),%eax
  1016b8:	d1 e0                	shl    %eax
  1016ba:	03 45 fc             	add    -0x4(%ebp),%eax
  1016bd:	66 c7 00 20 07       	movw   $0x720,(%eax)
  1016c2:	a1 28 d8 10 00       	mov    0x10d828,%eax
  1016c7:	40                   	inc    %eax
  1016c8:	a3 28 d8 10 00       	mov    %eax,0x10d828
  1016cd:	a1 28 d8 10 00       	mov    0x10d828,%eax
  1016d2:	83 e0 03             	and    $0x3,%eax
  1016d5:	85 c0                	test   %eax,%eax
  1016d7:	75 d1                	jne    1016aa <put+0x1a7>
  1016d9:	eb 4f                	jmp    10172a <put+0x227>
  1016db:	c7 05 28 d8 10 00 00 	movl   $0x0,0x10d828
  1016e2:	00 00 00 
  1016e5:	a1 2c d8 10 00       	mov    0x10d82c,%eax
  1016ea:	83 c0 50             	add    $0x50,%eax
  1016ed:	a3 2c d8 10 00       	mov    %eax,0x10d82c
  1016f2:	eb 36                	jmp    10172a <put+0x227>
  1016f4:	c7 05 28 d8 10 00 00 	movl   $0x0,0x10d828
  1016fb:	00 00 00 
  1016fe:	eb 2a                	jmp    10172a <put+0x227>
  101700:	8b 15 2c d8 10 00    	mov    0x10d82c,%edx
  101706:	a1 28 d8 10 00       	mov    0x10d828,%eax
  10170b:	8d 04 02             	lea    (%edx,%eax,1),%eax
  10170e:	d1 e0                	shl    %eax
  101710:	89 c2                	mov    %eax,%edx
  101712:	03 55 fc             	add    -0x4(%ebp),%edx
  101715:	0f b6 45 ec          	movzbl -0x14(%ebp),%eax
  101719:	80 cc 07             	or     $0x7,%ah
  10171c:	66 89 02             	mov    %ax,(%edx)
  10171f:	a1 28 d8 10 00       	mov    0x10d828,%eax
  101724:	40                   	inc    %eax
  101725:	a3 28 d8 10 00       	mov    %eax,0x10d828
  10172a:	c9                   	leave  
  10172b:	c3                   	ret    

0010172c <clear_screen>:
  10172c:	55                   	push   %ebp
  10172d:	89 e5                	mov    %esp,%ebp
  10172f:	83 ec 10             	sub    $0x10,%esp
  101732:	c7 45 f8 00 80 0b 00 	movl   $0xb8000,-0x8(%ebp)
  101739:	c7 45 fc 00 00 00 00 	movl   $0x0,-0x4(%ebp)
  101740:	eb 10                	jmp    101752 <clear_screen+0x26>
  101742:	8b 45 fc             	mov    -0x4(%ebp),%eax
  101745:	d1 e0                	shl    %eax
  101747:	03 45 f8             	add    -0x8(%ebp),%eax
  10174a:	66 c7 00 20 07       	movw   $0x720,(%eax)
  10174f:	ff 45 fc             	incl   -0x4(%ebp)
  101752:	81 7d fc cf 07 00 00 	cmpl   $0x7cf,-0x4(%ebp)
  101759:	7e e7                	jle    101742 <clear_screen+0x16>
  10175b:	c7 05 2c d8 10 00 00 	movl   $0x0,0x10d82c
  101762:	00 00 00 
  101765:	c7 05 28 d8 10 00 00 	movl   $0x0,0x10d828
  10176c:	00 00 00 
  10176f:	c9                   	leave  
  101770:	c3                   	ret    

00101771 <scroll_screen>:
  101771:	55                   	push   %ebp
  101772:	89 e5                	mov    %esp,%ebp
  101774:	83 ec 10             	sub    $0x10,%esp
  101777:	c7 45 f4 00 80 0b 00 	movl   $0xb8000,-0xc(%ebp)
  10177e:	c7 45 f8 a0 80 0b 00 	movl   $0xb80a0,-0x8(%ebp)
  101785:	c7 45 fc 00 00 00 00 	movl   $0x0,-0x4(%ebp)
  10178c:	eb 1b                	jmp    1017a9 <scroll_screen+0x38>
  10178e:	8b 45 fc             	mov    -0x4(%ebp),%eax
  101791:	d1 e0                	shl    %eax
  101793:	89 c2                	mov    %eax,%edx
  101795:	03 55 f4             	add    -0xc(%ebp),%edx
  101798:	8b 45 fc             	mov    -0x4(%ebp),%eax
  10179b:	d1 e0                	shl    %eax
  10179d:	03 45 f8             	add    -0x8(%ebp),%eax
  1017a0:	66 8b 00             	mov    (%eax),%ax
  1017a3:	66 89 02             	mov    %ax,(%edx)
  1017a6:	ff 45 fc             	incl   -0x4(%ebp)
  1017a9:	81 7d fc b6 07 00 00 	cmpl   $0x7b6,-0x4(%ebp)
  1017b0:	76 dc                	jbe    10178e <scroll_screen+0x1d>
  1017b2:	eb 10                	jmp    1017c4 <scroll_screen+0x53>
  1017b4:	8b 45 fc             	mov    -0x4(%ebp),%eax
  1017b7:	d1 e0                	shl    %eax
  1017b9:	03 45 f4             	add    -0xc(%ebp),%eax
  1017bc:	66 c7 00 20 07       	movw   $0x720,(%eax)
  1017c1:	ff 45 fc             	incl   -0x4(%ebp)
  1017c4:	81 7d fc cf 07 00 00 	cmpl   $0x7cf,-0x4(%ebp)
  1017cb:	76 e7                	jbe    1017b4 <scroll_screen+0x43>
  1017cd:	c9                   	leave  
  1017ce:	c3                   	ret    
	...

001017d0 <setupIdt>:
  1017d0:	55                   	push   %ebp
  1017d1:	89 e5                	mov    %esp,%ebp
  1017d3:	83 ec 10             	sub    $0x10,%esp
  1017d6:	b8 20 d0 10 00       	mov    $0x10d020,%eax
  1017db:	a3 22 d8 10 00       	mov    %eax,0x10d822
  1017e0:	66 c7 05 20 d8 10 00 	movw   $0x801,0x10d820
  1017e7:	01 08 
  1017e9:	c7 45 fc 00 00 00 00 	movl   $0x0,-0x4(%ebp)
  1017f0:	eb 1b                	jmp    10180d <setupIdt+0x3d>
  1017f2:	8b 45 fc             	mov    -0x4(%ebp),%eax
  1017f5:	66 c7 04 c5 22 d0 10 	movw   $0x8,0x10d022(,%eax,8)
  1017fc:	00 08 00 
  1017ff:	8b 45 fc             	mov    -0x4(%ebp),%eax
  101802:	c6 04 c5 24 d0 10 00 	movb   $0x0,0x10d024(,%eax,8)
  101809:	00 
  10180a:	ff 45 fc             	incl   -0x4(%ebp)
  10180d:	81 7d fc ff 00 00 00 	cmpl   $0xff,-0x4(%ebp)
  101814:	7e dc                	jle    1017f2 <setupIdt+0x22>
  101816:	b8 05 08 10 00       	mov    $0x100805,%eax
  10181b:	66 a3 20 d0 10 00    	mov    %ax,0x10d020
  101821:	b8 05 08 10 00       	mov    $0x100805,%eax
  101826:	c1 e8 10             	shr    $0x10,%eax
  101829:	66 a3 26 d0 10 00    	mov    %ax,0x10d026
  10182f:	c6 05 25 d0 10 00 8e 	movb   $0x8e,0x10d025
  101836:	b8 85 08 10 00       	mov    $0x100885,%eax
  10183b:	66 a3 28 d0 10 00    	mov    %ax,0x10d028
  101841:	b8 85 08 10 00       	mov    $0x100885,%eax
  101846:	c1 e8 10             	shr    $0x10,%eax
  101849:	66 a3 2e d0 10 00    	mov    %ax,0x10d02e
  10184f:	c6 05 2d d0 10 00 8e 	movb   $0x8e,0x10d02d
  101856:	b8 7c 09 10 00       	mov    $0x10097c,%eax
  10185b:	66 a3 30 d0 10 00    	mov    %ax,0x10d030
  101861:	b8 7c 09 10 00       	mov    $0x10097c,%eax
  101866:	c1 e8 10             	shr    $0x10,%eax
  101869:	66 a3 36 d0 10 00    	mov    %ax,0x10d036
  10186f:	c6 05 35 d0 10 00 8e 	movb   $0x8e,0x10d035
  101876:	b8 9b 09 10 00       	mov    $0x10099b,%eax
  10187b:	66 a3 38 d0 10 00    	mov    %ax,0x10d038
  101881:	b8 9b 09 10 00       	mov    $0x10099b,%eax
  101886:	c1 e8 10             	shr    $0x10,%eax
  101889:	66 a3 3e d0 10 00    	mov    %ax,0x10d03e
  10188f:	c6 05 3d d0 10 00 8e 	movb   $0x8e,0x10d03d
  101896:	b8 ef 09 10 00       	mov    $0x1009ef,%eax
  10189b:	66 a3 40 d0 10 00    	mov    %ax,0x10d040
  1018a1:	b8 ef 09 10 00       	mov    $0x1009ef,%eax
  1018a6:	c1 e8 10             	shr    $0x10,%eax
  1018a9:	66 a3 46 d0 10 00    	mov    %ax,0x10d046
  1018af:	c6 05 45 d0 10 00 8e 	movb   $0x8e,0x10d045
  1018b6:	b8 19 0a 10 00       	mov    $0x100a19,%eax
  1018bb:	66 a3 48 d0 10 00    	mov    %ax,0x10d048
  1018c1:	b8 19 0a 10 00       	mov    $0x100a19,%eax
  1018c6:	c1 e8 10             	shr    $0x10,%eax
  1018c9:	66 a3 4e d0 10 00    	mov    %ax,0x10d04e
  1018cf:	c6 05 4d d0 10 00 8e 	movb   $0x8e,0x10d04d
  1018d6:	b8 3c 0a 10 00       	mov    $0x100a3c,%eax
  1018db:	66 a3 50 d0 10 00    	mov    %ax,0x10d050
  1018e1:	b8 3c 0a 10 00       	mov    $0x100a3c,%eax
  1018e6:	c1 e8 10             	shr    $0x10,%eax
  1018e9:	66 a3 56 d0 10 00    	mov    %ax,0x10d056
  1018ef:	c6 05 55 d0 10 00 8e 	movb   $0x8e,0x10d055
  1018f6:	b8 82 0a 10 00       	mov    $0x100a82,%eax
  1018fb:	66 a3 58 d0 10 00    	mov    %ax,0x10d058
  101901:	b8 82 0a 10 00       	mov    $0x100a82,%eax
  101906:	c1 e8 10             	shr    $0x10,%eax
  101909:	66 a3 5e d0 10 00    	mov    %ax,0x10d05e
  10190f:	c6 05 5d d0 10 00 8e 	movb   $0x8e,0x10d05d
  101916:	b8 a5 0a 10 00       	mov    $0x100aa5,%eax
  10191b:	66 a3 60 d0 10 00    	mov    %ax,0x10d060
  101921:	b8 a5 0a 10 00       	mov    $0x100aa5,%eax
  101926:	c1 e8 10             	shr    $0x10,%eax
  101929:	66 a3 66 d0 10 00    	mov    %ax,0x10d066
  10192f:	c6 05 65 d0 10 00 8e 	movb   $0x8e,0x10d065
  101936:	b8 d5 0a 10 00       	mov    $0x100ad5,%eax
  10193b:	66 a3 68 d0 10 00    	mov    %ax,0x10d068
  101941:	b8 d5 0a 10 00       	mov    $0x100ad5,%eax
  101946:	c1 e8 10             	shr    $0x10,%eax
  101949:	66 a3 6e d0 10 00    	mov    %ax,0x10d06e
  10194f:	c6 05 6d d0 10 00 8e 	movb   $0x8e,0x10d06d
  101956:	b8 ff 0a 10 00       	mov    $0x100aff,%eax
  10195b:	66 a3 70 d0 10 00    	mov    %ax,0x10d070
  101961:	b8 ff 0a 10 00       	mov    $0x100aff,%eax
  101966:	c1 e8 10             	shr    $0x10,%eax
  101969:	66 a3 76 d0 10 00    	mov    %ax,0x10d076
  10196f:	c6 05 75 d0 10 00 8e 	movb   $0x8e,0x10d075
  101976:	b8 27 0b 10 00       	mov    $0x100b27,%eax
  10197b:	66 a3 78 d0 10 00    	mov    %ax,0x10d078
  101981:	b8 27 0b 10 00       	mov    $0x100b27,%eax
  101986:	c1 e8 10             	shr    $0x10,%eax
  101989:	66 a3 7e d0 10 00    	mov    %ax,0x10d07e
  10198f:	c6 05 7d d0 10 00 8e 	movb   $0x8e,0x10d07d
  101996:	b8 51 0b 10 00       	mov    $0x100b51,%eax
  10199b:	66 a3 80 d0 10 00    	mov    %ax,0x10d080
  1019a1:	b8 51 0b 10 00       	mov    $0x100b51,%eax
  1019a6:	c1 e8 10             	shr    $0x10,%eax
  1019a9:	66 a3 86 d0 10 00    	mov    %ax,0x10d086
  1019af:	c6 05 85 d0 10 00 8e 	movb   $0x8e,0x10d085
  1019b6:	b8 7e 0b 10 00       	mov    $0x100b7e,%eax
  1019bb:	66 a3 88 d0 10 00    	mov    %ax,0x10d088
  1019c1:	b8 7e 0b 10 00       	mov    $0x100b7e,%eax
  1019c6:	c1 e8 10             	shr    $0x10,%eax
  1019c9:	66 a3 8e d0 10 00    	mov    %ax,0x10d08e
  1019cf:	c6 05 8d d0 10 00 8e 	movb   $0x8e,0x10d08d
  1019d6:	b8 46 0c 10 00       	mov    $0x100c46,%eax
  1019db:	66 a3 90 d0 10 00    	mov    %ax,0x10d090
  1019e1:	b8 46 0c 10 00       	mov    $0x100c46,%eax
  1019e6:	c1 e8 10             	shr    $0x10,%eax
  1019e9:	66 a3 96 d0 10 00    	mov    %ax,0x10d096
  1019ef:	c6 05 95 d0 10 00 8e 	movb   $0x8e,0x10d095
  1019f6:	66 c7 05 98 d0 10 00 	movw   $0x0,0x10d098
  1019fd:	00 00 
  1019ff:	66 c7 05 9e d0 10 00 	movw   $0x0,0x10d09e
  101a06:	00 00 
  101a08:	c6 05 9d d0 10 00 0e 	movb   $0xe,0x10d09d
  101a0f:	b8 20 0d 10 00       	mov    $0x100d20,%eax
  101a14:	66 a3 a0 d0 10 00    	mov    %ax,0x10d0a0
  101a1a:	b8 20 0d 10 00       	mov    $0x100d20,%eax
  101a1f:	c1 e8 10             	shr    $0x10,%eax
  101a22:	66 a3 a6 d0 10 00    	mov    %ax,0x10d0a6
  101a28:	c6 05 a5 d0 10 00 8e 	movb   $0x8e,0x10d0a5
  101a2f:	b8 4e 0d 10 00       	mov    $0x100d4e,%eax
  101a34:	66 a3 a8 d0 10 00    	mov    %ax,0x10d0a8
  101a3a:	b8 4e 0d 10 00       	mov    $0x100d4e,%eax
  101a3f:	c1 e8 10             	shr    $0x10,%eax
  101a42:	66 a3 ae d0 10 00    	mov    %ax,0x10d0ae
  101a48:	c6 05 ad d0 10 00 8e 	movb   $0x8e,0x10d0ad
  101a4f:	b8 7a 0d 10 00       	mov    $0x100d7a,%eax
  101a54:	66 a3 b0 d0 10 00    	mov    %ax,0x10d0b0
  101a5a:	b8 7a 0d 10 00       	mov    $0x100d7a,%eax
  101a5f:	c1 e8 10             	shr    $0x10,%eax
  101a62:	66 a3 b6 d0 10 00    	mov    %ax,0x10d0b6
  101a68:	c6 05 b5 d0 10 00 8e 	movb   $0x8e,0x10d0b5
  101a6f:	b8 ac 0d 10 00       	mov    $0x100dac,%eax
  101a74:	66 a3 b8 d0 10 00    	mov    %ax,0x10d0b8
  101a7a:	b8 ac 0d 10 00       	mov    $0x100dac,%eax
  101a7f:	c1 e8 10             	shr    $0x10,%eax
  101a82:	66 a3 be d0 10 00    	mov    %ax,0x10d0be
  101a88:	c6 05 bd d0 10 00 8e 	movb   $0x8e,0x10d0bd
  101a8f:	c7 45 fc 14 00 00 00 	movl   $0x14,-0x4(%ebp)
  101a96:	eb 28                	jmp    101ac0 <setupIdt+0x2f0>
  101a98:	8b 45 fc             	mov    -0x4(%ebp),%eax
  101a9b:	66 c7 04 c5 20 d0 10 	movw   $0x0,0x10d020(,%eax,8)
  101aa2:	00 00 00 
  101aa5:	8b 45 fc             	mov    -0x4(%ebp),%eax
  101aa8:	66 c7 04 c5 26 d0 10 	movw   $0x0,0x10d026(,%eax,8)
  101aaf:	00 00 00 
  101ab2:	8b 45 fc             	mov    -0x4(%ebp),%eax
  101ab5:	c6 04 c5 25 d0 10 00 	movb   $0xe,0x10d025(,%eax,8)
  101abc:	0e 
  101abd:	ff 45 fc             	incl   -0x4(%ebp)
  101ac0:	83 7d fc 1f          	cmpl   $0x1f,-0x4(%ebp)
  101ac4:	7e d2                	jle    101a98 <setupIdt+0x2c8>
  101ac6:	b8 36 04 10 00       	mov    $0x100436,%eax
  101acb:	66 a3 20 d1 10 00    	mov    %ax,0x10d120
  101ad1:	b8 36 04 10 00       	mov    $0x100436,%eax
  101ad6:	c1 e8 10             	shr    $0x10,%eax
  101ad9:	66 a3 26 d1 10 00    	mov    %ax,0x10d126
  101adf:	c6 05 25 d1 10 00 8e 	movb   $0x8e,0x10d125
  101ae6:	b8 d0 05 10 00       	mov    $0x1005d0,%eax
  101aeb:	66 a3 28 d1 10 00    	mov    %ax,0x10d128
  101af1:	b8 d0 05 10 00       	mov    $0x1005d0,%eax
  101af6:	c1 e8 10             	shr    $0x10,%eax
  101af9:	66 a3 2e d1 10 00    	mov    %ax,0x10d12e
  101aff:	c6 05 2d d1 10 00 8e 	movb   $0x8e,0x10d12d
  101b06:	b8 04 06 10 00       	mov    $0x100604,%eax
  101b0b:	66 a3 30 d1 10 00    	mov    %ax,0x10d130
  101b11:	b8 04 06 10 00       	mov    $0x100604,%eax
  101b16:	c1 e8 10             	shr    $0x10,%eax
  101b19:	66 a3 36 d1 10 00    	mov    %ax,0x10d136
  101b1f:	c6 05 35 d1 10 00 8e 	movb   $0x8e,0x10d135
  101b26:	b8 1d 06 10 00       	mov    $0x10061d,%eax
  101b2b:	66 a3 38 d1 10 00    	mov    %ax,0x10d138
  101b31:	b8 1d 06 10 00       	mov    $0x10061d,%eax
  101b36:	c1 e8 10             	shr    $0x10,%eax
  101b39:	66 a3 3e d1 10 00    	mov    %ax,0x10d13e
  101b3f:	c6 05 3d d1 10 00 8e 	movb   $0x8e,0x10d13d
  101b46:	b8 36 06 10 00       	mov    $0x100636,%eax
  101b4b:	66 a3 40 d1 10 00    	mov    %ax,0x10d140
  101b51:	b8 36 06 10 00       	mov    $0x100636,%eax
  101b56:	c1 e8 10             	shr    $0x10,%eax
  101b59:	66 a3 46 d1 10 00    	mov    %ax,0x10d146
  101b5f:	c6 05 45 d1 10 00 8e 	movb   $0x8e,0x10d145
  101b66:	b8 4f 06 10 00       	mov    $0x10064f,%eax
  101b6b:	66 a3 48 d1 10 00    	mov    %ax,0x10d148
  101b71:	b8 4f 06 10 00       	mov    $0x10064f,%eax
  101b76:	c1 e8 10             	shr    $0x10,%eax
  101b79:	66 a3 4e d1 10 00    	mov    %ax,0x10d14e
  101b7f:	c6 05 4d d1 10 00 8e 	movb   $0x8e,0x10d14d
  101b86:	b8 da 06 10 00       	mov    $0x1006da,%eax
  101b8b:	66 a3 50 d1 10 00    	mov    %ax,0x10d150
  101b91:	b8 da 06 10 00       	mov    $0x1006da,%eax
  101b96:	c1 e8 10             	shr    $0x10,%eax
  101b99:	66 a3 56 d1 10 00    	mov    %ax,0x10d156
  101b9f:	c6 05 55 d1 10 00 8e 	movb   $0x8e,0x10d155
  101ba6:	b8 f0 06 10 00       	mov    $0x1006f0,%eax
  101bab:	66 a3 58 d1 10 00    	mov    %ax,0x10d158
  101bb1:	b8 f0 06 10 00       	mov    $0x1006f0,%eax
  101bb6:	c1 e8 10             	shr    $0x10,%eax
  101bb9:	66 a3 5e d1 10 00    	mov    %ax,0x10d15e
  101bbf:	c6 05 5d d1 10 00 8e 	movb   $0x8e,0x10d15d
  101bc6:	b8 09 07 10 00       	mov    $0x100709,%eax
  101bcb:	66 a3 60 d1 10 00    	mov    %ax,0x10d160
  101bd1:	b8 09 07 10 00       	mov    $0x100709,%eax
  101bd6:	c1 e8 10             	shr    $0x10,%eax
  101bd9:	66 a3 66 d1 10 00    	mov    %ax,0x10d166
  101bdf:	c6 05 65 d1 10 00 8e 	movb   $0x8e,0x10d165
  101be6:	b8 24 07 10 00       	mov    $0x100724,%eax
  101beb:	66 a3 68 d1 10 00    	mov    %ax,0x10d168
  101bf1:	b8 24 07 10 00       	mov    $0x100724,%eax
  101bf6:	c1 e8 10             	shr    $0x10,%eax
  101bf9:	66 a3 6e d1 10 00    	mov    %ax,0x10d16e
  101bff:	c6 05 6d d1 10 00 8e 	movb   $0x8e,0x10d16d
  101c06:	b8 40 07 10 00       	mov    $0x100740,%eax
  101c0b:	66 a3 70 d1 10 00    	mov    %ax,0x10d170
  101c11:	b8 40 07 10 00       	mov    $0x100740,%eax
  101c16:	c1 e8 10             	shr    $0x10,%eax
  101c19:	66 a3 76 d1 10 00    	mov    %ax,0x10d176
  101c1f:	c6 05 75 d1 10 00 8e 	movb   $0x8e,0x10d175
  101c26:	b8 5c 07 10 00       	mov    $0x10075c,%eax
  101c2b:	66 a3 78 d1 10 00    	mov    %ax,0x10d178
  101c31:	b8 5c 07 10 00       	mov    $0x10075c,%eax
  101c36:	c1 e8 10             	shr    $0x10,%eax
  101c39:	66 a3 7e d1 10 00    	mov    %ax,0x10d17e
  101c3f:	c6 05 7d d1 10 00 8e 	movb   $0x8e,0x10d17d
  101c46:	b8 78 07 10 00       	mov    $0x100778,%eax
  101c4b:	66 a3 80 d1 10 00    	mov    %ax,0x10d180
  101c51:	b8 78 07 10 00       	mov    $0x100778,%eax
  101c56:	c1 e8 10             	shr    $0x10,%eax
  101c59:	66 a3 86 d1 10 00    	mov    %ax,0x10d186
  101c5f:	c6 05 85 d1 10 00 8e 	movb   $0x8e,0x10d185
  101c66:	b8 94 07 10 00       	mov    $0x100794,%eax
  101c6b:	66 a3 88 d1 10 00    	mov    %ax,0x10d188
  101c71:	b8 94 07 10 00       	mov    $0x100794,%eax
  101c76:	c1 e8 10             	shr    $0x10,%eax
  101c79:	66 a3 8e d1 10 00    	mov    %ax,0x10d18e
  101c7f:	c6 05 8d d1 10 00 8e 	movb   $0x8e,0x10d18d
  101c86:	b8 b4 07 10 00       	mov    $0x1007b4,%eax
  101c8b:	66 a3 90 d1 10 00    	mov    %ax,0x10d190
  101c91:	b8 b4 07 10 00       	mov    $0x1007b4,%eax
  101c96:	c1 e8 10             	shr    $0x10,%eax
  101c99:	66 a3 96 d1 10 00    	mov    %ax,0x10d196
  101c9f:	c6 05 95 d1 10 00 8e 	movb   $0x8e,0x10d195
  101ca6:	b8 d6 07 10 00       	mov    $0x1007d6,%eax
  101cab:	66 a3 98 d1 10 00    	mov    %ax,0x10d198
  101cb1:	b8 d6 07 10 00       	mov    $0x1007d6,%eax
  101cb6:	c1 e8 10             	shr    $0x10,%eax
  101cb9:	66 a3 9e d1 10 00    	mov    %ax,0x10d19e
  101cbf:	c6 05 9d d1 10 00 8e 	movb   $0x8e,0x10d19d
  101cc6:	b8 39 05 10 00       	mov    $0x100539,%eax
  101ccb:	66 a3 a0 d1 10 00    	mov    %ax,0x10d1a0
  101cd1:	b8 39 05 10 00       	mov    $0x100539,%eax
  101cd6:	c1 e8 10             	shr    $0x10,%eax
  101cd9:	66 a3 a6 d1 10 00    	mov    %ax,0x10d1a6
  101cdf:	c6 05 a5 d1 10 00 8e 	movb   $0x8e,0x10d1a5
  101ce6:	c7 45 fc 31 00 00 00 	movl   $0x31,-0x4(%ebp)
  101ced:	eb 28                	jmp    101d17 <setupIdt+0x547>
  101cef:	8b 45 fc             	mov    -0x4(%ebp),%eax
  101cf2:	66 c7 04 c5 20 d0 10 	movw   $0x0,0x10d020(,%eax,8)
  101cf9:	00 00 00 
  101cfc:	8b 45 fc             	mov    -0x4(%ebp),%eax
  101cff:	66 c7 04 c5 26 d0 10 	movw   $0x0,0x10d026(,%eax,8)
  101d06:	00 00 00 
  101d09:	8b 45 fc             	mov    -0x4(%ebp),%eax
  101d0c:	c6 04 c5 25 d0 10 00 	movb   $0xe,0x10d025(,%eax,8)
  101d13:	0e 
  101d14:	ff 45 fc             	incl   -0x4(%ebp)
  101d17:	81 7d fc ff 00 00 00 	cmpl   $0xff,-0x4(%ebp)
  101d1e:	7e cf                	jle    101cef <setupIdt+0x51f>
  101d20:	b8 20 d8 10 00       	mov    $0x10d820,%eax
  101d25:	c9                   	leave  
  101d26:	c3                   	ret    
	...

00101d28 <pdtEntry>:
  101d28:	55                   	push   %ebp
  101d29:	89 e5                	mov    %esp,%ebp
  101d2b:	8b 45 08             	mov    0x8(%ebp),%eax
  101d2e:	c1 e0 02             	shl    $0x2,%eax
  101d31:	89 c2                	mov    %eax,%edx
  101d33:	a1 30 d8 10 00       	mov    0x10d830,%eax
  101d38:	01 c2                	add    %eax,%edx
  101d3a:	8b 45 0c             	mov    0xc(%ebp),%eax
  101d3d:	83 c0 03             	add    $0x3,%eax
  101d40:	89 02                	mov    %eax,(%edx)
  101d42:	c9                   	leave  
  101d43:	c3                   	ret    

00101d44 <tableEntry>:
  101d44:	55                   	push   %ebp
  101d45:	89 e5                	mov    %esp,%ebp
  101d47:	83 ec 10             	sub    $0x10,%esp
  101d4a:	8b 45 08             	mov    0x8(%ebp),%eax
  101d4d:	c1 e8 16             	shr    $0x16,%eax
  101d50:	c1 e0 02             	shl    $0x2,%eax
  101d53:	89 c2                	mov    %eax,%edx
  101d55:	a1 30 d8 10 00       	mov    0x10d830,%eax
  101d5a:	8d 04 02             	lea    (%edx,%eax,1),%eax
  101d5d:	8b 00                	mov    (%eax),%eax
  101d5f:	25 00 f0 ff ff       	and    $0xfffff000,%eax
  101d64:	89 45 fc             	mov    %eax,-0x4(%ebp)
  101d67:	8b 45 08             	mov    0x8(%ebp),%eax
  101d6a:	c1 e8 0c             	shr    $0xc,%eax
  101d6d:	25 ff 03 00 00       	and    $0x3ff,%eax
  101d72:	c1 e0 02             	shl    $0x2,%eax
  101d75:	89 c2                	mov    %eax,%edx
  101d77:	03 55 fc             	add    -0x4(%ebp),%edx
  101d7a:	8b 45 08             	mov    0x8(%ebp),%eax
  101d7d:	83 c0 03             	add    $0x3,%eax
  101d80:	89 02                	mov    %eax,(%edx)
  101d82:	c9                   	leave  
  101d83:	c3                   	ret    

00101d84 <printPDT>:
  101d84:	55                   	push   %ebp
  101d85:	89 e5                	mov    %esp,%ebp
  101d87:	83 ec 18             	sub    $0x18,%esp
  101d8a:	83 ec 0c             	sub    $0xc,%esp
  101d8d:	68 c8 84 10 00       	push   $0x1084c8
  101d92:	e8 89 f6 ff ff       	call   101420 <display>
  101d97:	83 c4 10             	add    $0x10,%esp
  101d9a:	e8 86 e7 ff ff       	call   100525 <WaitKey>
  101d9f:	e8 88 f9 ff ff       	call   10172c <clear_screen>
  101da4:	c7 45 fc 00 00 00 00 	movl   $0x0,-0x4(%ebp)
  101dab:	eb 49                	jmp    101df6 <printPDT+0x72>
  101dad:	8b 45 fc             	mov    -0x4(%ebp),%eax
  101db0:	89 45 f8             	mov    %eax,-0x8(%ebp)
  101db3:	eb 1a                	jmp    101dcf <printPDT+0x4b>
  101db5:	8b 45 f8             	mov    -0x8(%ebp),%eax
  101db8:	c1 e0 02             	shl    $0x2,%eax
  101dbb:	03 45 08             	add    0x8(%ebp),%eax
  101dbe:	8b 00                	mov    (%eax),%eax
  101dc0:	83 ec 0c             	sub    $0xc,%esp
  101dc3:	50                   	push   %eax
  101dc4:	e8 a7 f6 ff ff       	call   101470 <PrintNumber>
  101dc9:	83 c4 10             	add    $0x10,%esp
  101dcc:	ff 45 f8             	incl   -0x8(%ebp)
  101dcf:	8b 45 fc             	mov    -0x4(%ebp),%eax
  101dd2:	05 c8 00 00 00       	add    $0xc8,%eax
  101dd7:	3b 45 f8             	cmp    -0x8(%ebp),%eax
  101dda:	7e 09                	jle    101de5 <printPDT+0x61>
  101ddc:	81 7d f8 ff 03 00 00 	cmpl   $0x3ff,-0x8(%ebp)
  101de3:	7e d0                	jle    101db5 <printPDT+0x31>
  101de5:	e8 3b e7 ff ff       	call   100525 <WaitKey>
  101dea:	e8 3d f9 ff ff       	call   10172c <clear_screen>
  101def:	81 45 fc c8 00 00 00 	addl   $0xc8,-0x4(%ebp)
  101df6:	81 7d fc ff 03 00 00 	cmpl   $0x3ff,-0x4(%ebp)
  101dfd:	7e ae                	jle    101dad <printPDT+0x29>
  101dff:	c9                   	leave  
  101e00:	c3                   	ret    

00101e01 <getBit>:
  101e01:	55                   	push   %ebp
  101e02:	89 e5                	mov    %esp,%ebp
  101e04:	83 ec 10             	sub    $0x10,%esp
  101e07:	8b 45 08             	mov    0x8(%ebp),%eax
  101e0a:	c1 e8 05             	shr    $0x5,%eax
  101e0d:	c1 e0 02             	shl    $0x2,%eax
  101e10:	03 45 0c             	add    0xc(%ebp),%eax
  101e13:	8b 10                	mov    (%eax),%edx
  101e15:	8b 45 08             	mov    0x8(%ebp),%eax
  101e18:	89 c1                	mov    %eax,%ecx
  101e1a:	83 e1 1f             	and    $0x1f,%ecx
  101e1d:	b8 01 00 00 00       	mov    $0x1,%eax
  101e22:	d3 e0                	shl    %cl,%eax
  101e24:	21 d0                	and    %edx,%eax
  101e26:	89 45 fc             	mov    %eax,-0x4(%ebp)
  101e29:	8b 45 08             	mov    0x8(%ebp),%eax
  101e2c:	89 c1                	mov    %eax,%ecx
  101e2e:	83 e1 1f             	and    $0x1f,%ecx
  101e31:	d3 6d fc             	shrl   %cl,-0x4(%ebp)
  101e34:	8b 45 fc             	mov    -0x4(%ebp),%eax
  101e37:	c9                   	leave  
  101e38:	c3                   	ret    

00101e39 <getAddress>:
  101e39:	55                   	push   %ebp
  101e3a:	89 e5                	mov    %esp,%ebp
  101e3c:	8b 45 10             	mov    0x10(%ebp),%eax
  101e3f:	c1 e0 02             	shl    $0x2,%eax
  101e42:	03 45 08             	add    0x8(%ebp),%eax
  101e45:	ff 75 0c             	pushl  0xc(%ebp)
  101e48:	50                   	push   %eax
  101e49:	e8 b3 ff ff ff       	call   101e01 <getBit>
  101e4e:	83 c4 08             	add    $0x8,%esp
  101e51:	c9                   	leave  
  101e52:	c3                   	ret    

00101e53 <setBit>:
  101e53:	55                   	push   %ebp
  101e54:	89 e5                	mov    %esp,%ebp
  101e56:	53                   	push   %ebx
  101e57:	83 7d 0c 00          	cmpl   $0x0,0xc(%ebp)
  101e5b:	74 35                	je     101e92 <setBit+0x3f>
  101e5d:	8b 45 08             	mov    0x8(%ebp),%eax
  101e60:	89 c2                	mov    %eax,%edx
  101e62:	c1 ea 05             	shr    $0x5,%edx
  101e65:	8d 04 95 00 00 00 00 	lea    0x0(,%edx,4),%eax
  101e6c:	89 c3                	mov    %eax,%ebx
  101e6e:	03 5d 10             	add    0x10(%ebp),%ebx
  101e71:	8d 04 95 00 00 00 00 	lea    0x0(,%edx,4),%eax
  101e78:	03 45 10             	add    0x10(%ebp),%eax
  101e7b:	8b 10                	mov    (%eax),%edx
  101e7d:	8b 45 08             	mov    0x8(%ebp),%eax
  101e80:	89 c1                	mov    %eax,%ecx
  101e82:	83 e1 1f             	and    $0x1f,%ecx
  101e85:	b8 01 00 00 00       	mov    $0x1,%eax
  101e8a:	d3 e0                	shl    %cl,%eax
  101e8c:	09 d0                	or     %edx,%eax
  101e8e:	89 03                	mov    %eax,(%ebx)
  101e90:	eb 35                	jmp    101ec7 <setBit+0x74>
  101e92:	8b 45 08             	mov    0x8(%ebp),%eax
  101e95:	89 c2                	mov    %eax,%edx
  101e97:	c1 ea 05             	shr    $0x5,%edx
  101e9a:	8d 04 95 00 00 00 00 	lea    0x0(,%edx,4),%eax
  101ea1:	89 c3                	mov    %eax,%ebx
  101ea3:	03 5d 10             	add    0x10(%ebp),%ebx
  101ea6:	8d 04 95 00 00 00 00 	lea    0x0(,%edx,4),%eax
  101ead:	03 45 10             	add    0x10(%ebp),%eax
  101eb0:	8b 10                	mov    (%eax),%edx
  101eb2:	8b 45 08             	mov    0x8(%ebp),%eax
  101eb5:	89 c1                	mov    %eax,%ecx
  101eb7:	83 e1 1f             	and    $0x1f,%ecx
  101eba:	b8 01 00 00 00       	mov    $0x1,%eax
  101ebf:	d3 e0                	shl    %cl,%eax
  101ec1:	f7 d0                	not    %eax
  101ec3:	21 d0                	and    %edx,%eax
  101ec5:	89 03                	mov    %eax,(%ebx)
  101ec7:	5b                   	pop    %ebx
  101ec8:	c9                   	leave  
  101ec9:	c3                   	ret    

00101eca <setAddress>:
  101eca:	55                   	push   %ebp
  101ecb:	89 e5                	mov    %esp,%ebp
  101ecd:	8b 45 14             	mov    0x14(%ebp),%eax
  101ed0:	c1 e0 02             	shl    $0x2,%eax
  101ed3:	03 45 08             	add    0x8(%ebp),%eax
  101ed6:	ff 75 10             	pushl  0x10(%ebp)
  101ed9:	ff 75 0c             	pushl  0xc(%ebp)
  101edc:	50                   	push   %eax
  101edd:	e8 71 ff ff ff       	call   101e53 <setBit>
  101ee2:	83 c4 0c             	add    $0xc,%esp
  101ee5:	c9                   	leave  
  101ee6:	c3                   	ret    

00101ee7 <countPages>:
  101ee7:	55                   	push   %ebp
  101ee8:	89 e5                	mov    %esp,%ebp
  101eea:	83 ec 10             	sub    $0x10,%esp
  101eed:	c7 45 f8 00 00 00 00 	movl   $0x0,-0x8(%ebp)
  101ef4:	c7 45 fc 00 00 00 00 	movl   $0x0,-0x4(%ebp)
  101efb:	eb 31                	jmp    101f2e <countPages+0x47>
  101efd:	a1 34 d8 10 00       	mov    0x10d834,%eax
  101f02:	8d 14 85 00 00 00 00 	lea    0x0(,%eax,4),%edx
  101f09:	8b 0d 3c d8 10 00    	mov    0x10d83c,%ecx
  101f0f:	8b 45 fc             	mov    -0x4(%ebp),%eax
  101f12:	c1 e8 0c             	shr    $0xc,%eax
  101f15:	52                   	push   %edx
  101f16:	51                   	push   %ecx
  101f17:	50                   	push   %eax
  101f18:	e8 1c ff ff ff       	call   101e39 <getAddress>
  101f1d:	83 c4 0c             	add    $0xc,%esp
  101f20:	85 c0                	test   %eax,%eax
  101f22:	74 03                	je     101f27 <countPages+0x40>
  101f24:	ff 45 f8             	incl   -0x8(%ebp)
  101f27:	81 45 fc 00 10 00 00 	addl   $0x1000,-0x4(%ebp)
  101f2e:	a1 44 d8 10 00       	mov    0x10d844,%eax
  101f33:	39 45 fc             	cmp    %eax,-0x4(%ebp)
  101f36:	72 c5                	jb     101efd <countPages+0x16>
  101f38:	8b 45 f8             	mov    -0x8(%ebp),%eax
  101f3b:	c9                   	leave  
  101f3c:	c3                   	ret    

00101f3d <alloc_page>:
  101f3d:	55                   	push   %ebp
  101f3e:	89 e5                	mov    %esp,%ebp
  101f40:	53                   	push   %ebx
  101f41:	83 ec 14             	sub    $0x14,%esp
  101f44:	c7 45 f4 01 00 00 00 	movl   $0x1,-0xc(%ebp)
  101f4b:	eb 47                	jmp    101f94 <alloc_page+0x57>
  101f4d:	8b 45 f4             	mov    -0xc(%ebp),%eax
  101f50:	d1 e0                	shl    %eax
  101f52:	ff 75 0c             	pushl  0xc(%ebp)
  101f55:	50                   	push   %eax
  101f56:	e8 a6 fe ff ff       	call   101e01 <getBit>
  101f5b:	83 c4 08             	add    $0x8,%esp
  101f5e:	85 c0                	test   %eax,%eax
  101f60:	74 05                	je     101f67 <alloc_page+0x2a>
  101f62:	d1 65 f4             	shll   -0xc(%ebp)
  101f65:	eb 2d                	jmp    101f94 <alloc_page+0x57>
  101f67:	8b 45 f4             	mov    -0xc(%ebp),%eax
  101f6a:	d1 e0                	shl    %eax
  101f6c:	40                   	inc    %eax
  101f6d:	ff 75 0c             	pushl  0xc(%ebp)
  101f70:	50                   	push   %eax
  101f71:	e8 8b fe ff ff       	call   101e01 <getBit>
  101f76:	83 c4 08             	add    $0x8,%esp
  101f79:	85 c0                	test   %eax,%eax
  101f7b:	74 0b                	je     101f88 <alloc_page+0x4b>
  101f7d:	8b 45 f4             	mov    -0xc(%ebp),%eax
  101f80:	d1 e0                	shl    %eax
  101f82:	40                   	inc    %eax
  101f83:	89 45 f4             	mov    %eax,-0xc(%ebp)
  101f86:	eb 0c                	jmp    101f94 <alloc_page+0x57>
  101f88:	c7 45 e8 00 00 00 00 	movl   $0x0,-0x18(%ebp)
  101f8f:	e9 85 00 00 00       	jmp    102019 <alloc_page+0xdc>
  101f94:	8b 45 08             	mov    0x8(%ebp),%eax
  101f97:	c1 e0 02             	shl    $0x2,%eax
  101f9a:	3b 45 f4             	cmp    -0xc(%ebp),%eax
  101f9d:	77 ae                	ja     101f4d <alloc_page+0x10>
  101f9f:	ff 75 0c             	pushl  0xc(%ebp)
  101fa2:	6a 00                	push   $0x0
  101fa4:	ff 75 f4             	pushl  -0xc(%ebp)
  101fa7:	e8 a7 fe ff ff       	call   101e53 <setBit>
  101fac:	83 c4 0c             	add    $0xc,%esp
  101faf:	8b 45 f4             	mov    -0xc(%ebp),%eax
  101fb2:	d1 e8                	shr    %eax
  101fb4:	89 45 f8             	mov    %eax,-0x8(%ebp)
  101fb7:	eb 3e                	jmp    101ff7 <alloc_page+0xba>
  101fb9:	8b 45 f8             	mov    -0x8(%ebp),%eax
  101fbc:	d1 e0                	shl    %eax
  101fbe:	ff 75 0c             	pushl  0xc(%ebp)
  101fc1:	50                   	push   %eax
  101fc2:	e8 3a fe ff ff       	call   101e01 <getBit>
  101fc7:	83 c4 08             	add    $0x8,%esp
  101fca:	89 c3                	mov    %eax,%ebx
  101fcc:	8b 45 f8             	mov    -0x8(%ebp),%eax
  101fcf:	d1 e0                	shl    %eax
  101fd1:	40                   	inc    %eax
  101fd2:	ff 75 0c             	pushl  0xc(%ebp)
  101fd5:	50                   	push   %eax
  101fd6:	e8 26 fe ff ff       	call   101e01 <getBit>
  101fdb:	83 c4 08             	add    $0x8,%esp
  101fde:	09 d8                	or     %ebx,%eax
  101fe0:	ff 75 0c             	pushl  0xc(%ebp)
  101fe3:	50                   	push   %eax
  101fe4:	ff 75 f8             	pushl  -0x8(%ebp)
  101fe7:	e8 67 fe ff ff       	call   101e53 <setBit>
  101fec:	83 c4 0c             	add    $0xc,%esp
  101fef:	8b 45 f8             	mov    -0x8(%ebp),%eax
  101ff2:	d1 e8                	shr    %eax
  101ff4:	89 45 f8             	mov    %eax,-0x8(%ebp)
  101ff7:	83 7d f8 00          	cmpl   $0x0,-0x8(%ebp)
  101ffb:	75 bc                	jne    101fb9 <alloc_page+0x7c>
  101ffd:	8b 45 08             	mov    0x8(%ebp),%eax
  102000:	8d 14 85 00 00 00 00 	lea    0x0(,%eax,4),%edx
  102007:	8b 45 f4             	mov    -0xc(%ebp),%eax
  10200a:	29 d0                	sub    %edx,%eax
  10200c:	0f af 45 10          	imul   0x10(%ebp),%eax
  102010:	89 45 f4             	mov    %eax,-0xc(%ebp)
  102013:	8b 45 f4             	mov    -0xc(%ebp),%eax
  102016:	89 45 e8             	mov    %eax,-0x18(%ebp)
  102019:	8b 45 e8             	mov    -0x18(%ebp),%eax
  10201c:	8b 5d fc             	mov    -0x4(%ebp),%ebx
  10201f:	c9                   	leave  
  102020:	c3                   	ret    

00102021 <free_page>:
  102021:	55                   	push   %ebp
  102022:	89 e5                	mov    %esp,%ebp
  102024:	53                   	push   %ebx
  102025:	83 ec 18             	sub    $0x18,%esp
  102028:	8b 45 0c             	mov    0xc(%ebp),%eax
  10202b:	c1 e0 02             	shl    $0x2,%eax
  10202e:	89 45 e4             	mov    %eax,-0x1c(%ebp)
  102031:	8b 45 08             	mov    0x8(%ebp),%eax
  102034:	ba 00 00 00 00       	mov    $0x0,%edx
  102039:	f7 75 14             	divl   0x14(%ebp)
  10203c:	03 45 e4             	add    -0x1c(%ebp),%eax
  10203f:	89 45 f4             	mov    %eax,-0xc(%ebp)
  102042:	8b 45 08             	mov    0x8(%ebp),%eax
  102045:	ba 00 00 00 00       	mov    $0x0,%edx
  10204a:	f7 75 14             	divl   0x14(%ebp)
  10204d:	ff 75 0c             	pushl  0xc(%ebp)
  102050:	ff 75 10             	pushl  0x10(%ebp)
  102053:	6a 01                	push   $0x1
  102055:	50                   	push   %eax
  102056:	e8 6f fe ff ff       	call   101eca <setAddress>
  10205b:	83 c4 10             	add    $0x10,%esp
  10205e:	8b 45 f4             	mov    -0xc(%ebp),%eax
  102061:	d1 e8                	shr    %eax
  102063:	89 45 f8             	mov    %eax,-0x8(%ebp)
  102066:	eb 3e                	jmp    1020a6 <free_page+0x85>
  102068:	8b 45 f8             	mov    -0x8(%ebp),%eax
  10206b:	d1 e0                	shl    %eax
  10206d:	ff 75 10             	pushl  0x10(%ebp)
  102070:	50                   	push   %eax
  102071:	e8 8b fd ff ff       	call   101e01 <getBit>
  102076:	83 c4 08             	add    $0x8,%esp
  102079:	89 c3                	mov    %eax,%ebx
  10207b:	8b 45 f8             	mov    -0x8(%ebp),%eax
  10207e:	d1 e0                	shl    %eax
  102080:	40                   	inc    %eax
  102081:	ff 75 10             	pushl  0x10(%ebp)
  102084:	50                   	push   %eax
  102085:	e8 77 fd ff ff       	call   101e01 <getBit>
  10208a:	83 c4 08             	add    $0x8,%esp
  10208d:	09 d8                	or     %ebx,%eax
  10208f:	ff 75 10             	pushl  0x10(%ebp)
  102092:	50                   	push   %eax
  102093:	ff 75 f8             	pushl  -0x8(%ebp)
  102096:	e8 b8 fd ff ff       	call   101e53 <setBit>
  10209b:	83 c4 0c             	add    $0xc,%esp
  10209e:	8b 45 f8             	mov    -0x8(%ebp),%eax
  1020a1:	d1 e8                	shr    %eax
  1020a3:	89 45 f8             	mov    %eax,-0x8(%ebp)
  1020a6:	83 7d f8 00          	cmpl   $0x0,-0x8(%ebp)
  1020aa:	75 bc                	jne    102068 <free_page+0x47>
  1020ac:	8b 5d fc             	mov    -0x4(%ebp),%ebx
  1020af:	c9                   	leave  
  1020b0:	c3                   	ret    

001020b1 <pdt_ptd_range>:
  1020b1:	55                   	push   %ebp
  1020b2:	89 e5                	mov    %esp,%ebp
  1020b4:	83 ec 10             	sub    $0x10,%esp
  1020b7:	8b 45 08             	mov    0x8(%ebp),%eax
  1020ba:	c1 e8 16             	shr    $0x16,%eax
  1020bd:	89 45 fc             	mov    %eax,-0x4(%ebp)
  1020c0:	eb 3a                	jmp    1020fc <pdt_ptd_range+0x4b>
  1020c2:	8b 45 fc             	mov    -0x4(%ebp),%eax
  1020c5:	c1 e0 02             	shl    $0x2,%eax
  1020c8:	89 c2                	mov    %eax,%edx
  1020ca:	a1 30 d8 10 00       	mov    0x10d830,%eax
  1020cf:	8d 04 02             	lea    (%edx,%eax,1),%eax
  1020d2:	8b 00                	mov    (%eax),%eax
  1020d4:	85 c0                	test   %eax,%eax
  1020d6:	75 21                	jne    1020f9 <pdt_ptd_range+0x48>
  1020d8:	8b 45 10             	mov    0x10(%ebp),%eax
  1020db:	8b 00                	mov    (%eax),%eax
  1020dd:	50                   	push   %eax
  1020de:	ff 75 fc             	pushl  -0x4(%ebp)
  1020e1:	e8 42 fc ff ff       	call   101d28 <pdtEntry>
  1020e6:	83 c4 08             	add    $0x8,%esp
  1020e9:	8b 45 10             	mov    0x10(%ebp),%eax
  1020ec:	8b 00                	mov    (%eax),%eax
  1020ee:	8d 90 00 10 00 00    	lea    0x1000(%eax),%edx
  1020f4:	8b 45 10             	mov    0x10(%ebp),%eax
  1020f7:	89 10                	mov    %edx,(%eax)
  1020f9:	ff 45 fc             	incl   -0x4(%ebp)
  1020fc:	8b 45 0c             	mov    0xc(%ebp),%eax
  1020ff:	03 45 08             	add    0x8(%ebp),%eax
  102102:	48                   	dec    %eax
  102103:	c1 e8 16             	shr    $0x16,%eax
  102106:	3b 45 fc             	cmp    -0x4(%ebp),%eax
  102109:	73 b7                	jae    1020c2 <pdt_ptd_range+0x11>
  10210b:	8b 45 08             	mov    0x8(%ebp),%eax
  10210e:	25 00 f0 ff ff       	and    $0xfffff000,%eax
  102113:	89 45 fc             	mov    %eax,-0x4(%ebp)
  102116:	eb 1f                	jmp    102137 <pdt_ptd_range+0x86>
  102118:	8b 45 08             	mov    0x8(%ebp),%eax
  10211b:	25 00 f0 ff ff       	and    $0xfffff000,%eax
  102120:	3b 45 fc             	cmp    -0x4(%ebp),%eax
  102123:	77 1d                	ja     102142 <pdt_ptd_range+0x91>
  102125:	ff 75 fc             	pushl  -0x4(%ebp)
  102128:	e8 17 fc ff ff       	call   101d44 <tableEntry>
  10212d:	83 c4 04             	add    $0x4,%esp
  102130:	81 45 fc 00 10 00 00 	addl   $0x1000,-0x4(%ebp)
  102137:	8b 45 0c             	mov    0xc(%ebp),%eax
  10213a:	03 45 08             	add    0x8(%ebp),%eax
  10213d:	3b 45 fc             	cmp    -0x4(%ebp),%eax
  102140:	73 d6                	jae    102118 <pdt_ptd_range+0x67>
  102142:	83 7d 14 01          	cmpl   $0x1,0x14(%ebp)
  102146:	75 0c                	jne    102154 <pdt_ptd_range+0xa3>
  102148:	8b 45 0c             	mov    0xc(%ebp),%eax
  10214b:	03 45 08             	add    0x8(%ebp),%eax
  10214e:	48                   	dec    %eax
  10214f:	a3 44 d8 10 00       	mov    %eax,0x10d844
  102154:	c9                   	leave  
  102155:	c3                   	ret    

00102156 <alloc_bytes>:
  102156:	55                   	push   %ebp
  102157:	89 e5                	mov    %esp,%ebp
  102159:	53                   	push   %ebx
  10215a:	83 ec 34             	sub    $0x34,%esp
  10215d:	8b 15 c4 84 10 00    	mov    0x1084c4,%edx
  102163:	8b 45 08             	mov    0x8(%ebp),%eax
  102166:	89 d1                	mov    %edx,%ecx
  102168:	ba 00 00 00 00       	mov    $0x0,%edx
  10216d:	f7 f1                	div    %ecx
  10216f:	89 d0                	mov    %edx,%eax
  102171:	85 c0                	test   %eax,%eax
  102173:	75 08                	jne    10217d <alloc_bytes+0x27>
  102175:	8b 45 08             	mov    0x8(%ebp),%eax
  102178:	89 45 e8             	mov    %eax,-0x18(%ebp)
  10217b:	eb 26                	jmp    1021a3 <alloc_bytes+0x4d>
  10217d:	8b 0d c4 84 10 00    	mov    0x1084c4,%ecx
  102183:	8b 15 c4 84 10 00    	mov    0x1084c4,%edx
  102189:	8b 45 08             	mov    0x8(%ebp),%eax
  10218c:	89 d3                	mov    %edx,%ebx
  10218e:	ba 00 00 00 00       	mov    $0x0,%edx
  102193:	f7 f3                	div    %ebx
  102195:	89 d0                	mov    %edx,%eax
  102197:	89 ca                	mov    %ecx,%edx
  102199:	29 c2                	sub    %eax,%edx
  10219b:	89 d0                	mov    %edx,%eax
  10219d:	03 45 08             	add    0x8(%ebp),%eax
  1021a0:	89 45 e8             	mov    %eax,-0x18(%ebp)
  1021a3:	c7 45 ec 00 00 00 00 	movl   $0x0,-0x14(%ebp)
  1021aa:	c7 45 f0 ff ff ff ff 	movl   $0xffffffff,-0x10(%ebp)
  1021b1:	a1 48 d8 10 00       	mov    0x10d848,%eax
  1021b6:	89 45 f4             	mov    %eax,-0xc(%ebp)
  1021b9:	eb 5e                	jmp    102219 <alloc_bytes+0xc3>
  1021bb:	8b 45 f4             	mov    -0xc(%ebp),%eax
  1021be:	8b 00                	mov    (%eax),%eax
  1021c0:	85 c0                	test   %eax,%eax
  1021c2:	78 29                	js     1021ed <alloc_bytes+0x97>
  1021c4:	8b 45 f4             	mov    -0xc(%ebp),%eax
  1021c7:	8b 10                	mov    (%eax),%edx
  1021c9:	a1 c4 84 10 00       	mov    0x1084c4,%eax
  1021ce:	03 45 e8             	add    -0x18(%ebp),%eax
  1021d1:	39 c2                	cmp    %eax,%edx
  1021d3:	72 18                	jb     1021ed <alloc_bytes+0x97>
  1021d5:	8b 45 f4             	mov    -0xc(%ebp),%eax
  1021d8:	8b 00                	mov    (%eax),%eax
  1021da:	3b 45 f0             	cmp    -0x10(%ebp),%eax
  1021dd:	77 0e                	ja     1021ed <alloc_bytes+0x97>
  1021df:	8b 45 f4             	mov    -0xc(%ebp),%eax
  1021e2:	8b 00                	mov    (%eax),%eax
  1021e4:	89 45 f0             	mov    %eax,-0x10(%ebp)
  1021e7:	8b 45 f4             	mov    -0xc(%ebp),%eax
  1021ea:	89 45 ec             	mov    %eax,-0x14(%ebp)
  1021ed:	8b 45 f4             	mov    -0xc(%ebp),%eax
  1021f0:	8b 00                	mov    (%eax),%eax
  1021f2:	89 c2                	mov    %eax,%edx
  1021f4:	81 e2 ff ff ff 7f    	and    $0x7fffffff,%edx
  1021fa:	8b 0d c4 84 10 00    	mov    0x1084c4,%ecx
  102200:	89 4d d4             	mov    %ecx,-0x2c(%ebp)
  102203:	89 d0                	mov    %edx,%eax
  102205:	ba 00 00 00 00       	mov    $0x0,%edx
  10220a:	f7 75 d4             	divl   -0x2c(%ebp)
  10220d:	89 45 d4             	mov    %eax,-0x2c(%ebp)
  102210:	8b 45 d4             	mov    -0x2c(%ebp),%eax
  102213:	c1 e0 02             	shl    $0x2,%eax
  102216:	01 45 f4             	add    %eax,-0xc(%ebp)
  102219:	8b 45 f4             	mov    -0xc(%ebp),%eax
  10221c:	8b 00                	mov    (%eax),%eax
  10221e:	85 c0                	test   %eax,%eax
  102220:	75 99                	jne    1021bb <alloc_bytes+0x65>
  102222:	83 45 f4 04          	addl   $0x4,-0xc(%ebp)
  102226:	8b 45 f4             	mov    -0xc(%ebp),%eax
  102229:	89 45 f8             	mov    %eax,-0x8(%ebp)
  10222c:	8b 45 f4             	mov    -0xc(%ebp),%eax
  10222f:	8b 00                	mov    (%eax),%eax
  102231:	89 45 f4             	mov    %eax,-0xc(%ebp)
  102234:	83 7d f4 00          	cmpl   $0x0,-0xc(%ebp)
  102238:	75 df                	jne    102219 <alloc_bytes+0xc3>
  10223a:	83 7d ec 00          	cmpl   $0x0,-0x14(%ebp)
  10223e:	0f 85 d9 00 00 00    	jne    10231d <alloc_bytes+0x1c7>
  102244:	83 ec 0c             	sub    $0xc,%esp
  102247:	68 00 10 00 00       	push   $0x1000
  10224c:	e8 3c 01 00 00       	call   10238d <malloc>
  102251:	83 c4 10             	add    $0x10,%esp
  102254:	89 c2                	mov    %eax,%edx
  102256:	8b 45 f8             	mov    -0x8(%ebp),%eax
  102259:	89 10                	mov    %edx,(%eax)
  10225b:	8b 45 f8             	mov    -0x8(%ebp),%eax
  10225e:	8b 00                	mov    (%eax),%eax
  102260:	89 45 f8             	mov    %eax,-0x8(%ebp)
  102263:	83 7d f8 00          	cmpl   $0x0,-0x8(%ebp)
  102267:	75 0c                	jne    102275 <alloc_bytes+0x11f>
  102269:	c7 45 d8 00 00 00 00 	movl   $0x0,-0x28(%ebp)
  102270:	e9 10 01 00 00       	jmp    102385 <alloc_bytes+0x22f>
  102275:	a1 c4 84 10 00       	mov    0x1084c4,%eax
  10227a:	03 45 e8             	add    -0x18(%ebp),%eax
  10227d:	8d 90 00 00 00 80    	lea    -0x80000000(%eax),%edx
  102283:	8b 45 f8             	mov    -0x8(%ebp),%eax
  102286:	89 10                	mov    %edx,(%eax)
  102288:	a1 c4 84 10 00       	mov    0x1084c4,%eax
  10228d:	89 c2                	mov    %eax,%edx
  10228f:	03 55 e8             	add    -0x18(%ebp),%edx
  102292:	8b 45 f8             	mov    -0x8(%ebp),%eax
  102295:	8d 04 02             	lea    (%edx,%eax,1),%eax
  102298:	89 45 f4             	mov    %eax,-0xc(%ebp)
  10229b:	a1 c4 84 10 00       	mov    0x1084c4,%eax
  1022a0:	d1 e0                	shl    %eax
  1022a2:	f7 d8                	neg    %eax
  1022a4:	89 c2                	mov    %eax,%edx
  1022a6:	2b 55 e8             	sub    -0x18(%ebp),%edx
  1022a9:	a1 c4 84 10 00       	mov    0x1084c4,%eax
  1022ae:	89 d1                	mov    %edx,%ecx
  1022b0:	29 c1                	sub    %eax,%ecx
  1022b2:	89 c8                	mov    %ecx,%eax
  1022b4:	8d 90 00 10 00 00    	lea    0x1000(%eax),%edx
  1022ba:	8b 45 f4             	mov    -0xc(%ebp),%eax
  1022bd:	89 10                	mov    %edx,(%eax)
  1022bf:	8b 4d f8             	mov    -0x8(%ebp),%ecx
  1022c2:	83 e9 08             	sub    $0x8,%ecx
  1022c5:	8b 15 c4 84 10 00    	mov    0x1084c4,%edx
  1022cb:	b8 00 10 00 00       	mov    $0x1000,%eax
  1022d0:	89 d3                	mov    %edx,%ebx
  1022d2:	ba 00 00 00 00       	mov    $0x0,%edx
  1022d7:	f7 f3                	div    %ebx
  1022d9:	c1 e0 02             	shl    $0x2,%eax
  1022dc:	8d 04 01             	lea    (%ecx,%eax,1),%eax
  1022df:	c7 00 00 00 00 00    	movl   $0x0,(%eax)
  1022e5:	8b 4d f8             	mov    -0x8(%ebp),%ecx
  1022e8:	83 e9 04             	sub    $0x4,%ecx
  1022eb:	8b 15 c4 84 10 00    	mov    0x1084c4,%edx
  1022f1:	b8 00 10 00 00       	mov    $0x1000,%eax
  1022f6:	89 d3                	mov    %edx,%ebx
  1022f8:	ba 00 00 00 00       	mov    $0x0,%edx
  1022fd:	f7 f3                	div    %ebx
  1022ff:	c1 e0 02             	shl    $0x2,%eax
  102302:	8d 04 01             	lea    (%ecx,%eax,1),%eax
  102305:	c7 00 00 00 00 00    	movl   $0x0,(%eax)
  10230b:	a1 c4 84 10 00       	mov    0x1084c4,%eax
  102310:	c1 e0 02             	shl    $0x2,%eax
  102313:	8b 55 f8             	mov    -0x8(%ebp),%edx
  102316:	01 c2                	add    %eax,%edx
  102318:	89 55 d8             	mov    %edx,-0x28(%ebp)
  10231b:	eb 68                	jmp    102385 <alloc_bytes+0x22f>
  10231d:	8b 15 c4 84 10 00    	mov    0x1084c4,%edx
  102323:	89 d0                	mov    %edx,%eax
  102325:	d1 e0                	shl    %eax
  102327:	01 d0                	add    %edx,%eax
  102329:	03 45 e8             	add    -0x18(%ebp),%eax
  10232c:	3b 45 f0             	cmp    -0x10(%ebp),%eax
  10232f:	72 11                	jb     102342 <alloc_bytes+0x1ec>
  102331:	8b 55 ec             	mov    -0x14(%ebp),%edx
  102334:	8b 45 ec             	mov    -0x14(%ebp),%eax
  102337:	8b 00                	mov    (%eax),%eax
  102339:	2d 00 00 00 80       	sub    $0x80000000,%eax
  10233e:	89 02                	mov    %eax,(%edx)
  102340:	eb 38                	jmp    10237a <alloc_bytes+0x224>
  102342:	a1 c4 84 10 00       	mov    0x1084c4,%eax
  102347:	03 45 e8             	add    -0x18(%ebp),%eax
  10234a:	03 45 ec             	add    -0x14(%ebp),%eax
  10234d:	89 45 f4             	mov    %eax,-0xc(%ebp)
  102350:	8b 55 e8             	mov    -0x18(%ebp),%edx
  102353:	8b 45 f0             	mov    -0x10(%ebp),%eax
  102356:	89 c1                	mov    %eax,%ecx
  102358:	29 d1                	sub    %edx,%ecx
  10235a:	89 ca                	mov    %ecx,%edx
  10235c:	a1 c4 84 10 00       	mov    0x1084c4,%eax
  102361:	29 c2                	sub    %eax,%edx
  102363:	8b 45 f4             	mov    -0xc(%ebp),%eax
  102366:	89 10                	mov    %edx,(%eax)
  102368:	8b 55 ec             	mov    -0x14(%ebp),%edx
  10236b:	a1 c4 84 10 00       	mov    0x1084c4,%eax
  102370:	03 45 e8             	add    -0x18(%ebp),%eax
  102373:	2d 00 00 00 80       	sub    $0x80000000,%eax
  102378:	89 02                	mov    %eax,(%edx)
  10237a:	a1 c4 84 10 00       	mov    0x1084c4,%eax
  10237f:	03 45 ec             	add    -0x14(%ebp),%eax
  102382:	89 45 d8             	mov    %eax,-0x28(%ebp)
  102385:	8b 45 d8             	mov    -0x28(%ebp),%eax
  102388:	8b 5d fc             	mov    -0x4(%ebp),%ebx
  10238b:	c9                   	leave  
  10238c:	c3                   	ret    

0010238d <malloc>:
  10238d:	55                   	push   %ebp
  10238e:	89 e5                	mov    %esp,%ebp
  102390:	56                   	push   %esi
  102391:	53                   	push   %ebx
  102392:	83 ec 40             	sub    $0x40,%esp
  102395:	c7 45 d0 00 00 00 00 	movl   $0x0,-0x30(%ebp)
  10239c:	c7 45 ec 00 00 00 00 	movl   $0x0,-0x14(%ebp)
  1023a3:	c7 45 f0 ff ff ff ff 	movl   $0xffffffff,-0x10(%ebp)
  1023aa:	81 7d 08 00 10 00 00 	cmpl   $0x1000,0x8(%ebp)
  1023b1:	75 43                	jne    1023f6 <malloc+0x69>
  1023b3:	8b 15 3c d8 10 00    	mov    0x10d83c,%edx
  1023b9:	a1 34 d8 10 00       	mov    0x10d834,%eax
  1023be:	c1 e0 02             	shl    $0x2,%eax
  1023c1:	68 00 10 00 00       	push   $0x1000
  1023c6:	52                   	push   %edx
  1023c7:	50                   	push   %eax
  1023c8:	e8 70 fb ff ff       	call   101f3d <alloc_page>
  1023cd:	83 c4 0c             	add    $0xc,%esp
  1023d0:	89 45 d0             	mov    %eax,-0x30(%ebp)
  1023d3:	8b 15 40 d8 10 00    	mov    0x10d840,%edx
  1023d9:	8b 45 d0             	mov    -0x30(%ebp),%eax
  1023dc:	c1 e8 0c             	shr    $0xc,%eax
  1023df:	52                   	push   %edx
  1023e0:	6a 01                	push   $0x1
  1023e2:	50                   	push   %eax
  1023e3:	e8 6b fa ff ff       	call   101e53 <setBit>
  1023e8:	83 c4 0c             	add    $0xc,%esp
  1023eb:	8b 45 d0             	mov    -0x30(%ebp),%eax
  1023ee:	89 45 c4             	mov    %eax,-0x3c(%ebp)
  1023f1:	e9 19 02 00 00       	jmp    10260f <malloc+0x282>
  1023f6:	81 7d 08 ff 0f 00 00 	cmpl   $0xfff,0x8(%ebp)
  1023fd:	77 16                	ja     102415 <malloc+0x88>
  1023ff:	83 ec 0c             	sub    $0xc,%esp
  102402:	ff 75 08             	pushl  0x8(%ebp)
  102405:	e8 4c fd ff ff       	call   102156 <alloc_bytes>
  10240a:	83 c4 10             	add    $0x10,%esp
  10240d:	89 45 c4             	mov    %eax,-0x3c(%ebp)
  102410:	e9 fa 01 00 00       	jmp    10260f <malloc+0x282>
  102415:	8b 45 08             	mov    0x8(%ebp),%eax
  102418:	25 ff 0f 00 00       	and    $0xfff,%eax
  10241d:	85 c0                	test   %eax,%eax
  10241f:	75 08                	jne    102429 <malloc+0x9c>
  102421:	8b 45 08             	mov    0x8(%ebp),%eax
  102424:	89 45 d4             	mov    %eax,-0x2c(%ebp)
  102427:	eb 10                	jmp    102439 <malloc+0xac>
  102429:	8b 45 08             	mov    0x8(%ebp),%eax
  10242c:	25 00 f0 ff ff       	and    $0xfffff000,%eax
  102431:	05 00 10 00 00       	add    $0x1000,%eax
  102436:	89 45 d4             	mov    %eax,-0x2c(%ebp)
  102439:	8b 45 d4             	mov    -0x2c(%ebp),%eax
  10243c:	c1 e8 0c             	shr    $0xc,%eax
  10243f:	89 45 d4             	mov    %eax,-0x2c(%ebp)
  102442:	8b 45 d8             	mov    -0x28(%ebp),%eax
  102445:	89 45 dc             	mov    %eax,-0x24(%ebp)
  102448:	c7 45 e0 00 00 00 00 	movl   $0x0,-0x20(%ebp)
  10244f:	c7 45 d8 00 00 00 00 	movl   $0x0,-0x28(%ebp)
  102456:	eb 6a                	jmp    1024c2 <malloc+0x135>
  102458:	a1 34 d8 10 00       	mov    0x10d834,%eax
  10245d:	8d 14 85 00 00 00 00 	lea    0x0(,%eax,4),%edx
  102464:	8b 0d 3c d8 10 00    	mov    0x10d83c,%ecx
  10246a:	8b 45 d8             	mov    -0x28(%ebp),%eax
  10246d:	c1 e8 0c             	shr    $0xc,%eax
  102470:	52                   	push   %edx
  102471:	51                   	push   %ecx
  102472:	50                   	push   %eax
  102473:	e8 c1 f9 ff ff       	call   101e39 <getAddress>
  102478:	83 c4 0c             	add    $0xc,%esp
  10247b:	83 f8 01             	cmp    $0x1,%eax
  10247e:	75 05                	jne    102485 <malloc+0xf8>
  102480:	ff 45 e0             	incl   -0x20(%ebp)
  102483:	eb 36                	jmp    1024bb <malloc+0x12e>
  102485:	8b 45 e0             	mov    -0x20(%ebp),%eax
  102488:	3b 45 f0             	cmp    -0x10(%ebp),%eax
  10248b:	73 1c                	jae    1024a9 <malloc+0x11c>
  10248d:	8b 45 e0             	mov    -0x20(%ebp),%eax
  102490:	3b 45 d4             	cmp    -0x2c(%ebp),%eax
  102493:	76 14                	jbe    1024a9 <malloc+0x11c>
  102495:	8b 45 e0             	mov    -0x20(%ebp),%eax
  102498:	89 45 f0             	mov    %eax,-0x10(%ebp)
  10249b:	8b 45 dc             	mov    -0x24(%ebp),%eax
  10249e:	89 45 ec             	mov    %eax,-0x14(%ebp)
  1024a1:	8b 45 e0             	mov    -0x20(%ebp),%eax
  1024a4:	3b 45 d4             	cmp    -0x2c(%ebp),%eax
  1024a7:	74 23                	je     1024cc <malloc+0x13f>
  1024a9:	c7 45 e0 00 00 00 00 	movl   $0x0,-0x20(%ebp)
  1024b0:	8b 45 d8             	mov    -0x28(%ebp),%eax
  1024b3:	05 00 10 00 00       	add    $0x1000,%eax
  1024b8:	89 45 dc             	mov    %eax,-0x24(%ebp)
  1024bb:	81 45 d8 00 10 00 00 	addl   $0x1000,-0x28(%ebp)
  1024c2:	a1 44 d8 10 00       	mov    0x10d844,%eax
  1024c7:	39 45 d8             	cmp    %eax,-0x28(%ebp)
  1024ca:	72 8c                	jb     102458 <malloc+0xcb>
  1024cc:	83 7d f0 ff          	cmpl   $0xffffffff,-0x10(%ebp)
  1024d0:	75 0c                	jne    1024de <malloc+0x151>
  1024d2:	c7 45 c4 00 00 00 00 	movl   $0x0,-0x3c(%ebp)
  1024d9:	e9 31 01 00 00       	jmp    10260f <malloc+0x282>
  1024de:	8b 45 ec             	mov    -0x14(%ebp),%eax
  1024e1:	89 45 d8             	mov    %eax,-0x28(%ebp)
  1024e4:	eb 2c                	jmp    102512 <malloc+0x185>
  1024e6:	a1 34 d8 10 00       	mov    0x10d834,%eax
  1024eb:	8d 14 85 00 00 00 00 	lea    0x0(,%eax,4),%edx
  1024f2:	8b 0d 30 d8 10 00    	mov    0x10d830,%ecx
  1024f8:	8b 45 d8             	mov    -0x28(%ebp),%eax
  1024fb:	c1 e8 0c             	shr    $0xc,%eax
  1024fe:	52                   	push   %edx
  1024ff:	51                   	push   %ecx
  102500:	6a 00                	push   $0x0
  102502:	50                   	push   %eax
  102503:	e8 c2 f9 ff ff       	call   101eca <setAddress>
  102508:	83 c4 10             	add    $0x10,%esp
  10250b:	81 45 d8 00 10 00 00 	addl   $0x1000,-0x28(%ebp)
  102512:	8b 45 d4             	mov    -0x2c(%ebp),%eax
  102515:	c1 e0 0c             	shl    $0xc,%eax
  102518:	03 45 ec             	add    -0x14(%ebp),%eax
  10251b:	48                   	dec    %eax
  10251c:	3b 45 d8             	cmp    -0x28(%ebp),%eax
  10251f:	77 c5                	ja     1024e6 <malloc+0x159>
  102521:	a1 34 d8 10 00       	mov    0x10d834,%eax
  102526:	c1 e0 03             	shl    $0x3,%eax
  102529:	89 45 e4             	mov    %eax,-0x1c(%ebp)
  10252c:	eb 5f                	jmp    10258d <malloc+0x200>
  10252e:	8b 45 e4             	mov    -0x1c(%ebp),%eax
  102531:	89 45 e8             	mov    %eax,-0x18(%ebp)
  102534:	eb 45                	jmp    10257b <malloc+0x1ee>
  102536:	8b 35 3c d8 10 00    	mov    0x10d83c,%esi
  10253c:	8b 15 3c d8 10 00    	mov    0x10d83c,%edx
  102542:	8b 45 e8             	mov    -0x18(%ebp),%eax
  102545:	d1 e0                	shl    %eax
  102547:	52                   	push   %edx
  102548:	50                   	push   %eax
  102549:	e8 b3 f8 ff ff       	call   101e01 <getBit>
  10254e:	83 c4 08             	add    $0x8,%esp
  102551:	89 c3                	mov    %eax,%ebx
  102553:	8b 15 3c d8 10 00    	mov    0x10d83c,%edx
  102559:	8b 45 e8             	mov    -0x18(%ebp),%eax
  10255c:	d1 e0                	shl    %eax
  10255e:	40                   	inc    %eax
  10255f:	52                   	push   %edx
  102560:	50                   	push   %eax
  102561:	e8 9b f8 ff ff       	call   101e01 <getBit>
  102566:	83 c4 08             	add    $0x8,%esp
  102569:	09 d8                	or     %ebx,%eax
  10256b:	56                   	push   %esi
  10256c:	50                   	push   %eax
  10256d:	ff 75 e8             	pushl  -0x18(%ebp)
  102570:	e8 de f8 ff ff       	call   101e53 <setBit>
  102575:	83 c4 0c             	add    $0xc,%esp
  102578:	ff 45 e8             	incl   -0x18(%ebp)
  10257b:	8b 45 e4             	mov    -0x1c(%ebp),%eax
  10257e:	d1 e0                	shl    %eax
  102580:	3b 45 e8             	cmp    -0x18(%ebp),%eax
  102583:	77 b1                	ja     102536 <malloc+0x1a9>
  102585:	8b 45 e4             	mov    -0x1c(%ebp),%eax
  102588:	d1 e8                	shr    %eax
  10258a:	89 45 e4             	mov    %eax,-0x1c(%ebp)
  10258d:	83 7d e4 00          	cmpl   $0x0,-0x1c(%ebp)
  102591:	75 9b                	jne    10252e <malloc+0x1a1>
  102593:	a1 38 d8 10 00       	mov    0x10d838,%eax
  102598:	89 45 f4             	mov    %eax,-0xc(%ebp)
  10259b:	eb 09                	jmp    1025a6 <malloc+0x219>
  10259d:	8b 45 f4             	mov    -0xc(%ebp),%eax
  1025a0:	8b 40 0c             	mov    0xc(%eax),%eax
  1025a3:	89 45 f4             	mov    %eax,-0xc(%ebp)
  1025a6:	8b 45 f4             	mov    -0xc(%ebp),%eax
  1025a9:	8b 40 0c             	mov    0xc(%eax),%eax
  1025ac:	85 c0                	test   %eax,%eax
  1025ae:	75 ed                	jne    10259d <malloc+0x210>
  1025b0:	8b 55 f4             	mov    -0xc(%ebp),%edx
  1025b3:	8b 45 ec             	mov    -0x14(%ebp),%eax
  1025b6:	89 42 04             	mov    %eax,0x4(%edx)
  1025b9:	8b 55 f4             	mov    -0xc(%ebp),%edx
  1025bc:	8b 45 d4             	mov    -0x2c(%ebp),%eax
  1025bf:	89 42 08             	mov    %eax,0x8(%edx)
  1025c2:	83 ec 0c             	sub    $0xc,%esp
  1025c5:	6a 10                	push   $0x10
  1025c7:	e8 c1 fd ff ff       	call   10238d <malloc>
  1025cc:	83 c4 10             	add    $0x10,%esp
  1025cf:	89 c2                	mov    %eax,%edx
  1025d1:	8b 45 f4             	mov    -0xc(%ebp),%eax
  1025d4:	89 50 0c             	mov    %edx,0xc(%eax)
  1025d7:	8b 45 f4             	mov    -0xc(%ebp),%eax
  1025da:	8b 50 0c             	mov    0xc(%eax),%edx
  1025dd:	8b 45 f4             	mov    -0xc(%ebp),%eax
  1025e0:	89 02                	mov    %eax,(%edx)
  1025e2:	8b 45 f4             	mov    -0xc(%ebp),%eax
  1025e5:	8b 40 0c             	mov    0xc(%eax),%eax
  1025e8:	89 45 f4             	mov    %eax,-0xc(%ebp)
  1025eb:	8b 45 f4             	mov    -0xc(%ebp),%eax
  1025ee:	c7 40 04 00 00 00 00 	movl   $0x0,0x4(%eax)
  1025f5:	8b 45 f4             	mov    -0xc(%ebp),%eax
  1025f8:	c7 40 08 00 00 00 00 	movl   $0x0,0x8(%eax)
  1025ff:	8b 45 f4             	mov    -0xc(%ebp),%eax
  102602:	c7 40 0c 00 00 00 00 	movl   $0x0,0xc(%eax)
  102609:	8b 45 ec             	mov    -0x14(%ebp),%eax
  10260c:	89 45 c4             	mov    %eax,-0x3c(%ebp)
  10260f:	8b 45 c4             	mov    -0x3c(%ebp),%eax
  102612:	8d 65 f8             	lea    -0x8(%ebp),%esp
  102615:	5b                   	pop    %ebx
  102616:	5e                   	pop    %esi
  102617:	c9                   	leave  
  102618:	c3                   	ret    

00102619 <free>:
  102619:	55                   	push   %ebp
  10261a:	89 e5                	mov    %esp,%ebp
  10261c:	56                   	push   %esi
  10261d:	53                   	push   %ebx
  10261e:	83 ec 10             	sub    $0x10,%esp
  102621:	83 7d 08 00          	cmpl   $0x0,0x8(%ebp)
  102625:	0f 84 b9 01 00 00    	je     1027e4 <free+0x1cb>
  10262b:	a1 48 d8 10 00       	mov    0x10d848,%eax
  102630:	89 45 f0             	mov    %eax,-0x10(%ebp)
  102633:	eb 42                	jmp    102677 <free+0x5e>
  102635:	8b 45 08             	mov    0x8(%ebp),%eax
  102638:	25 00 f0 ff ff       	and    $0xfffff000,%eax
  10263d:	3b 45 f0             	cmp    -0x10(%ebp),%eax
  102640:	75 28                	jne    10266a <free+0x51>
  102642:	a1 c4 84 10 00       	mov    0x1084c4,%eax
  102647:	89 c2                	mov    %eax,%edx
  102649:	8b 45 08             	mov    0x8(%ebp),%eax
  10264c:	29 d0                	sub    %edx,%eax
  10264e:	89 c1                	mov    %eax,%ecx
  102650:	a1 c4 84 10 00       	mov    0x1084c4,%eax
  102655:	89 c2                	mov    %eax,%edx
  102657:	8b 45 08             	mov    0x8(%ebp),%eax
  10265a:	29 d0                	sub    %edx,%eax
  10265c:	8b 00                	mov    (%eax),%eax
  10265e:	2d 00 00 00 80       	sub    $0x80000000,%eax
  102663:	89 01                	mov    %eax,(%ecx)
  102665:	e9 7a 01 00 00       	jmp    1027e4 <free+0x1cb>
  10266a:	8b 45 f0             	mov    -0x10(%ebp),%eax
  10266d:	05 fc 0f 00 00       	add    $0xffc,%eax
  102672:	8b 00                	mov    (%eax),%eax
  102674:	89 45 f0             	mov    %eax,-0x10(%ebp)
  102677:	83 7d f0 00          	cmpl   $0x0,-0x10(%ebp)
  10267b:	75 b8                	jne    102635 <free+0x1c>
  10267d:	8b 15 40 d8 10 00    	mov    0x10d840,%edx
  102683:	8b 45 08             	mov    0x8(%ebp),%eax
  102686:	c1 e8 0c             	shr    $0xc,%eax
  102689:	52                   	push   %edx
  10268a:	50                   	push   %eax
  10268b:	e8 71 f7 ff ff       	call   101e01 <getBit>
  102690:	83 c4 08             	add    $0x8,%esp
  102693:	83 f8 01             	cmp    $0x1,%eax
  102696:	0f 85 b2 00 00 00    	jne    10274e <free+0x135>
  10269c:	8b 0d 3c d8 10 00    	mov    0x10d83c,%ecx
  1026a2:	a1 34 d8 10 00       	mov    0x10d834,%eax
  1026a7:	8d 14 85 00 00 00 00 	lea    0x0(,%eax,4),%edx
  1026ae:	8b 45 08             	mov    0x8(%ebp),%eax
  1026b1:	68 00 10 00 00       	push   $0x1000
  1026b6:	51                   	push   %ecx
  1026b7:	52                   	push   %edx
  1026b8:	50                   	push   %eax
  1026b9:	e8 63 f9 ff ff       	call   102021 <free_page>
  1026be:	83 c4 10             	add    $0x10,%esp
  1026c1:	8b 15 40 d8 10 00    	mov    0x10d840,%edx
  1026c7:	8b 45 08             	mov    0x8(%ebp),%eax
  1026ca:	c1 e8 0c             	shr    $0xc,%eax
  1026cd:	52                   	push   %edx
  1026ce:	6a 00                	push   $0x0
  1026d0:	50                   	push   %eax
  1026d1:	e8 7d f7 ff ff       	call   101e53 <setBit>
  1026d6:	83 c4 0c             	add    $0xc,%esp
  1026d9:	8b 45 08             	mov    0x8(%ebp),%eax
  1026dc:	89 c2                	mov    %eax,%edx
  1026de:	c1 ea 0c             	shr    $0xc,%edx
  1026e1:	a1 34 d8 10 00       	mov    0x10d834,%eax
  1026e6:	c1 e0 04             	shl    $0x4,%eax
  1026e9:	8d 04 02             	lea    (%edx,%eax,1),%eax
  1026ec:	89 45 ec             	mov    %eax,-0x14(%ebp)
  1026ef:	8b 45 ec             	mov    -0x14(%ebp),%eax
  1026f2:	d1 e8                	shr    %eax
  1026f4:	89 45 f0             	mov    %eax,-0x10(%ebp)
  1026f7:	eb 4a                	jmp    102743 <free+0x12a>
  1026f9:	8b 35 3c d8 10 00    	mov    0x10d83c,%esi
  1026ff:	8b 15 3c d8 10 00    	mov    0x10d83c,%edx
  102705:	8b 45 f0             	mov    -0x10(%ebp),%eax
  102708:	d1 e0                	shl    %eax
  10270a:	52                   	push   %edx
  10270b:	50                   	push   %eax
  10270c:	e8 f0 f6 ff ff       	call   101e01 <getBit>
  102711:	83 c4 08             	add    $0x8,%esp
  102714:	89 c3                	mov    %eax,%ebx
  102716:	8b 15 3c d8 10 00    	mov    0x10d83c,%edx
  10271c:	8b 45 f0             	mov    -0x10(%ebp),%eax
  10271f:	d1 e0                	shl    %eax
  102721:	40                   	inc    %eax
  102722:	52                   	push   %edx
  102723:	50                   	push   %eax
  102724:	e8 d8 f6 ff ff       	call   101e01 <getBit>
  102729:	83 c4 08             	add    $0x8,%esp
  10272c:	09 d8                	or     %ebx,%eax
  10272e:	56                   	push   %esi
  10272f:	50                   	push   %eax
  102730:	ff 75 f0             	pushl  -0x10(%ebp)
  102733:	e8 1b f7 ff ff       	call   101e53 <setBit>
  102738:	83 c4 0c             	add    $0xc,%esp
  10273b:	8b 45 f0             	mov    -0x10(%ebp),%eax
  10273e:	d1 e8                	shr    %eax
  102740:	89 45 f0             	mov    %eax,-0x10(%ebp)
  102743:	83 7d f0 00          	cmpl   $0x0,-0x10(%ebp)
  102747:	75 b0                	jne    1026f9 <free+0xe0>
  102749:	e9 96 00 00 00       	jmp    1027e4 <free+0x1cb>
  10274e:	a1 38 d8 10 00       	mov    0x10d838,%eax
  102753:	89 45 f4             	mov    %eax,-0xc(%ebp)
  102756:	eb 7e                	jmp    1027d6 <free+0x1bd>
  102758:	8b 45 f4             	mov    -0xc(%ebp),%eax
  10275b:	8b 50 04             	mov    0x4(%eax),%edx
  10275e:	8b 45 08             	mov    0x8(%ebp),%eax
  102761:	39 c2                	cmp    %eax,%edx
  102763:	75 68                	jne    1027cd <free+0x1b4>
  102765:	8b 45 f4             	mov    -0xc(%ebp),%eax
  102768:	8b 40 04             	mov    0x4(%eax),%eax
  10276b:	89 45 f0             	mov    %eax,-0x10(%ebp)
  10276e:	eb 27                	jmp    102797 <free+0x17e>
  102770:	a1 3c d8 10 00       	mov    0x10d83c,%eax
  102775:	8b 15 34 d8 10 00    	mov    0x10d834,%edx
  10277b:	c1 e2 02             	shl    $0x2,%edx
  10277e:	68 00 10 00 00       	push   $0x1000
  102783:	50                   	push   %eax
  102784:	52                   	push   %edx
  102785:	ff 75 f0             	pushl  -0x10(%ebp)
  102788:	e8 94 f8 ff ff       	call   102021 <free_page>
  10278d:	83 c4 10             	add    $0x10,%esp
  102790:	81 45 f0 00 10 00 00 	addl   $0x1000,-0x10(%ebp)
  102797:	8b 45 f4             	mov    -0xc(%ebp),%eax
  10279a:	8b 50 04             	mov    0x4(%eax),%edx
  10279d:	8b 45 f4             	mov    -0xc(%ebp),%eax
  1027a0:	8b 40 08             	mov    0x8(%eax),%eax
  1027a3:	c1 e0 0c             	shl    $0xc,%eax
  1027a6:	8d 04 02             	lea    (%edx,%eax,1),%eax
  1027a9:	48                   	dec    %eax
  1027aa:	3b 45 f0             	cmp    -0x10(%ebp),%eax
  1027ad:	77 c1                	ja     102770 <free+0x157>
  1027af:	8b 45 f4             	mov    -0xc(%ebp),%eax
  1027b2:	8b 10                	mov    (%eax),%edx
  1027b4:	8b 45 f4             	mov    -0xc(%ebp),%eax
  1027b7:	8b 40 0c             	mov    0xc(%eax),%eax
  1027ba:	89 42 0c             	mov    %eax,0xc(%edx)
  1027bd:	83 ec 0c             	sub    $0xc,%esp
  1027c0:	ff 75 f4             	pushl  -0xc(%ebp)
  1027c3:	e8 51 fe ff ff       	call   102619 <free>
  1027c8:	83 c4 10             	add    $0x10,%esp
  1027cb:	eb 17                	jmp    1027e4 <free+0x1cb>
  1027cd:	8b 45 f4             	mov    -0xc(%ebp),%eax
  1027d0:	8b 40 0c             	mov    0xc(%eax),%eax
  1027d3:	89 45 f4             	mov    %eax,-0xc(%ebp)
  1027d6:	8b 45 f4             	mov    -0xc(%ebp),%eax
  1027d9:	8b 40 0c             	mov    0xc(%eax),%eax
  1027dc:	85 c0                	test   %eax,%eax
  1027de:	0f 85 74 ff ff ff    	jne    102758 <free+0x13f>
  1027e4:	8d 65 f8             	lea    -0x8(%ebp),%esp
  1027e7:	5b                   	pop    %ebx
  1027e8:	5e                   	pop    %esi
  1027e9:	c9                   	leave  
  1027ea:	c3                   	ret    

001027eb <memcopy>:
  1027eb:	55                   	push   %ebp
  1027ec:	89 e5                	mov    %esp,%ebp
  1027ee:	83 ec 10             	sub    $0x10,%esp
  1027f1:	c7 45 fc 00 00 00 00 	movl   $0x0,-0x4(%ebp)
  1027f8:	eb 19                	jmp    102813 <memcopy+0x28>
  1027fa:	8b 55 08             	mov    0x8(%ebp),%edx
  1027fd:	8b 45 fc             	mov    -0x4(%ebp),%eax
  102800:	8d 0c 02             	lea    (%edx,%eax,1),%ecx
  102803:	8b 55 0c             	mov    0xc(%ebp),%edx
  102806:	8b 45 fc             	mov    -0x4(%ebp),%eax
  102809:	8d 04 02             	lea    (%edx,%eax,1),%eax
  10280c:	8a 00                	mov    (%eax),%al
  10280e:	88 01                	mov    %al,(%ecx)
  102810:	ff 45 fc             	incl   -0x4(%ebp)
  102813:	8b 45 fc             	mov    -0x4(%ebp),%eax
  102816:	3b 45 10             	cmp    0x10(%ebp),%eax
  102819:	72 df                	jb     1027fa <memcopy+0xf>
  10281b:	8b 45 08             	mov    0x8(%ebp),%eax
  10281e:	c9                   	leave  
  10281f:	c3                   	ret    

00102820 <memcpy>:
  102820:	55                   	push   %ebp
  102821:	89 e5                	mov    %esp,%ebp
  102823:	83 ec 10             	sub    $0x10,%esp
  102826:	c7 45 fc 00 00 00 00 	movl   $0x0,-0x4(%ebp)
  10282d:	eb 19                	jmp    102848 <memcpy+0x28>
  10282f:	8b 55 08             	mov    0x8(%ebp),%edx
  102832:	8b 45 fc             	mov    -0x4(%ebp),%eax
  102835:	8d 0c 02             	lea    (%edx,%eax,1),%ecx
  102838:	8b 55 0c             	mov    0xc(%ebp),%edx
  10283b:	8b 45 fc             	mov    -0x4(%ebp),%eax
  10283e:	8d 04 02             	lea    (%edx,%eax,1),%eax
  102841:	8a 00                	mov    (%eax),%al
  102843:	88 01                	mov    %al,(%ecx)
  102845:	ff 45 fc             	incl   -0x4(%ebp)
  102848:	8b 45 fc             	mov    -0x4(%ebp),%eax
  10284b:	3b 45 10             	cmp    0x10(%ebp),%eax
  10284e:	72 df                	jb     10282f <memcpy+0xf>
  102850:	8b 45 08             	mov    0x8(%ebp),%eax
  102853:	c9                   	leave  
  102854:	c3                   	ret    

00102855 <setup_paging>:
  102855:	55                   	push   %ebp
  102856:	89 e5                	mov    %esp,%ebp
  102858:	56                   	push   %esi
  102859:	53                   	push   %ebx
  10285a:	83 ec 20             	sub    $0x20,%esp
  10285d:	8b 45 0c             	mov    0xc(%ebp),%eax
  102860:	25 00 f0 ff ff       	and    $0xfffff000,%eax
  102865:	05 00 10 00 00       	add    $0x1000,%eax
  10286a:	a3 30 d8 10 00       	mov    %eax,0x10d830
  10286f:	8b 45 0c             	mov    0xc(%ebp),%eax
  102872:	25 00 f0 ff ff       	and    $0xfffff000,%eax
  102877:	05 00 20 00 00       	add    $0x2000,%eax
  10287c:	89 45 e4             	mov    %eax,-0x1c(%ebp)
  10287f:	c7 45 f0 00 00 00 00 	movl   $0x0,-0x10(%ebp)
  102886:	83 ec 0c             	sub    $0xc,%esp
  102889:	68 ec 84 10 00       	push   $0x1084ec
  10288e:	e8 8d eb ff ff       	call   101420 <display>
  102893:	83 c4 10             	add    $0x10,%esp
  102896:	c7 45 e8 00 00 00 00 	movl   $0x0,-0x18(%ebp)
  10289d:	eb 19                	jmp    1028b8 <setup_paging+0x63>
  10289f:	8b 45 e8             	mov    -0x18(%ebp),%eax
  1028a2:	c1 e0 02             	shl    $0x2,%eax
  1028a5:	89 c2                	mov    %eax,%edx
  1028a7:	a1 30 d8 10 00       	mov    0x10d830,%eax
  1028ac:	8d 04 02             	lea    (%edx,%eax,1),%eax
  1028af:	c7 00 00 00 00 00    	movl   $0x0,(%eax)
  1028b5:	ff 45 e8             	incl   -0x18(%ebp)
  1028b8:	81 7d e8 ff 03 00 00 	cmpl   $0x3ff,-0x18(%ebp)
  1028bf:	76 de                	jbe    10289f <setup_paging+0x4a>
  1028c1:	8b 45 08             	mov    0x8(%ebp),%eax
  1028c4:	8b 00                	mov    (%eax),%eax
  1028c6:	83 e0 40             	and    $0x40,%eax
  1028c9:	85 c0                	test   %eax,%eax
  1028cb:	0f 84 ce 01 00 00    	je     102a9f <setup_paging+0x24a>
  1028d1:	8b 45 08             	mov    0x8(%ebp),%eax
  1028d4:	8b 40 30             	mov    0x30(%eax),%eax
  1028d7:	89 45 f4             	mov    %eax,-0xc(%ebp)
  1028da:	8b 45 08             	mov    0x8(%ebp),%eax
  1028dd:	8b 40 30             	mov    0x30(%eax),%eax
  1028e0:	89 45 f4             	mov    %eax,-0xc(%ebp)
  1028e3:	eb 3e                	jmp    102923 <setup_paging+0xce>
  1028e5:	8b 45 f4             	mov    -0xc(%ebp),%eax
  1028e8:	83 c0 14             	add    $0x14,%eax
  1028eb:	8b 10                	mov    (%eax),%edx
  1028ed:	8b 45 f4             	mov    -0xc(%ebp),%eax
  1028f0:	83 c0 0c             	add    $0xc,%eax
  1028f3:	8b 18                	mov    (%eax),%ebx
  1028f5:	8b 45 f4             	mov    -0xc(%ebp),%eax
  1028f8:	83 c0 04             	add    $0x4,%eax
  1028fb:	8b 08                	mov    (%eax),%ecx
  1028fd:	52                   	push   %edx
  1028fe:	8d 45 e4             	lea    -0x1c(%ebp),%eax
  102901:	50                   	push   %eax
  102902:	53                   	push   %ebx
  102903:	51                   	push   %ecx
  102904:	e8 a8 f7 ff ff       	call   1020b1 <pdt_ptd_range>
  102909:	83 c4 10             	add    $0x10,%esp
  10290c:	8b 55 f4             	mov    -0xc(%ebp),%edx
  10290f:	83 c2 04             	add    $0x4,%edx
  102912:	8b 45 f4             	mov    -0xc(%ebp),%eax
  102915:	8b 00                	mov    (%eax),%eax
  102917:	c1 e8 02             	shr    $0x2,%eax
  10291a:	c1 e0 02             	shl    $0x2,%eax
  10291d:	8d 04 02             	lea    (%edx,%eax,1),%eax
  102920:	89 45 f4             	mov    %eax,-0xc(%ebp)
  102923:	8b 45 f4             	mov    -0xc(%ebp),%eax
  102926:	89 c1                	mov    %eax,%ecx
  102928:	8b 45 08             	mov    0x8(%ebp),%eax
  10292b:	8b 50 30             	mov    0x30(%eax),%edx
  10292e:	8b 45 08             	mov    0x8(%ebp),%eax
  102931:	8b 40 2c             	mov    0x2c(%eax),%eax
  102934:	8d 04 02             	lea    (%edx,%eax,1),%eax
  102937:	39 c1                	cmp    %eax,%ecx
  102939:	72 aa                	jb     1028e5 <setup_paging+0x90>
  10293b:	6a 02                	push   $0x2
  10293d:	8d 45 e4             	lea    -0x1c(%ebp),%eax
  102940:	50                   	push   %eax
  102941:	68 00 00 10 00       	push   $0x100000
  102946:	6a 00                	push   $0x0
  102948:	e8 64 f7 ff ff       	call   1020b1 <pdt_ptd_range>
  10294d:	83 c4 10             	add    $0x10,%esp
  102950:	8b 45 e4             	mov    -0x1c(%ebp),%eax
  102953:	a3 3c d8 10 00       	mov    %eax,0x10d83c
  102958:	c7 05 34 d8 10 00 01 	movl   $0x1,0x10d834
  10295f:	00 00 00 
  102962:	eb 0c                	jmp    102970 <setup_paging+0x11b>
  102964:	a1 34 d8 10 00       	mov    0x10d834,%eax
  102969:	d1 e0                	shl    %eax
  10296b:	a3 34 d8 10 00       	mov    %eax,0x10d834
  102970:	8b 15 34 d8 10 00    	mov    0x10d834,%edx
  102976:	a1 44 d8 10 00       	mov    0x10d844,%eax
  10297b:	39 c2                	cmp    %eax,%edx
  10297d:	76 e5                	jbe    102964 <setup_paging+0x10f>
  10297f:	a1 34 d8 10 00       	mov    0x10d834,%eax
  102984:	c1 e8 0c             	shr    $0xc,%eax
  102987:	a3 34 d8 10 00       	mov    %eax,0x10d834
  10298c:	a1 34 d8 10 00       	mov    0x10d834,%eax
  102991:	d1 e0                	shl    %eax
  102993:	a3 34 d8 10 00       	mov    %eax,0x10d834
  102998:	a1 34 d8 10 00       	mov    0x10d834,%eax
  10299d:	c1 e8 05             	shr    $0x5,%eax
  1029a0:	a3 34 d8 10 00       	mov    %eax,0x10d834
  1029a5:	c7 45 e8 00 00 00 00 	movl   $0x0,-0x18(%ebp)
  1029ac:	eb 19                	jmp    1029c7 <setup_paging+0x172>
  1029ae:	8b 45 e8             	mov    -0x18(%ebp),%eax
  1029b1:	c1 e0 02             	shl    $0x2,%eax
  1029b4:	89 c2                	mov    %eax,%edx
  1029b6:	a1 3c d8 10 00       	mov    0x10d83c,%eax
  1029bb:	8d 04 02             	lea    (%edx,%eax,1),%eax
  1029be:	c7 00 00 00 00 00    	movl   $0x0,(%eax)
  1029c4:	ff 45 e8             	incl   -0x18(%ebp)
  1029c7:	a1 34 d8 10 00       	mov    0x10d834,%eax
  1029cc:	39 45 e8             	cmp    %eax,-0x18(%ebp)
  1029cf:	72 dd                	jb     1029ae <setup_paging+0x159>
  1029d1:	8b 45 08             	mov    0x8(%ebp),%eax
  1029d4:	8b 40 30             	mov    0x30(%eax),%eax
  1029d7:	89 45 f4             	mov    %eax,-0xc(%ebp)
  1029da:	8b 45 08             	mov    0x8(%ebp),%eax
  1029dd:	8b 40 30             	mov    0x30(%eax),%eax
  1029e0:	89 45 f4             	mov    %eax,-0xc(%ebp)
  1029e3:	e9 96 00 00 00       	jmp    102a7e <setup_paging+0x229>
  1029e8:	8b 45 f4             	mov    -0xc(%ebp),%eax
  1029eb:	83 c0 14             	add    $0x14,%eax
  1029ee:	8b 00                	mov    (%eax),%eax
  1029f0:	83 f8 01             	cmp    $0x1,%eax
  1029f3:	75 72                	jne    102a67 <setup_paging+0x212>
  1029f5:	8b 45 f4             	mov    -0xc(%ebp),%eax
  1029f8:	83 c0 04             	add    $0x4,%eax
  1029fb:	8b 00                	mov    (%eax),%eax
  1029fd:	89 45 e8             	mov    %eax,-0x18(%ebp)
  102a00:	eb 44                	jmp    102a46 <setup_paging+0x1f1>
  102a02:	8b 45 e8             	mov    -0x18(%ebp),%eax
  102a05:	25 ff 0f 00 00       	and    $0xfff,%eax
  102a0a:	85 c0                	test   %eax,%eax
  102a0c:	75 2a                	jne    102a38 <setup_paging+0x1e3>
  102a0e:	a1 34 d8 10 00       	mov    0x10d834,%eax
  102a13:	8d 14 85 00 00 00 00 	lea    0x0(,%eax,4),%edx
  102a1a:	8b 0d 3c d8 10 00    	mov    0x10d83c,%ecx
  102a20:	8b 45 e8             	mov    -0x18(%ebp),%eax
  102a23:	c1 e8 0c             	shr    $0xc,%eax
  102a26:	52                   	push   %edx
  102a27:	51                   	push   %ecx
  102a28:	6a 01                	push   $0x1
  102a2a:	50                   	push   %eax
  102a2b:	e8 9a f4 ff ff       	call   101eca <setAddress>
  102a30:	83 c4 10             	add    $0x10,%esp
  102a33:	ff 45 f0             	incl   -0x10(%ebp)
  102a36:	eb 07                	jmp    102a3f <setup_paging+0x1ea>
  102a38:	81 65 e8 00 f0 ff ff 	andl   $0xfffff000,-0x18(%ebp)
  102a3f:	81 45 e8 00 10 00 00 	addl   $0x1000,-0x18(%ebp)
  102a46:	8b 4d e8             	mov    -0x18(%ebp),%ecx
  102a49:	81 c1 ff 0f 00 00    	add    $0xfff,%ecx
  102a4f:	8b 45 f4             	mov    -0xc(%ebp),%eax
  102a52:	83 c0 04             	add    $0x4,%eax
  102a55:	8b 10                	mov    (%eax),%edx
  102a57:	8b 45 f4             	mov    -0xc(%ebp),%eax
  102a5a:	83 c0 0c             	add    $0xc,%eax
  102a5d:	8b 00                	mov    (%eax),%eax
  102a5f:	8d 04 02             	lea    (%edx,%eax,1),%eax
  102a62:	48                   	dec    %eax
  102a63:	39 c1                	cmp    %eax,%ecx
  102a65:	76 9b                	jbe    102a02 <setup_paging+0x1ad>
  102a67:	8b 55 f4             	mov    -0xc(%ebp),%edx
  102a6a:	83 c2 04             	add    $0x4,%edx
  102a6d:	8b 45 f4             	mov    -0xc(%ebp),%eax
  102a70:	8b 00                	mov    (%eax),%eax
  102a72:	c1 e8 02             	shr    $0x2,%eax
  102a75:	c1 e0 02             	shl    $0x2,%eax
  102a78:	8d 04 02             	lea    (%edx,%eax,1),%eax
  102a7b:	89 45 f4             	mov    %eax,-0xc(%ebp)
  102a7e:	8b 45 f4             	mov    -0xc(%ebp),%eax
  102a81:	89 c1                	mov    %eax,%ecx
  102a83:	8b 45 08             	mov    0x8(%ebp),%eax
  102a86:	8b 50 30             	mov    0x30(%eax),%edx
  102a89:	8b 45 08             	mov    0x8(%ebp),%eax
  102a8c:	8b 40 2c             	mov    0x2c(%eax),%eax
  102a8f:	8d 04 02             	lea    (%edx,%eax,1),%eax
  102a92:	39 c1                	cmp    %eax,%ecx
  102a94:	0f 82 4e ff ff ff    	jb     1029e8 <setup_paging+0x193>
  102a9a:	e9 8a 01 00 00       	jmp    102c29 <setup_paging+0x3d4>
  102a9f:	8b 45 08             	mov    0x8(%ebp),%eax
  102aa2:	8b 00                	mov    (%eax),%eax
  102aa4:	83 e0 01             	and    $0x1,%eax
  102aa7:	84 c0                	test   %al,%al
  102aa9:	0f 84 7a 01 00 00    	je     102c29 <setup_paging+0x3d4>
  102aaf:	8b 45 08             	mov    0x8(%ebp),%eax
  102ab2:	8b 40 04             	mov    0x4(%eax),%eax
  102ab5:	89 c2                	mov    %eax,%edx
  102ab7:	c1 e2 0a             	shl    $0xa,%edx
  102aba:	6a 01                	push   $0x1
  102abc:	8d 45 e4             	lea    -0x1c(%ebp),%eax
  102abf:	50                   	push   %eax
  102ac0:	52                   	push   %edx
  102ac1:	6a 00                	push   $0x0
  102ac3:	e8 e9 f5 ff ff       	call   1020b1 <pdt_ptd_range>
  102ac8:	83 c4 10             	add    $0x10,%esp
  102acb:	6a 02                	push   $0x2
  102acd:	8d 45 e4             	lea    -0x1c(%ebp),%eax
  102ad0:	50                   	push   %eax
  102ad1:	68 00 00 10 00       	push   $0x100000
  102ad6:	6a 00                	push   $0x0
  102ad8:	e8 d4 f5 ff ff       	call   1020b1 <pdt_ptd_range>
  102add:	83 c4 10             	add    $0x10,%esp
  102ae0:	8b 45 08             	mov    0x8(%ebp),%eax
  102ae3:	8b 40 08             	mov    0x8(%eax),%eax
  102ae6:	89 c2                	mov    %eax,%edx
  102ae8:	c1 e2 0a             	shl    $0xa,%edx
  102aeb:	6a 01                	push   $0x1
  102aed:	8d 45 e4             	lea    -0x1c(%ebp),%eax
  102af0:	50                   	push   %eax
  102af1:	52                   	push   %edx
  102af2:	68 00 00 10 00       	push   $0x100000
  102af7:	e8 b5 f5 ff ff       	call   1020b1 <pdt_ptd_range>
  102afc:	83 c4 10             	add    $0x10,%esp
  102aff:	8b 45 e4             	mov    -0x1c(%ebp),%eax
  102b02:	a3 3c d8 10 00       	mov    %eax,0x10d83c
  102b07:	c7 05 34 d8 10 00 01 	movl   $0x1,0x10d834
  102b0e:	00 00 00 
  102b11:	eb 0c                	jmp    102b1f <setup_paging+0x2ca>
  102b13:	a1 34 d8 10 00       	mov    0x10d834,%eax
  102b18:	d1 e0                	shl    %eax
  102b1a:	a3 34 d8 10 00       	mov    %eax,0x10d834
  102b1f:	8b 15 34 d8 10 00    	mov    0x10d834,%edx
  102b25:	a1 44 d8 10 00       	mov    0x10d844,%eax
  102b2a:	39 c2                	cmp    %eax,%edx
  102b2c:	76 e5                	jbe    102b13 <setup_paging+0x2be>
  102b2e:	a1 34 d8 10 00       	mov    0x10d834,%eax
  102b33:	c1 e8 0c             	shr    $0xc,%eax
  102b36:	a3 34 d8 10 00       	mov    %eax,0x10d834
  102b3b:	a1 34 d8 10 00       	mov    0x10d834,%eax
  102b40:	d1 e0                	shl    %eax
  102b42:	a3 34 d8 10 00       	mov    %eax,0x10d834
  102b47:	a1 34 d8 10 00       	mov    0x10d834,%eax
  102b4c:	c1 e8 05             	shr    $0x5,%eax
  102b4f:	a3 34 d8 10 00       	mov    %eax,0x10d834
  102b54:	c7 45 e8 00 00 00 00 	movl   $0x0,-0x18(%ebp)
  102b5b:	eb 19                	jmp    102b76 <setup_paging+0x321>
  102b5d:	8b 45 e8             	mov    -0x18(%ebp),%eax
  102b60:	c1 e0 02             	shl    $0x2,%eax
  102b63:	89 c2                	mov    %eax,%edx
  102b65:	a1 3c d8 10 00       	mov    0x10d83c,%eax
  102b6a:	8d 04 02             	lea    (%edx,%eax,1),%eax
  102b6d:	c7 00 00 00 00 00    	movl   $0x0,(%eax)
  102b73:	ff 45 e8             	incl   -0x18(%ebp)
  102b76:	a1 34 d8 10 00       	mov    0x10d834,%eax
  102b7b:	39 45 e8             	cmp    %eax,-0x18(%ebp)
  102b7e:	72 dd                	jb     102b5d <setup_paging+0x308>
  102b80:	c7 45 f0 00 00 00 00 	movl   $0x0,-0x10(%ebp)
  102b87:	c7 45 e8 00 00 00 00 	movl   $0x0,-0x18(%ebp)
  102b8e:	eb 2f                	jmp    102bbf <setup_paging+0x36a>
  102b90:	a1 34 d8 10 00       	mov    0x10d834,%eax
  102b95:	8d 14 85 00 00 00 00 	lea    0x0(,%eax,4),%edx
  102b9c:	8b 0d 3c d8 10 00    	mov    0x10d83c,%ecx
  102ba2:	8b 45 e8             	mov    -0x18(%ebp),%eax
  102ba5:	c1 e8 0c             	shr    $0xc,%eax
  102ba8:	52                   	push   %edx
  102ba9:	51                   	push   %ecx
  102baa:	6a 01                	push   $0x1
  102bac:	50                   	push   %eax
  102bad:	e8 18 f3 ff ff       	call   101eca <setAddress>
  102bb2:	83 c4 10             	add    $0x10,%esp
  102bb5:	ff 45 f0             	incl   -0x10(%ebp)
  102bb8:	81 45 e8 00 10 00 00 	addl   $0x1000,-0x18(%ebp)
  102bbf:	8b 55 e8             	mov    -0x18(%ebp),%edx
  102bc2:	81 c2 ff 0f 00 00    	add    $0xfff,%edx
  102bc8:	8b 45 08             	mov    0x8(%ebp),%eax
  102bcb:	8b 40 04             	mov    0x4(%eax),%eax
  102bce:	c1 e0 0a             	shl    $0xa,%eax
  102bd1:	48                   	dec    %eax
  102bd2:	39 c2                	cmp    %eax,%edx
  102bd4:	76 ba                	jbe    102b90 <setup_paging+0x33b>
  102bd6:	c7 45 e8 00 00 10 00 	movl   $0x100000,-0x18(%ebp)
  102bdd:	eb 2f                	jmp    102c0e <setup_paging+0x3b9>
  102bdf:	a1 34 d8 10 00       	mov    0x10d834,%eax
  102be4:	8d 14 85 00 00 00 00 	lea    0x0(,%eax,4),%edx
  102beb:	8b 0d 3c d8 10 00    	mov    0x10d83c,%ecx
  102bf1:	8b 45 e8             	mov    -0x18(%ebp),%eax
  102bf4:	c1 e8 0c             	shr    $0xc,%eax
  102bf7:	52                   	push   %edx
  102bf8:	51                   	push   %ecx
  102bf9:	6a 01                	push   $0x1
  102bfb:	50                   	push   %eax
  102bfc:	e8 c9 f2 ff ff       	call   101eca <setAddress>
  102c01:	83 c4 10             	add    $0x10,%esp
  102c04:	ff 45 f0             	incl   -0x10(%ebp)
  102c07:	81 45 e8 00 10 00 00 	addl   $0x1000,-0x18(%ebp)
  102c0e:	8b 55 e8             	mov    -0x18(%ebp),%edx
  102c11:	81 c2 ff 0f 00 00    	add    $0xfff,%edx
  102c17:	8b 45 08             	mov    0x8(%ebp),%eax
  102c1a:	8b 40 08             	mov    0x8(%eax),%eax
  102c1d:	c1 e0 0a             	shl    $0xa,%eax
  102c20:	05 ff ff 0f 00       	add    $0xfffff,%eax
  102c25:	39 c2                	cmp    %eax,%edx
  102c27:	76 b6                	jbe    102bdf <setup_paging+0x38a>
  102c29:	a1 34 d8 10 00       	mov    0x10d834,%eax
  102c2e:	8d 14 85 00 00 00 00 	lea    0x0(,%eax,4),%edx
  102c35:	a1 3c d8 10 00       	mov    0x10d83c,%eax
  102c3a:	8d 04 02             	lea    (%edx,%eax,1),%eax
  102c3d:	a3 40 d8 10 00       	mov    %eax,0x10d840
  102c42:	c7 45 e8 00 00 00 00 	movl   $0x0,-0x18(%ebp)
  102c49:	eb 16                	jmp    102c61 <setup_paging+0x40c>
  102c4b:	a1 40 d8 10 00       	mov    0x10d840,%eax
  102c50:	50                   	push   %eax
  102c51:	6a 00                	push   $0x0
  102c53:	ff 75 e8             	pushl  -0x18(%ebp)
  102c56:	e8 f8 f1 ff ff       	call   101e53 <setBit>
  102c5b:	83 c4 0c             	add    $0xc,%esp
  102c5e:	ff 45 e8             	incl   -0x18(%ebp)
  102c61:	a1 34 d8 10 00       	mov    0x10d834,%eax
  102c66:	c1 e0 03             	shl    $0x3,%eax
  102c69:	3b 45 e8             	cmp    -0x18(%ebp),%eax
  102c6c:	77 dd                	ja     102c4b <setup_paging+0x3f6>
  102c6e:	a1 34 d8 10 00       	mov    0x10d834,%eax
  102c73:	c1 e0 02             	shl    $0x2,%eax
  102c76:	89 c2                	mov    %eax,%edx
  102c78:	d1 ea                	shr    %edx
  102c7a:	a1 40 d8 10 00       	mov    0x10d840,%eax
  102c7f:	8d 04 02             	lea    (%edx,%eax,1),%eax
  102c82:	89 45 e4             	mov    %eax,-0x1c(%ebp)
  102c85:	c7 45 e8 00 00 10 00 	movl   $0x100000,-0x18(%ebp)
  102c8c:	eb 2c                	jmp    102cba <setup_paging+0x465>
  102c8e:	a1 34 d8 10 00       	mov    0x10d834,%eax
  102c93:	8d 14 85 00 00 00 00 	lea    0x0(,%eax,4),%edx
  102c9a:	8b 0d 3c d8 10 00    	mov    0x10d83c,%ecx
  102ca0:	8b 45 e8             	mov    -0x18(%ebp),%eax
  102ca3:	c1 e8 0c             	shr    $0xc,%eax
  102ca6:	52                   	push   %edx
  102ca7:	51                   	push   %ecx
  102ca8:	6a 00                	push   $0x0
  102caa:	50                   	push   %eax
  102cab:	e8 1a f2 ff ff       	call   101eca <setAddress>
  102cb0:	83 c4 10             	add    $0x10,%esp
  102cb3:	81 45 e8 00 10 00 00 	addl   $0x1000,-0x18(%ebp)
  102cba:	8b 45 e4             	mov    -0x1c(%ebp),%eax
  102cbd:	25 00 f0 ff ff       	and    $0xfffff000,%eax
  102cc2:	05 ff 0f 00 00       	add    $0xfff,%eax
  102cc7:	3b 45 e8             	cmp    -0x18(%ebp),%eax
  102cca:	77 c2                	ja     102c8e <setup_paging+0x439>
  102ccc:	a1 34 d8 10 00       	mov    0x10d834,%eax
  102cd1:	c1 e0 02             	shl    $0x2,%eax
  102cd4:	8b 15 3c d8 10 00    	mov    0x10d83c,%edx
  102cda:	50                   	push   %eax
  102cdb:	52                   	push   %edx
  102cdc:	6a 00                	push   $0x0
  102cde:	6a 00                	push   $0x0
  102ce0:	e8 e5 f1 ff ff       	call   101eca <setAddress>
  102ce5:	83 c4 10             	add    $0x10,%esp
  102ce8:	a1 34 d8 10 00       	mov    0x10d834,%eax
  102ced:	c1 e0 03             	shl    $0x3,%eax
  102cf0:	89 45 e8             	mov    %eax,-0x18(%ebp)
  102cf3:	eb 5f                	jmp    102d54 <setup_paging+0x4ff>
  102cf5:	8b 45 e8             	mov    -0x18(%ebp),%eax
  102cf8:	89 45 ec             	mov    %eax,-0x14(%ebp)
  102cfb:	eb 45                	jmp    102d42 <setup_paging+0x4ed>
  102cfd:	8b 35 3c d8 10 00    	mov    0x10d83c,%esi
  102d03:	8b 15 3c d8 10 00    	mov    0x10d83c,%edx
  102d09:	8b 45 ec             	mov    -0x14(%ebp),%eax
  102d0c:	d1 e0                	shl    %eax
  102d0e:	52                   	push   %edx
  102d0f:	50                   	push   %eax
  102d10:	e8 ec f0 ff ff       	call   101e01 <getBit>
  102d15:	83 c4 08             	add    $0x8,%esp
  102d18:	89 c3                	mov    %eax,%ebx
  102d1a:	8b 15 3c d8 10 00    	mov    0x10d83c,%edx
  102d20:	8b 45 ec             	mov    -0x14(%ebp),%eax
  102d23:	d1 e0                	shl    %eax
  102d25:	40                   	inc    %eax
  102d26:	52                   	push   %edx
  102d27:	50                   	push   %eax
  102d28:	e8 d4 f0 ff ff       	call   101e01 <getBit>
  102d2d:	83 c4 08             	add    $0x8,%esp
  102d30:	09 d8                	or     %ebx,%eax
  102d32:	56                   	push   %esi
  102d33:	50                   	push   %eax
  102d34:	ff 75 ec             	pushl  -0x14(%ebp)
  102d37:	e8 17 f1 ff ff       	call   101e53 <setBit>
  102d3c:	83 c4 0c             	add    $0xc,%esp
  102d3f:	ff 45 ec             	incl   -0x14(%ebp)
  102d42:	8b 45 e8             	mov    -0x18(%ebp),%eax
  102d45:	d1 e0                	shl    %eax
  102d47:	3b 45 ec             	cmp    -0x14(%ebp),%eax
  102d4a:	77 b1                	ja     102cfd <setup_paging+0x4a8>
  102d4c:	8b 45 e8             	mov    -0x18(%ebp),%eax
  102d4f:	d1 e8                	shr    %eax
  102d51:	89 45 e8             	mov    %eax,-0x18(%ebp)
  102d54:	83 7d e8 00          	cmpl   $0x0,-0x18(%ebp)
  102d58:	75 9b                	jne    102cf5 <setup_paging+0x4a0>
  102d5a:	83 ec 0c             	sub    $0xc,%esp
  102d5d:	68 00 10 00 00       	push   $0x1000
  102d62:	e8 26 f6 ff ff       	call   10238d <malloc>
  102d67:	83 c4 10             	add    $0x10,%esp
  102d6a:	a3 48 d8 10 00       	mov    %eax,0x10d848
  102d6f:	c7 45 e8 00 00 00 00 	movl   $0x0,-0x18(%ebp)
  102d76:	eb 19                	jmp    102d91 <setup_paging+0x53c>
  102d78:	8b 45 e8             	mov    -0x18(%ebp),%eax
  102d7b:	c1 e0 02             	shl    $0x2,%eax
  102d7e:	89 c2                	mov    %eax,%edx
  102d80:	a1 48 d8 10 00       	mov    0x10d848,%eax
  102d85:	8d 04 02             	lea    (%edx,%eax,1),%eax
  102d88:	c7 00 00 00 00 00    	movl   $0x0,(%eax)
  102d8e:	ff 45 e8             	incl   -0x18(%ebp)
  102d91:	8b 15 c4 84 10 00    	mov    0x1084c4,%edx
  102d97:	b8 00 10 00 00       	mov    $0x1000,%eax
  102d9c:	89 d1                	mov    %edx,%ecx
  102d9e:	ba 00 00 00 00       	mov    $0x0,%edx
  102da3:	f7 f1                	div    %ecx
  102da5:	3b 45 e8             	cmp    -0x18(%ebp),%eax
  102da8:	77 ce                	ja     102d78 <setup_paging+0x523>
  102daa:	8b 0d 48 d8 10 00    	mov    0x10d848,%ecx
  102db0:	a1 c4 84 10 00       	mov    0x1084c4,%eax
  102db5:	8d 14 00             	lea    (%eax,%eax,1),%edx
  102db8:	b8 00 10 00 00       	mov    $0x1000,%eax
  102dbd:	29 d0                	sub    %edx,%eax
  102dbf:	89 01                	mov    %eax,(%ecx)
  102dc1:	83 ec 0c             	sub    $0xc,%esp
  102dc4:	6a 10                	push   $0x10
  102dc6:	e8 c2 f5 ff ff       	call   10238d <malloc>
  102dcb:	83 c4 10             	add    $0x10,%esp
  102dce:	a3 38 d8 10 00       	mov    %eax,0x10d838
  102dd3:	a1 38 d8 10 00       	mov    0x10d838,%eax
  102dd8:	c7 40 04 00 00 00 00 	movl   $0x0,0x4(%eax)
  102ddf:	a1 38 d8 10 00       	mov    0x10d838,%eax
  102de4:	c7 40 08 00 00 00 00 	movl   $0x0,0x8(%eax)
  102deb:	a1 38 d8 10 00       	mov    0x10d838,%eax
  102df0:	c7 40 0c 00 00 00 00 	movl   $0x0,0xc(%eax)
  102df7:	a1 38 d8 10 00       	mov    0x10d838,%eax
  102dfc:	c7 00 00 00 00 00    	movl   $0x0,(%eax)
  102e02:	83 ec 0c             	sub    $0xc,%esp
  102e05:	68 29 85 10 00       	push   $0x108529
  102e0a:	e8 11 e6 ff ff       	call   101420 <display>
  102e0f:	83 c4 10             	add    $0x10,%esp
  102e12:	8b 45 0c             	mov    0xc(%ebp),%eax
  102e15:	25 00 f0 ff ff       	and    $0xfffff000,%eax
  102e1a:	05 00 10 00 00       	add    $0x1000,%eax
  102e1f:	83 ec 0c             	sub    $0xc,%esp
  102e22:	50                   	push   %eax
  102e23:	e8 39 d4 ff ff       	call   100261 <EnablePaging>
  102e28:	83 c4 10             	add    $0x10,%esp
  102e2b:	83 ec 0c             	sub    $0xc,%esp
  102e2e:	68 3c 85 10 00       	push   $0x10853c
  102e33:	e8 e8 e5 ff ff       	call   101420 <display>
  102e38:	83 c4 10             	add    $0x10,%esp
  102e3b:	e8 a7 f0 ff ff       	call   101ee7 <countPages>
  102e40:	83 ec 0c             	sub    $0xc,%esp
  102e43:	50                   	push   %eax
  102e44:	e8 27 e6 ff ff       	call   101470 <PrintNumber>
  102e49:	83 c4 10             	add    $0x10,%esp
  102e4c:	83 ec 0c             	sub    $0xc,%esp
  102e4f:	68 60 85 10 00       	push   $0x108560
  102e54:	e8 c7 e5 ff ff       	call   101420 <display>
  102e59:	83 c4 10             	add    $0x10,%esp
  102e5c:	83 ec 0c             	sub    $0xc,%esp
  102e5f:	ff 75 f0             	pushl  -0x10(%ebp)
  102e62:	e8 09 e6 ff ff       	call   101470 <PrintNumber>
  102e67:	83 c4 10             	add    $0x10,%esp
  102e6a:	83 ec 0c             	sub    $0xc,%esp
  102e6d:	68 84 85 10 00       	push   $0x108584
  102e72:	e8 a9 e5 ff ff       	call   101420 <display>
  102e77:	83 c4 10             	add    $0x10,%esp
  102e7a:	8d 65 f8             	lea    -0x8(%ebp),%esp
  102e7d:	5b                   	pop    %ebx
  102e7e:	5e                   	pop    %esi
  102e7f:	c9                   	leave  
  102e80:	c3                   	ret    
  102e81:	00 00                	add    %al,(%eax)
	...

00102e84 <waitRecieveFloppy>:
  102e84:	55                   	push   %ebp
  102e85:	89 e5                	mov    %esp,%ebp
  102e87:	83 ec 18             	sub    $0x18,%esp
  102e8a:	8b 45 08             	mov    0x8(%ebp),%eax
  102e8d:	83 c0 04             	add    $0x4,%eax
  102e90:	83 ec 0c             	sub    $0xc,%esp
  102e93:	50                   	push   %eax
  102e94:	e8 51 d2 ff ff       	call   1000ea <inportb>
  102e99:	83 c4 10             	add    $0x10,%esp
  102e9c:	89 45 fc             	mov    %eax,-0x4(%ebp)
  102e9f:	8b 45 fc             	mov    -0x4(%ebp),%eax
  102ea2:	25 d0 00 00 00       	and    $0xd0,%eax
  102ea7:	3d d0 00 00 00       	cmp    $0xd0,%eax
  102eac:	74 4f                	je     102efd <waitRecieveFloppy+0x79>
  102eae:	8b 45 fc             	mov    -0x4(%ebp),%eax
  102eb1:	25 d0 00 00 00       	and    $0xd0,%eax
  102eb6:	3d 80 00 00 00       	cmp    $0x80,%eax
  102ebb:	75 2e                	jne    102eeb <waitRecieveFloppy+0x67>
  102ebd:	83 ec 0c             	sub    $0xc,%esp
  102ec0:	68 88 85 10 00       	push   $0x108588
  102ec5:	e8 56 e5 ff ff       	call   101420 <display>
  102eca:	83 c4 10             	add    $0x10,%esp
  102ecd:	83 ec 0c             	sub    $0xc,%esp
  102ed0:	ff 75 fc             	pushl  -0x4(%ebp)
  102ed3:	e8 98 e5 ff ff       	call   101470 <PrintNumber>
  102ed8:	83 c4 10             	add    $0x10,%esp
  102edb:	83 ec 0c             	sub    $0xc,%esp
  102ede:	68 c1 85 10 00       	push   $0x1085c1
  102ee3:	e8 38 e5 ff ff       	call   101420 <display>
  102ee8:	83 c4 10             	add    $0x10,%esp
  102eeb:	83 ec 0c             	sub    $0xc,%esp
  102eee:	68 e8 03 00 00       	push   $0x3e8
  102ef3:	e8 12 d6 ff ff       	call   10050a <Delay>
  102ef8:	83 c4 10             	add    $0x10,%esp
  102efb:	eb 8d                	jmp    102e8a <waitRecieveFloppy+0x6>
  102efd:	c9                   	leave  
  102efe:	c3                   	ret    

00102eff <sendFloppyCommand>:
  102eff:	55                   	push   %ebp
  102f00:	89 e5                	mov    %esp,%ebp
  102f02:	83 ec 18             	sub    $0x18,%esp
  102f05:	8b 45 0c             	mov    0xc(%ebp),%eax
  102f08:	88 45 ec             	mov    %al,-0x14(%ebp)
  102f0b:	8b 45 08             	mov    0x8(%ebp),%eax
  102f0e:	83 c0 04             	add    $0x4,%eax
  102f11:	83 ec 0c             	sub    $0xc,%esp
  102f14:	50                   	push   %eax
  102f15:	e8 d0 d1 ff ff       	call   1000ea <inportb>
  102f1a:	83 c4 10             	add    $0x10,%esp
  102f1d:	89 45 fc             	mov    %eax,-0x4(%ebp)
  102f20:	8b 45 fc             	mov    -0x4(%ebp),%eax
  102f23:	25 c0 00 00 00       	and    $0xc0,%eax
  102f28:	3d c0 00 00 00       	cmp    $0xc0,%eax
  102f2d:	75 30                	jne    102f5f <sendFloppyCommand+0x60>
  102f2f:	83 ec 0c             	sub    $0xc,%esp
  102f32:	68 c4 85 10 00       	push   $0x1085c4
  102f37:	e8 e4 e4 ff ff       	call   101420 <display>
  102f3c:	83 c4 10             	add    $0x10,%esp
  102f3f:	83 ec 0c             	sub    $0xc,%esp
  102f42:	ff 75 fc             	pushl  -0x4(%ebp)
  102f45:	e8 26 e5 ff ff       	call   101470 <PrintNumber>
  102f4a:	83 c4 10             	add    $0x10,%esp
  102f4d:	83 ec 0c             	sub    $0xc,%esp
  102f50:	68 c1 85 10 00       	push   $0x1085c1
  102f55:	e8 c6 e4 ff ff       	call   101420 <display>
  102f5a:	83 c4 10             	add    $0x10,%esp
  102f5d:	eb 28                	jmp    102f87 <sendFloppyCommand+0x88>
  102f5f:	8b 45 fc             	mov    -0x4(%ebp),%eax
  102f62:	25 c0 00 00 00       	and    $0xc0,%eax
  102f67:	3d 80 00 00 00       	cmp    $0x80,%eax
  102f6c:	75 19                	jne    102f87 <sendFloppyCommand+0x88>
  102f6e:	8b 45 08             	mov    0x8(%ebp),%eax
  102f71:	83 c0 05             	add    $0x5,%eax
  102f74:	0f b6 55 ec          	movzbl -0x14(%ebp),%edx
  102f78:	83 ec 08             	sub    $0x8,%esp
  102f7b:	50                   	push   %eax
  102f7c:	52                   	push   %edx
  102f7d:	e8 70 d1 ff ff       	call   1000f2 <outportb>
  102f82:	83 c4 10             	add    $0x10,%esp
  102f85:	eb 25                	jmp    102fac <sendFloppyCommand+0xad>
  102f87:	83 ec 0c             	sub    $0xc,%esp
  102f8a:	68 f8 85 10 00       	push   $0x1085f8
  102f8f:	e8 8c e4 ff ff       	call   101420 <display>
  102f94:	83 c4 10             	add    $0x10,%esp
  102f97:	83 ec 0c             	sub    $0xc,%esp
  102f9a:	68 e8 03 00 00       	push   $0x3e8
  102f9f:	e8 66 d5 ff ff       	call   10050a <Delay>
  102fa4:	83 c4 10             	add    $0x10,%esp
  102fa7:	e9 5f ff ff ff       	jmp    102f0b <sendFloppyCommand+0xc>
  102fac:	8b 45 e8             	mov    -0x18(%ebp),%eax
  102faf:	c9                   	leave  
  102fb0:	c3                   	ret    

00102fb1 <check_floppy_status>:
  102fb1:	55                   	push   %ebp
  102fb2:	89 e5                	mov    %esp,%ebp
  102fb4:	83 ec 08             	sub    $0x8,%esp
  102fb7:	83 ec 08             	sub    $0x8,%esp
  102fba:	6a 08                	push   $0x8
  102fbc:	ff 75 08             	pushl  0x8(%ebp)
  102fbf:	e8 3b ff ff ff       	call   102eff <sendFloppyCommand>
  102fc4:	83 c4 10             	add    $0x10,%esp
  102fc7:	83 ec 0c             	sub    $0xc,%esp
  102fca:	ff 75 08             	pushl  0x8(%ebp)
  102fcd:	e8 b2 fe ff ff       	call   102e84 <waitRecieveFloppy>
  102fd2:	83 c4 10             	add    $0x10,%esp
  102fd5:	8b 45 08             	mov    0x8(%ebp),%eax
  102fd8:	83 c0 05             	add    $0x5,%eax
  102fdb:	83 ec 0c             	sub    $0xc,%esp
  102fde:	50                   	push   %eax
  102fdf:	e8 06 d1 ff ff       	call   1000ea <inportb>
  102fe4:	83 c4 10             	add    $0x10,%esp
  102fe7:	89 c2                	mov    %eax,%edx
  102fe9:	8b 45 0c             	mov    0xc(%ebp),%eax
  102fec:	89 10                	mov    %edx,(%eax)
  102fee:	83 ec 0c             	sub    $0xc,%esp
  102ff1:	ff 75 08             	pushl  0x8(%ebp)
  102ff4:	e8 8b fe ff ff       	call   102e84 <waitRecieveFloppy>
  102ff9:	83 c4 10             	add    $0x10,%esp
  102ffc:	8b 45 08             	mov    0x8(%ebp),%eax
  102fff:	83 c0 05             	add    $0x5,%eax
  103002:	83 ec 0c             	sub    $0xc,%esp
  103005:	50                   	push   %eax
  103006:	e8 df d0 ff ff       	call   1000ea <inportb>
  10300b:	83 c4 10             	add    $0x10,%esp
  10300e:	89 c2                	mov    %eax,%edx
  103010:	8b 45 10             	mov    0x10(%ebp),%eax
  103013:	89 10                	mov    %edx,(%eax)
  103015:	c9                   	leave  
  103016:	c3                   	ret    

00103017 <configure_drive>:
  103017:	55                   	push   %ebp
  103018:	89 e5                	mov    %esp,%ebp
  10301a:	83 ec 08             	sub    $0x8,%esp
  10301d:	83 ec 08             	sub    $0x8,%esp
  103020:	6a 03                	push   $0x3
  103022:	ff 75 08             	pushl  0x8(%ebp)
  103025:	e8 d5 fe ff ff       	call   102eff <sendFloppyCommand>
  10302a:	83 c4 10             	add    $0x10,%esp
  10302d:	a0 50 d8 10 00       	mov    0x10d850,%al
  103032:	0f b6 c0             	movzbl %al,%eax
  103035:	83 ec 08             	sub    $0x8,%esp
  103038:	50                   	push   %eax
  103039:	ff 75 08             	pushl  0x8(%ebp)
  10303c:	e8 be fe ff ff       	call   102eff <sendFloppyCommand>
  103041:	83 c4 10             	add    $0x10,%esp
  103044:	a0 51 d8 10 00       	mov    0x10d851,%al
  103049:	0f b6 c0             	movzbl %al,%eax
  10304c:	83 ec 08             	sub    $0x8,%esp
  10304f:	50                   	push   %eax
  103050:	ff 75 08             	pushl  0x8(%ebp)
  103053:	e8 a7 fe ff ff       	call   102eff <sendFloppyCommand>
  103058:	83 c4 10             	add    $0x10,%esp
  10305b:	c9                   	leave  
  10305c:	c3                   	ret    

0010305d <calibrate_drive>:
  10305d:	55                   	push   %ebp
  10305e:	89 e5                	mov    %esp,%ebp
  103060:	83 ec 18             	sub    $0x18,%esp
  103063:	8b 45 0c             	mov    0xc(%ebp),%eax
  103066:	88 45 ec             	mov    %al,-0x14(%ebp)
  103069:	0f be 4d ec          	movsbl -0x14(%ebp),%ecx
  10306d:	b8 10 00 00 00       	mov    $0x10,%eax
  103072:	d3 e0                	shl    %cl,%eax
  103074:	89 45 fc             	mov    %eax,-0x4(%ebp)
  103077:	0f be 45 ec          	movsbl -0x14(%ebp),%eax
  10307b:	03 45 fc             	add    -0x4(%ebp),%eax
  10307e:	83 c0 0c             	add    $0xc,%eax
  103081:	89 45 fc             	mov    %eax,-0x4(%ebp)
  103084:	8b 45 08             	mov    0x8(%ebp),%eax
  103087:	83 c0 02             	add    $0x2,%eax
  10308a:	83 ec 08             	sub    $0x8,%esp
  10308d:	50                   	push   %eax
  10308e:	ff 75 fc             	pushl  -0x4(%ebp)
  103091:	e8 5c d0 ff ff       	call   1000f2 <outportb>
  103096:	83 c4 10             	add    $0x10,%esp
  103099:	83 ec 0c             	sub    $0xc,%esp
  10309c:	68 18 86 10 00       	push   $0x108618
  1030a1:	e8 7a e3 ff ff       	call   101420 <display>
  1030a6:	83 c4 10             	add    $0x10,%esp
  1030a9:	83 ec 08             	sub    $0x8,%esp
  1030ac:	6a 07                	push   $0x7
  1030ae:	ff 75 08             	pushl  0x8(%ebp)
  1030b1:	e8 49 fe ff ff       	call   102eff <sendFloppyCommand>
  1030b6:	83 c4 10             	add    $0x10,%esp
  1030b9:	8a 45 ec             	mov    -0x14(%ebp),%al
  1030bc:	0f b6 c0             	movzbl %al,%eax
  1030bf:	83 ec 08             	sub    $0x8,%esp
  1030c2:	50                   	push   %eax
  1030c3:	ff 75 08             	pushl  0x8(%ebp)
  1030c6:	e8 34 fe ff ff       	call   102eff <sendFloppyCommand>
  1030cb:	83 c4 10             	add    $0x10,%esp
  1030ce:	e8 b1 d5 ff ff       	call   100684 <WaitFloppyInt>
  1030d3:	83 f8 ff             	cmp    $0xffffffff,%eax
  1030d6:	75 0a                	jne    1030e2 <calibrate_drive+0x85>
  1030d8:	b8 ff ff ff ff       	mov    $0xffffffff,%eax
  1030dd:	89 45 e8             	mov    %eax,-0x18(%ebp)
  1030e0:	eb 6a                	jmp    10314c <calibrate_drive+0xef>
  1030e2:	83 ec 04             	sub    $0x4,%esp
  1030e5:	8d 45 f4             	lea    -0xc(%ebp),%eax
  1030e8:	50                   	push   %eax
  1030e9:	8d 45 f8             	lea    -0x8(%ebp),%eax
  1030ec:	50                   	push   %eax
  1030ed:	ff 75 08             	pushl  0x8(%ebp)
  1030f0:	e8 bc fe ff ff       	call   102fb1 <check_floppy_status>
  1030f5:	83 c4 10             	add    $0x10,%esp
  1030f8:	8b 45 f8             	mov    -0x8(%ebp),%eax
  1030fb:	83 f8 20             	cmp    $0x20,%eax
  1030fe:	74 1f                	je     10311f <calibrate_drive+0xc2>
  103100:	83 ec 0c             	sub    $0xc,%esp
  103103:	68 3c 86 10 00       	push   $0x10863c
  103108:	e8 13 e3 ff ff       	call   101420 <display>
  10310d:	83 c4 10             	add    $0x10,%esp
  103110:	8b 45 f8             	mov    -0x8(%ebp),%eax
  103113:	83 ec 0c             	sub    $0xc,%esp
  103116:	50                   	push   %eax
  103117:	e8 54 e3 ff ff       	call   101470 <PrintNumber>
  10311c:	83 c4 10             	add    $0x10,%esp
  10311f:	83 ec 0c             	sub    $0xc,%esp
  103122:	68 5c 86 10 00       	push   $0x10865c
  103127:	e8 f4 e2 ff ff       	call   101420 <display>
  10312c:	83 c4 10             	add    $0x10,%esp
  10312f:	8b 45 f4             	mov    -0xc(%ebp),%eax
  103132:	85 c0                	test   %eax,%eax
  103134:	0f 85 6f ff ff ff    	jne    1030a9 <calibrate_drive+0x4c>
  10313a:	83 ec 0c             	sub    $0xc,%esp
  10313d:	68 80 86 10 00       	push   $0x108680
  103142:	e8 d9 e2 ff ff       	call   101420 <display>
  103147:	83 c4 10             	add    $0x10,%esp
  10314a:	eb 03                	jmp    10314f <calibrate_drive+0xf2>
  10314c:	8b 45 e8             	mov    -0x18(%ebp),%eax
  10314f:	c9                   	leave  
  103150:	c3                   	ret    

00103151 <seek_to_cylinder>:
  103151:	55                   	push   %ebp
  103152:	89 e5                	mov    %esp,%ebp
  103154:	83 ec 18             	sub    $0x18,%esp
  103157:	8b 45 14             	mov    0x14(%ebp),%eax
  10315a:	88 45 ec             	mov    %al,-0x14(%ebp)
  10315d:	83 ec 08             	sub    $0x8,%esp
  103160:	6a 0f                	push   $0xf
  103162:	ff 75 10             	pushl  0x10(%ebp)
  103165:	e8 95 fd ff ff       	call   102eff <sendFloppyCommand>
  10316a:	83 c4 10             	add    $0x10,%esp
  10316d:	8b 45 0c             	mov    0xc(%ebp),%eax
  103170:	c1 e0 02             	shl    $0x2,%eax
  103173:	0b 45 ec             	or     -0x14(%ebp),%eax
  103176:	0f b6 c0             	movzbl %al,%eax
  103179:	83 ec 08             	sub    $0x8,%esp
  10317c:	50                   	push   %eax
  10317d:	ff 75 10             	pushl  0x10(%ebp)
  103180:	e8 7a fd ff ff       	call   102eff <sendFloppyCommand>
  103185:	83 c4 10             	add    $0x10,%esp
  103188:	8b 45 08             	mov    0x8(%ebp),%eax
  10318b:	0f b6 c0             	movzbl %al,%eax
  10318e:	83 ec 08             	sub    $0x8,%esp
  103191:	50                   	push   %eax
  103192:	ff 75 10             	pushl  0x10(%ebp)
  103195:	e8 65 fd ff ff       	call   102eff <sendFloppyCommand>
  10319a:	83 c4 10             	add    $0x10,%esp
  10319d:	e8 e2 d4 ff ff       	call   100684 <WaitFloppyInt>
  1031a2:	83 f8 ff             	cmp    $0xffffffff,%eax
  1031a5:	75 0a                	jne    1031b1 <seek_to_cylinder+0x60>
  1031a7:	b8 ff ff ff ff       	mov    $0xffffffff,%eax
  1031ac:	89 45 e8             	mov    %eax,-0x18(%ebp)
  1031af:	eb 20                	jmp    1031d1 <seek_to_cylinder+0x80>
  1031b1:	83 ec 04             	sub    $0x4,%esp
  1031b4:	8d 45 f8             	lea    -0x8(%ebp),%eax
  1031b7:	50                   	push   %eax
  1031b8:	8d 45 fc             	lea    -0x4(%ebp),%eax
  1031bb:	50                   	push   %eax
  1031bc:	ff 75 10             	pushl  0x10(%ebp)
  1031bf:	e8 ed fd ff ff       	call   102fb1 <check_floppy_status>
  1031c4:	83 c4 10             	add    $0x10,%esp
  1031c7:	8b 45 f8             	mov    -0x8(%ebp),%eax
  1031ca:	3b 45 08             	cmp    0x8(%ebp),%eax
  1031cd:	75 8e                	jne    10315d <seek_to_cylinder+0xc>
  1031cf:	eb 03                	jmp    1031d4 <seek_to_cylinder+0x83>
  1031d1:	8b 45 e8             	mov    -0x18(%ebp),%eax
  1031d4:	c9                   	leave  
  1031d5:	c3                   	ret    

001031d6 <reset_floppy>:
  1031d6:	55                   	push   %ebp
  1031d7:	89 e5                	mov    %esp,%ebp
  1031d9:	83 ec 28             	sub    $0x28,%esp
  1031dc:	8b 45 0c             	mov    0xc(%ebp),%eax
  1031df:	88 45 ec             	mov    %al,-0x14(%ebp)
  1031e2:	8b 45 08             	mov    0x8(%ebp),%eax
  1031e5:	83 c0 02             	add    $0x2,%eax
  1031e8:	83 ec 08             	sub    $0x8,%esp
  1031eb:	50                   	push   %eax
  1031ec:	6a 00                	push   $0x0
  1031ee:	e8 ff ce ff ff       	call   1000f2 <outportb>
  1031f3:	83 c4 10             	add    $0x10,%esp
  1031f6:	83 ec 0c             	sub    $0xc,%esp
  1031f9:	6a 64                	push   $0x64
  1031fb:	e8 0a d3 ff ff       	call   10050a <Delay>
  103200:	83 c4 10             	add    $0x10,%esp
  103203:	8b 45 08             	mov    0x8(%ebp),%eax
  103206:	83 c0 02             	add    $0x2,%eax
  103209:	83 ec 08             	sub    $0x8,%esp
  10320c:	50                   	push   %eax
  10320d:	6a 0c                	push   $0xc
  10320f:	e8 de ce ff ff       	call   1000f2 <outportb>
  103214:	83 c4 10             	add    $0x10,%esp
  103217:	e8 68 d4 ff ff       	call   100684 <WaitFloppyInt>
  10321c:	83 f8 ff             	cmp    $0xffffffff,%eax
  10321f:	75 0c                	jne    10322d <reset_floppy+0x57>
  103221:	c7 45 e8 ff ff ff ff 	movl   $0xffffffff,-0x18(%ebp)
  103228:	e9 9d 00 00 00       	jmp    1032ca <reset_floppy+0xf4>
  10322d:	83 ec 04             	sub    $0x4,%esp
  103230:	8d 45 f8             	lea    -0x8(%ebp),%eax
  103233:	50                   	push   %eax
  103234:	8d 45 fc             	lea    -0x4(%ebp),%eax
  103237:	50                   	push   %eax
  103238:	ff 75 08             	pushl  0x8(%ebp)
  10323b:	e8 71 fd ff ff       	call   102fb1 <check_floppy_status>
  103240:	83 c4 10             	add    $0x10,%esp
  103243:	83 ec 04             	sub    $0x4,%esp
  103246:	8d 45 f8             	lea    -0x8(%ebp),%eax
  103249:	50                   	push   %eax
  10324a:	8d 45 fc             	lea    -0x4(%ebp),%eax
  10324d:	50                   	push   %eax
  10324e:	ff 75 08             	pushl  0x8(%ebp)
  103251:	e8 5b fd ff ff       	call   102fb1 <check_floppy_status>
  103256:	83 c4 10             	add    $0x10,%esp
  103259:	83 ec 04             	sub    $0x4,%esp
  10325c:	8d 45 f8             	lea    -0x8(%ebp),%eax
  10325f:	50                   	push   %eax
  103260:	8d 45 fc             	lea    -0x4(%ebp),%eax
  103263:	50                   	push   %eax
  103264:	ff 75 08             	pushl  0x8(%ebp)
  103267:	e8 45 fd ff ff       	call   102fb1 <check_floppy_status>
  10326c:	83 c4 10             	add    $0x10,%esp
  10326f:	83 ec 04             	sub    $0x4,%esp
  103272:	8d 45 f8             	lea    -0x8(%ebp),%eax
  103275:	50                   	push   %eax
  103276:	8d 45 fc             	lea    -0x4(%ebp),%eax
  103279:	50                   	push   %eax
  10327a:	ff 75 08             	pushl  0x8(%ebp)
  10327d:	e8 2f fd ff ff       	call   102fb1 <check_floppy_status>
  103282:	83 c4 10             	add    $0x10,%esp
  103285:	8b 45 08             	mov    0x8(%ebp),%eax
  103288:	83 c0 07             	add    $0x7,%eax
  10328b:	83 ec 08             	sub    $0x8,%esp
  10328e:	50                   	push   %eax
  10328f:	6a 00                	push   $0x0
  103291:	e8 5c ce ff ff       	call   1000f2 <outportb>
  103296:	83 c4 10             	add    $0x10,%esp
  103299:	83 ec 0c             	sub    $0xc,%esp
  10329c:	ff 75 08             	pushl  0x8(%ebp)
  10329f:	e8 73 fd ff ff       	call   103017 <configure_drive>
  1032a4:	83 c4 10             	add    $0x10,%esp
  1032a7:	0f be 45 ec          	movsbl -0x14(%ebp),%eax
  1032ab:	83 ec 08             	sub    $0x8,%esp
  1032ae:	50                   	push   %eax
  1032af:	ff 75 08             	pushl  0x8(%ebp)
  1032b2:	e8 a6 fd ff ff       	call   10305d <calibrate_drive>
  1032b7:	83 c4 10             	add    $0x10,%esp
  1032ba:	83 f8 ff             	cmp    $0xffffffff,%eax
  1032bd:	75 09                	jne    1032c8 <reset_floppy+0xf2>
  1032bf:	c7 45 e8 ff ff ff ff 	movl   $0xffffffff,-0x18(%ebp)
  1032c6:	eb 02                	jmp    1032ca <reset_floppy+0xf4>
  1032c8:	eb 06                	jmp    1032d0 <reset_floppy+0xfa>
  1032ca:	8b 45 e8             	mov    -0x18(%ebp),%eax
  1032cd:	89 45 e4             	mov    %eax,-0x1c(%ebp)
  1032d0:	8b 45 e4             	mov    -0x1c(%ebp),%eax
  1032d3:	c9                   	leave  
  1032d4:	c3                   	ret    

001032d5 <getResults>:
  1032d5:	55                   	push   %ebp
  1032d6:	89 e5                	mov    %esp,%ebp
  1032d8:	83 ec 08             	sub    $0x8,%esp
  1032db:	83 ec 0c             	sub    $0xc,%esp
  1032de:	ff 75 24             	pushl  0x24(%ebp)
  1032e1:	e8 9e fb ff ff       	call   102e84 <waitRecieveFloppy>
  1032e6:	83 c4 10             	add    $0x10,%esp
  1032e9:	8b 45 24             	mov    0x24(%ebp),%eax
  1032ec:	83 c0 05             	add    $0x5,%eax
  1032ef:	83 ec 0c             	sub    $0xc,%esp
  1032f2:	50                   	push   %eax
  1032f3:	e8 f2 cd ff ff       	call   1000ea <inportb>
  1032f8:	83 c4 10             	add    $0x10,%esp
  1032fb:	89 c2                	mov    %eax,%edx
  1032fd:	8b 45 08             	mov    0x8(%ebp),%eax
  103300:	89 10                	mov    %edx,(%eax)
  103302:	83 ec 0c             	sub    $0xc,%esp
  103305:	ff 75 24             	pushl  0x24(%ebp)
  103308:	e8 77 fb ff ff       	call   102e84 <waitRecieveFloppy>
  10330d:	83 c4 10             	add    $0x10,%esp
  103310:	8b 45 24             	mov    0x24(%ebp),%eax
  103313:	83 c0 05             	add    $0x5,%eax
  103316:	83 ec 0c             	sub    $0xc,%esp
  103319:	50                   	push   %eax
  10331a:	e8 cb cd ff ff       	call   1000ea <inportb>
  10331f:	83 c4 10             	add    $0x10,%esp
  103322:	89 c2                	mov    %eax,%edx
  103324:	8b 45 0c             	mov    0xc(%ebp),%eax
  103327:	89 10                	mov    %edx,(%eax)
  103329:	83 ec 0c             	sub    $0xc,%esp
  10332c:	ff 75 24             	pushl  0x24(%ebp)
  10332f:	e8 50 fb ff ff       	call   102e84 <waitRecieveFloppy>
  103334:	83 c4 10             	add    $0x10,%esp
  103337:	8b 45 24             	mov    0x24(%ebp),%eax
  10333a:	83 c0 05             	add    $0x5,%eax
  10333d:	83 ec 0c             	sub    $0xc,%esp
  103340:	50                   	push   %eax
  103341:	e8 a4 cd ff ff       	call   1000ea <inportb>
  103346:	83 c4 10             	add    $0x10,%esp
  103349:	89 c2                	mov    %eax,%edx
  10334b:	8b 45 10             	mov    0x10(%ebp),%eax
  10334e:	89 10                	mov    %edx,(%eax)
  103350:	83 ec 0c             	sub    $0xc,%esp
  103353:	ff 75 24             	pushl  0x24(%ebp)
  103356:	e8 29 fb ff ff       	call   102e84 <waitRecieveFloppy>
  10335b:	83 c4 10             	add    $0x10,%esp
  10335e:	8b 45 24             	mov    0x24(%ebp),%eax
  103361:	83 c0 05             	add    $0x5,%eax
  103364:	83 ec 0c             	sub    $0xc,%esp
  103367:	50                   	push   %eax
  103368:	e8 7d cd ff ff       	call   1000ea <inportb>
  10336d:	83 c4 10             	add    $0x10,%esp
  103370:	89 c2                	mov    %eax,%edx
  103372:	8b 45 14             	mov    0x14(%ebp),%eax
  103375:	89 10                	mov    %edx,(%eax)
  103377:	83 ec 0c             	sub    $0xc,%esp
  10337a:	ff 75 24             	pushl  0x24(%ebp)
  10337d:	e8 02 fb ff ff       	call   102e84 <waitRecieveFloppy>
  103382:	83 c4 10             	add    $0x10,%esp
  103385:	8b 45 24             	mov    0x24(%ebp),%eax
  103388:	83 c0 05             	add    $0x5,%eax
  10338b:	83 ec 0c             	sub    $0xc,%esp
  10338e:	50                   	push   %eax
  10338f:	e8 56 cd ff ff       	call   1000ea <inportb>
  103394:	83 c4 10             	add    $0x10,%esp
  103397:	89 c2                	mov    %eax,%edx
  103399:	8b 45 18             	mov    0x18(%ebp),%eax
  10339c:	89 10                	mov    %edx,(%eax)
  10339e:	83 ec 0c             	sub    $0xc,%esp
  1033a1:	ff 75 24             	pushl  0x24(%ebp)
  1033a4:	e8 db fa ff ff       	call   102e84 <waitRecieveFloppy>
  1033a9:	83 c4 10             	add    $0x10,%esp
  1033ac:	8b 45 24             	mov    0x24(%ebp),%eax
  1033af:	83 c0 05             	add    $0x5,%eax
  1033b2:	83 ec 0c             	sub    $0xc,%esp
  1033b5:	50                   	push   %eax
  1033b6:	e8 2f cd ff ff       	call   1000ea <inportb>
  1033bb:	83 c4 10             	add    $0x10,%esp
  1033be:	89 c2                	mov    %eax,%edx
  1033c0:	8b 45 1c             	mov    0x1c(%ebp),%eax
  1033c3:	89 10                	mov    %edx,(%eax)
  1033c5:	83 ec 0c             	sub    $0xc,%esp
  1033c8:	ff 75 24             	pushl  0x24(%ebp)
  1033cb:	e8 b4 fa ff ff       	call   102e84 <waitRecieveFloppy>
  1033d0:	83 c4 10             	add    $0x10,%esp
  1033d3:	8b 45 24             	mov    0x24(%ebp),%eax
  1033d6:	83 c0 05             	add    $0x5,%eax
  1033d9:	83 ec 0c             	sub    $0xc,%esp
  1033dc:	50                   	push   %eax
  1033dd:	e8 08 cd ff ff       	call   1000ea <inportb>
  1033e2:	83 c4 10             	add    $0x10,%esp
  1033e5:	89 c2                	mov    %eax,%edx
  1033e7:	8b 45 20             	mov    0x20(%ebp),%eax
  1033ea:	89 10                	mov    %edx,(%eax)
  1033ec:	c9                   	leave  
  1033ed:	c3                   	ret    

001033ee <read_track>:
  1033ee:	55                   	push   %ebp
  1033ef:	89 e5                	mov    %esp,%ebp
  1033f1:	83 ec 48             	sub    $0x48,%esp
  1033f4:	8b 45 0c             	mov    0xc(%ebp),%eax
  1033f7:	88 45 bc             	mov    %al,-0x44(%ebp)
  1033fa:	c7 45 e8 01 00 00 00 	movl   $0x1,-0x18(%ebp)
  103401:	c7 45 ec 00 00 00 00 	movl   $0x0,-0x14(%ebp)
  103408:	a0 54 d8 10 00       	mov    0x10d854,%al
  10340d:	0f b6 d0             	movzbl %al,%edx
  103410:	8b 45 08             	mov    0x8(%ebp),%eax
  103413:	89 d1                	mov    %edx,%ecx
  103415:	ba 00 00 00 00       	mov    $0x0,%edx
  10341a:	f7 f1                	div    %ecx
  10341c:	89 d0                	mov    %edx,%eax
  10341e:	40                   	inc    %eax
  10341f:	89 45 fc             	mov    %eax,-0x4(%ebp)
  103422:	a0 54 d8 10 00       	mov    0x10d854,%al
  103427:	0f b6 d0             	movzbl %al,%edx
  10342a:	8b 45 08             	mov    0x8(%ebp),%eax
  10342d:	89 d1                	mov    %edx,%ecx
  10342f:	ba 00 00 00 00       	mov    $0x0,%edx
  103434:	f7 f1                	div    %ecx
  103436:	d1 e8                	shr    %eax
  103438:	89 45 f4             	mov    %eax,-0xc(%ebp)
  10343b:	a0 54 d8 10 00       	mov    0x10d854,%al
  103440:	0f b6 d0             	movzbl %al,%edx
  103443:	8b 45 08             	mov    0x8(%ebp),%eax
  103446:	89 d1                	mov    %edx,%ecx
  103448:	ba 00 00 00 00       	mov    $0x0,%edx
  10344d:	f7 f1                	div    %ecx
  10344f:	83 e0 01             	and    $0x1,%eax
  103452:	89 45 f8             	mov    %eax,-0x8(%ebp)
  103455:	c7 45 ec 00 00 00 00 	movl   $0x0,-0x14(%ebp)
  10345c:	eb 06                	jmp    103464 <read_track+0x76>
  10345e:	d1 65 e8             	shll   -0x18(%ebp)
  103461:	ff 45 ec             	incl   -0x14(%ebp)
  103464:	a0 53 d8 10 00       	mov    0x10d853,%al
  103469:	0f b6 c0             	movzbl %al,%eax
  10346c:	3b 45 ec             	cmp    -0x14(%ebp),%eax
  10346f:	77 ed                	ja     10345e <read_track+0x70>
  103471:	c1 65 e8 07          	shll   $0x7,-0x18(%ebp)
  103475:	a0 54 d8 10 00       	mov    0x10d854,%al
  10347a:	0f b6 d0             	movzbl %al,%edx
  10347d:	8b 45 e8             	mov    -0x18(%ebp),%eax
  103480:	0f af c2             	imul   %edx,%eax
  103483:	89 45 e8             	mov    %eax,-0x18(%ebp)
  103486:	0f b6 4d bc          	movzbl -0x44(%ebp),%ecx
  10348a:	b8 10 00 00 00       	mov    $0x10,%eax
  10348f:	d3 e0                	shl    %cl,%eax
  103491:	89 45 f0             	mov    %eax,-0x10(%ebp)
  103494:	0f b6 45 bc          	movzbl -0x44(%ebp),%eax
  103498:	03 45 f0             	add    -0x10(%ebp),%eax
  10349b:	83 c0 0c             	add    $0xc,%eax
  10349e:	89 45 f0             	mov    %eax,-0x10(%ebp)
  1034a1:	83 ec 08             	sub    $0x8,%esp
  1034a4:	6a 02                	push   $0x2
  1034a6:	ff 75 f0             	pushl  -0x10(%ebp)
  1034a9:	e8 44 cc ff ff       	call   1000f2 <outportb>
  1034ae:	83 c4 10             	add    $0x10,%esp
  1034b1:	8b 45 e8             	mov    -0x18(%ebp),%eax
  1034b4:	48                   	dec    %eax
  1034b5:	6a 45                	push   $0x45
  1034b7:	6a 02                	push   $0x2
  1034b9:	50                   	push   %eax
  1034ba:	ff 75 10             	pushl  0x10(%ebp)
  1034bd:	e8 52 04 00 00       	call   103914 <startDMA>
  1034c2:	83 c4 10             	add    $0x10,%esp
  1034c5:	0f b6 45 bc          	movzbl -0x44(%ebp),%eax
  1034c9:	50                   	push   %eax
  1034ca:	ff 75 14             	pushl  0x14(%ebp)
  1034cd:	ff 75 f8             	pushl  -0x8(%ebp)
  1034d0:	ff 75 f4             	pushl  -0xc(%ebp)
  1034d3:	e8 79 fc ff ff       	call   103151 <seek_to_cylinder>
  1034d8:	83 c4 10             	add    $0x10,%esp
  1034db:	a0 59 d8 10 00       	mov    0x10d859,%al
  1034e0:	0f b6 c0             	movzbl %al,%eax
  1034e3:	83 ec 0c             	sub    $0xc,%esp
  1034e6:	50                   	push   %eax
  1034e7:	e8 1e d0 ff ff       	call   10050a <Delay>
  1034ec:	83 c4 10             	add    $0x10,%esp
  1034ef:	83 ec 08             	sub    $0x8,%esp
  1034f2:	6a 42                	push   $0x42
  1034f4:	ff 75 14             	pushl  0x14(%ebp)
  1034f7:	e8 03 fa ff ff       	call   102eff <sendFloppyCommand>
  1034fc:	83 c4 10             	add    $0x10,%esp
  1034ff:	8b 45 f8             	mov    -0x8(%ebp),%eax
  103502:	c1 e0 02             	shl    $0x2,%eax
  103505:	0b 45 bc             	or     -0x44(%ebp),%eax
  103508:	0f b6 c0             	movzbl %al,%eax
  10350b:	83 ec 08             	sub    $0x8,%esp
  10350e:	50                   	push   %eax
  10350f:	ff 75 14             	pushl  0x14(%ebp)
  103512:	e8 e8 f9 ff ff       	call   102eff <sendFloppyCommand>
  103517:	83 c4 10             	add    $0x10,%esp
  10351a:	8b 45 f4             	mov    -0xc(%ebp),%eax
  10351d:	0f b6 c0             	movzbl %al,%eax
  103520:	83 ec 08             	sub    $0x8,%esp
  103523:	50                   	push   %eax
  103524:	ff 75 14             	pushl  0x14(%ebp)
  103527:	e8 d3 f9 ff ff       	call   102eff <sendFloppyCommand>
  10352c:	83 c4 10             	add    $0x10,%esp
  10352f:	8b 45 f8             	mov    -0x8(%ebp),%eax
  103532:	0f b6 c0             	movzbl %al,%eax
  103535:	83 ec 08             	sub    $0x8,%esp
  103538:	50                   	push   %eax
  103539:	ff 75 14             	pushl  0x14(%ebp)
  10353c:	e8 be f9 ff ff       	call   102eff <sendFloppyCommand>
  103541:	83 c4 10             	add    $0x10,%esp
  103544:	8b 45 fc             	mov    -0x4(%ebp),%eax
  103547:	0f b6 c0             	movzbl %al,%eax
  10354a:	83 ec 08             	sub    $0x8,%esp
  10354d:	50                   	push   %eax
  10354e:	ff 75 14             	pushl  0x14(%ebp)
  103551:	e8 a9 f9 ff ff       	call   102eff <sendFloppyCommand>
  103556:	83 c4 10             	add    $0x10,%esp
  103559:	a0 53 d8 10 00       	mov    0x10d853,%al
  10355e:	0f b6 c0             	movzbl %al,%eax
  103561:	83 ec 08             	sub    $0x8,%esp
  103564:	50                   	push   %eax
  103565:	ff 75 14             	pushl  0x14(%ebp)
  103568:	e8 92 f9 ff ff       	call   102eff <sendFloppyCommand>
  10356d:	83 c4 10             	add    $0x10,%esp
  103570:	a0 54 d8 10 00       	mov    0x10d854,%al
  103575:	0f b6 c0             	movzbl %al,%eax
  103578:	83 ec 08             	sub    $0x8,%esp
  10357b:	50                   	push   %eax
  10357c:	ff 75 14             	pushl  0x14(%ebp)
  10357f:	e8 7b f9 ff ff       	call   102eff <sendFloppyCommand>
  103584:	83 c4 10             	add    $0x10,%esp
  103587:	a0 55 d8 10 00       	mov    0x10d855,%al
  10358c:	0f b6 c0             	movzbl %al,%eax
  10358f:	83 ec 08             	sub    $0x8,%esp
  103592:	50                   	push   %eax
  103593:	ff 75 14             	pushl  0x14(%ebp)
  103596:	e8 64 f9 ff ff       	call   102eff <sendFloppyCommand>
  10359b:	83 c4 10             	add    $0x10,%esp
  10359e:	a0 56 d8 10 00       	mov    0x10d856,%al
  1035a3:	0f b6 c0             	movzbl %al,%eax
  1035a6:	83 ec 08             	sub    $0x8,%esp
  1035a9:	50                   	push   %eax
  1035aa:	ff 75 14             	pushl  0x14(%ebp)
  1035ad:	e8 4d f9 ff ff       	call   102eff <sendFloppyCommand>
  1035b2:	83 c4 10             	add    $0x10,%esp
  1035b5:	e8 ca d0 ff ff       	call   100684 <WaitFloppyInt>
  1035ba:	83 f8 ff             	cmp    $0xffffffff,%eax
  1035bd:	75 0a                	jne    1035c9 <read_track+0x1db>
  1035bf:	b8 ff ff ff ff       	mov    $0xffffffff,%eax
  1035c4:	89 45 b8             	mov    %eax,-0x48(%ebp)
  1035c7:	eb 29                	jmp    1035f2 <read_track+0x204>
  1035c9:	ff 75 14             	pushl  0x14(%ebp)
  1035cc:	8d 45 cc             	lea    -0x34(%ebp),%eax
  1035cf:	50                   	push   %eax
  1035d0:	8d 45 d0             	lea    -0x30(%ebp),%eax
  1035d3:	50                   	push   %eax
  1035d4:	8d 45 d4             	lea    -0x2c(%ebp),%eax
  1035d7:	50                   	push   %eax
  1035d8:	8d 45 d8             	lea    -0x28(%ebp),%eax
  1035db:	50                   	push   %eax
  1035dc:	8d 45 dc             	lea    -0x24(%ebp),%eax
  1035df:	50                   	push   %eax
  1035e0:	8d 45 e0             	lea    -0x20(%ebp),%eax
  1035e3:	50                   	push   %eax
  1035e4:	8d 45 e4             	lea    -0x1c(%ebp),%eax
  1035e7:	50                   	push   %eax
  1035e8:	e8 e8 fc ff ff       	call   1032d5 <getResults>
  1035ed:	83 c4 20             	add    $0x20,%esp
  1035f0:	eb 03                	jmp    1035f5 <read_track+0x207>
  1035f2:	8b 45 b8             	mov    -0x48(%ebp),%eax
  1035f5:	c9                   	leave  
  1035f6:	c3                   	ret    

001035f7 <floppy_read_sector>:
  1035f7:	55                   	push   %ebp
  1035f8:	89 e5                	mov    %esp,%ebp
  1035fa:	83 ec 58             	sub    $0x58,%esp
  1035fd:	8b 45 0c             	mov    0xc(%ebp),%eax
  103600:	88 45 bc             	mov    %al,-0x44(%ebp)
  103603:	c7 45 e8 01 00 00 00 	movl   $0x1,-0x18(%ebp)
  10360a:	c7 45 ec 00 00 00 00 	movl   $0x0,-0x14(%ebp)
  103611:	a0 54 d8 10 00       	mov    0x10d854,%al
  103616:	0f b6 d0             	movzbl %al,%edx
  103619:	8b 45 08             	mov    0x8(%ebp),%eax
  10361c:	89 d1                	mov    %edx,%ecx
  10361e:	ba 00 00 00 00       	mov    $0x0,%edx
  103623:	f7 f1                	div    %ecx
  103625:	89 d0                	mov    %edx,%eax
  103627:	40                   	inc    %eax
  103628:	89 45 fc             	mov    %eax,-0x4(%ebp)
  10362b:	a0 54 d8 10 00       	mov    0x10d854,%al
  103630:	0f b6 d0             	movzbl %al,%edx
  103633:	8b 45 08             	mov    0x8(%ebp),%eax
  103636:	89 d1                	mov    %edx,%ecx
  103638:	ba 00 00 00 00       	mov    $0x0,%edx
  10363d:	f7 f1                	div    %ecx
  10363f:	d1 e8                	shr    %eax
  103641:	89 45 f4             	mov    %eax,-0xc(%ebp)
  103644:	a0 54 d8 10 00       	mov    0x10d854,%al
  103649:	0f b6 d0             	movzbl %al,%edx
  10364c:	8b 45 08             	mov    0x8(%ebp),%eax
  10364f:	89 d1                	mov    %edx,%ecx
  103651:	ba 00 00 00 00       	mov    $0x0,%edx
  103656:	f7 f1                	div    %ecx
  103658:	83 e0 01             	and    $0x1,%eax
  10365b:	89 45 f8             	mov    %eax,-0x8(%ebp)
  10365e:	c7 45 ec 00 00 00 00 	movl   $0x0,-0x14(%ebp)
  103665:	eb 06                	jmp    10366d <floppy_read_sector+0x76>
  103667:	d1 65 e8             	shll   -0x18(%ebp)
  10366a:	ff 45 ec             	incl   -0x14(%ebp)
  10366d:	a0 53 d8 10 00       	mov    0x10d853,%al
  103672:	0f b6 c0             	movzbl %al,%eax
  103675:	3b 45 ec             	cmp    -0x14(%ebp),%eax
  103678:	77 ed                	ja     103667 <floppy_read_sector+0x70>
  10367a:	c1 65 e8 07          	shll   $0x7,-0x18(%ebp)
  10367e:	83 ec 0c             	sub    $0xc,%esp
  103681:	68 a8 86 10 00       	push   $0x1086a8
  103686:	e8 95 dd ff ff       	call   101420 <display>
  10368b:	83 c4 10             	add    $0x10,%esp
  10368e:	8a 45 bc             	mov    -0x44(%ebp),%al
  103691:	0f be c0             	movsbl %al,%eax
  103694:	83 ec 08             	sub    $0x8,%esp
  103697:	50                   	push   %eax
  103698:	ff 75 14             	pushl  0x14(%ebp)
  10369b:	e8 36 fb ff ff       	call   1031d6 <reset_floppy>
  1036a0:	83 c4 10             	add    $0x10,%esp
  1036a3:	83 f8 ff             	cmp    $0xffffffff,%eax
  1036a6:	75 0c                	jne    1036b4 <floppy_read_sector+0xbd>
  1036a8:	c7 45 b8 ff ff ff ff 	movl   $0xffffffff,-0x48(%ebp)
  1036af:	e9 a0 01 00 00       	jmp    103854 <floppy_read_sector+0x25d>
  1036b4:	8b 45 e8             	mov    -0x18(%ebp),%eax
  1036b7:	48                   	dec    %eax
  1036b8:	8b 15 4c d8 10 00    	mov    0x10d84c,%edx
  1036be:	6a 45                	push   $0x45
  1036c0:	6a 02                	push   $0x2
  1036c2:	50                   	push   %eax
  1036c3:	52                   	push   %edx
  1036c4:	e8 4b 02 00 00       	call   103914 <startDMA>
  1036c9:	83 c4 10             	add    $0x10,%esp
  1036cc:	0f b6 45 bc          	movzbl -0x44(%ebp),%eax
  1036d0:	50                   	push   %eax
  1036d1:	ff 75 14             	pushl  0x14(%ebp)
  1036d4:	ff 75 f8             	pushl  -0x8(%ebp)
  1036d7:	ff 75 f4             	pushl  -0xc(%ebp)
  1036da:	e8 72 fa ff ff       	call   103151 <seek_to_cylinder>
  1036df:	83 c4 10             	add    $0x10,%esp
  1036e2:	83 f8 ff             	cmp    $0xffffffff,%eax
  1036e5:	75 0c                	jne    1036f3 <floppy_read_sector+0xfc>
  1036e7:	c7 45 b8 ff ff ff ff 	movl   $0xffffffff,-0x48(%ebp)
  1036ee:	e9 61 01 00 00       	jmp    103854 <floppy_read_sector+0x25d>
  1036f3:	a0 59 d8 10 00       	mov    0x10d859,%al
  1036f8:	0f b6 c0             	movzbl %al,%eax
  1036fb:	83 ec 0c             	sub    $0xc,%esp
  1036fe:	50                   	push   %eax
  1036ff:	e8 06 ce ff ff       	call   10050a <Delay>
  103704:	83 c4 10             	add    $0x10,%esp
  103707:	83 ec 08             	sub    $0x8,%esp
  10370a:	6a 66                	push   $0x66
  10370c:	ff 75 14             	pushl  0x14(%ebp)
  10370f:	e8 eb f7 ff ff       	call   102eff <sendFloppyCommand>
  103714:	83 c4 10             	add    $0x10,%esp
  103717:	8b 45 f8             	mov    -0x8(%ebp),%eax
  10371a:	c1 e0 02             	shl    $0x2,%eax
  10371d:	0b 45 bc             	or     -0x44(%ebp),%eax
  103720:	0f b6 c0             	movzbl %al,%eax
  103723:	83 ec 08             	sub    $0x8,%esp
  103726:	50                   	push   %eax
  103727:	ff 75 14             	pushl  0x14(%ebp)
  10372a:	e8 d0 f7 ff ff       	call   102eff <sendFloppyCommand>
  10372f:	83 c4 10             	add    $0x10,%esp
  103732:	8b 45 f4             	mov    -0xc(%ebp),%eax
  103735:	0f b6 c0             	movzbl %al,%eax
  103738:	83 ec 08             	sub    $0x8,%esp
  10373b:	50                   	push   %eax
  10373c:	ff 75 14             	pushl  0x14(%ebp)
  10373f:	e8 bb f7 ff ff       	call   102eff <sendFloppyCommand>
  103744:	83 c4 10             	add    $0x10,%esp
  103747:	8b 45 f8             	mov    -0x8(%ebp),%eax
  10374a:	0f b6 c0             	movzbl %al,%eax
  10374d:	83 ec 08             	sub    $0x8,%esp
  103750:	50                   	push   %eax
  103751:	ff 75 14             	pushl  0x14(%ebp)
  103754:	e8 a6 f7 ff ff       	call   102eff <sendFloppyCommand>
  103759:	83 c4 10             	add    $0x10,%esp
  10375c:	8b 45 fc             	mov    -0x4(%ebp),%eax
  10375f:	0f b6 c0             	movzbl %al,%eax
  103762:	83 ec 08             	sub    $0x8,%esp
  103765:	50                   	push   %eax
  103766:	ff 75 14             	pushl  0x14(%ebp)
  103769:	e8 91 f7 ff ff       	call   102eff <sendFloppyCommand>
  10376e:	83 c4 10             	add    $0x10,%esp
  103771:	a0 53 d8 10 00       	mov    0x10d853,%al
  103776:	0f b6 c0             	movzbl %al,%eax
  103779:	83 ec 08             	sub    $0x8,%esp
  10377c:	50                   	push   %eax
  10377d:	ff 75 14             	pushl  0x14(%ebp)
  103780:	e8 7a f7 ff ff       	call   102eff <sendFloppyCommand>
  103785:	83 c4 10             	add    $0x10,%esp
  103788:	a0 54 d8 10 00       	mov    0x10d854,%al
  10378d:	0f b6 c0             	movzbl %al,%eax
  103790:	83 ec 08             	sub    $0x8,%esp
  103793:	50                   	push   %eax
  103794:	ff 75 14             	pushl  0x14(%ebp)
  103797:	e8 63 f7 ff ff       	call   102eff <sendFloppyCommand>
  10379c:	83 c4 10             	add    $0x10,%esp
  10379f:	a0 55 d8 10 00       	mov    0x10d855,%al
  1037a4:	0f b6 c0             	movzbl %al,%eax
  1037a7:	83 ec 08             	sub    $0x8,%esp
  1037aa:	50                   	push   %eax
  1037ab:	ff 75 14             	pushl  0x14(%ebp)
  1037ae:	e8 4c f7 ff ff       	call   102eff <sendFloppyCommand>
  1037b3:	83 c4 10             	add    $0x10,%esp
  1037b6:	a0 56 d8 10 00       	mov    0x10d856,%al
  1037bb:	0f b6 c0             	movzbl %al,%eax
  1037be:	83 ec 08             	sub    $0x8,%esp
  1037c1:	50                   	push   %eax
  1037c2:	ff 75 14             	pushl  0x14(%ebp)
  1037c5:	e8 35 f7 ff ff       	call   102eff <sendFloppyCommand>
  1037ca:	83 c4 10             	add    $0x10,%esp
  1037cd:	e8 b2 ce ff ff       	call   100684 <WaitFloppyInt>
  1037d2:	83 f8 ff             	cmp    $0xffffffff,%eax
  1037d5:	75 09                	jne    1037e0 <floppy_read_sector+0x1e9>
  1037d7:	c7 45 b8 ff ff ff ff 	movl   $0xffffffff,-0x48(%ebp)
  1037de:	eb 74                	jmp    103854 <floppy_read_sector+0x25d>
  1037e0:	ff 75 14             	pushl  0x14(%ebp)
  1037e3:	8d 45 cc             	lea    -0x34(%ebp),%eax
  1037e6:	50                   	push   %eax
  1037e7:	8d 45 d0             	lea    -0x30(%ebp),%eax
  1037ea:	50                   	push   %eax
  1037eb:	8d 45 d4             	lea    -0x2c(%ebp),%eax
  1037ee:	50                   	push   %eax
  1037ef:	8d 45 d8             	lea    -0x28(%ebp),%eax
  1037f2:	50                   	push   %eax
  1037f3:	8d 45 dc             	lea    -0x24(%ebp),%eax
  1037f6:	50                   	push   %eax
  1037f7:	8d 45 e0             	lea    -0x20(%ebp),%eax
  1037fa:	50                   	push   %eax
  1037fb:	8d 45 e4             	lea    -0x1c(%ebp),%eax
  1037fe:	50                   	push   %eax
  1037ff:	e8 d1 fa ff ff       	call   1032d5 <getResults>
  103804:	83 c4 20             	add    $0x20,%esp
  103807:	83 ec 0c             	sub    $0xc,%esp
  10380a:	68 ca 86 10 00       	push   $0x1086ca
  10380f:	e8 0c dc ff ff       	call   101420 <display>
  103814:	83 c4 10             	add    $0x10,%esp
  103817:	a1 4c d8 10 00       	mov    0x10d84c,%eax
  10381c:	83 ec 04             	sub    $0x4,%esp
  10381f:	ff 75 e8             	pushl  -0x18(%ebp)
  103822:	50                   	push   %eax
  103823:	ff 75 10             	pushl  0x10(%ebp)
  103826:	e8 c0 ef ff ff       	call   1027eb <memcopy>
  10382b:	83 c4 10             	add    $0x10,%esp
  10382e:	83 ec 0c             	sub    $0xc,%esp
  103831:	68 d8 86 10 00       	push   $0x1086d8
  103836:	e8 e5 db ff ff       	call   101420 <display>
  10383b:	83 c4 10             	add    $0x10,%esp
  10383e:	8b 45 14             	mov    0x14(%ebp),%eax
  103841:	83 c0 02             	add    $0x2,%eax
  103844:	83 ec 08             	sub    $0x8,%esp
  103847:	50                   	push   %eax
  103848:	6a 00                	push   $0x0
  10384a:	e8 a3 c8 ff ff       	call   1000f2 <outportb>
  10384f:	83 c4 10             	add    $0x10,%esp
  103852:	eb 06                	jmp    10385a <floppy_read_sector+0x263>
  103854:	8b 45 b8             	mov    -0x48(%ebp),%eax
  103857:	89 45 b4             	mov    %eax,-0x4c(%ebp)
  10385a:	8b 45 b4             	mov    -0x4c(%ebp),%eax
  10385d:	c9                   	leave  
  10385e:	c3                   	ret    

0010385f <initialize>:
  10385f:	55                   	push   %ebp
  103860:	89 e5                	mov    %esp,%ebp
  103862:	83 ec 18             	sub    $0x18,%esp
  103865:	c7 45 f4 00 00 00 00 	movl   $0x0,-0xc(%ebp)
  10386c:	c7 45 f8 00 00 00 00 	movl   $0x0,-0x8(%ebp)
  103873:	83 ec 08             	sub    $0x8,%esp
  103876:	6a 70                	push   $0x70
  103878:	6a 10                	push   $0x10
  10387a:	e8 73 c8 ff ff       	call   1000f2 <outportb>
  10387f:	83 c4 10             	add    $0x10,%esp
  103882:	83 ec 0c             	sub    $0xc,%esp
  103885:	6a 71                	push   $0x71
  103887:	e8 5e c8 ff ff       	call   1000ea <inportb>
  10388c:	83 c4 10             	add    $0x10,%esp
  10388f:	89 45 f4             	mov    %eax,-0xc(%ebp)
  103892:	83 ec 04             	sub    $0x4,%esp
  103895:	6a 0b                	push   $0xb
  103897:	68 c7 ef 0f 00       	push   $0xfefc7
  10389c:	68 50 d8 10 00       	push   $0x10d850
  1038a1:	e8 45 ef ff ff       	call   1027eb <memcopy>
  1038a6:	83 c4 10             	add    $0x10,%esp
  1038a9:	c7 45 fc 00 00 00 00 	movl   $0x0,-0x4(%ebp)
  1038b0:	eb 06                	jmp    1038b8 <initialize+0x59>
  1038b2:	d1 65 f8             	shll   -0x8(%ebp)
  1038b5:	ff 45 fc             	incl   -0x4(%ebp)
  1038b8:	a0 53 d8 10 00       	mov    0x10d853,%al
  1038bd:	0f b6 c0             	movzbl %al,%eax
  1038c0:	3b 45 fc             	cmp    -0x4(%ebp),%eax
  1038c3:	77 ed                	ja     1038b2 <initialize+0x53>
  1038c5:	c1 65 f8 07          	shll   $0x7,-0x8(%ebp)
  1038c9:	83 ec 0c             	sub    $0xc,%esp
  1038cc:	ff 75 f8             	pushl  -0x8(%ebp)
  1038cf:	e8 b9 ea ff ff       	call   10238d <malloc>
  1038d4:	83 c4 10             	add    $0x10,%esp
  1038d7:	a3 4c d8 10 00       	mov    %eax,0x10d84c
  1038dc:	c9                   	leave  
  1038dd:	c3                   	ret    

001038de <assign_drive>:
  1038de:	55                   	push   %ebp
  1038df:	89 e5                	mov    %esp,%ebp
  1038e1:	83 ec 04             	sub    $0x4,%esp
  1038e4:	8b 45 08             	mov    0x8(%ebp),%eax
  1038e7:	88 45 fc             	mov    %al,-0x4(%ebp)
  1038ea:	c9                   	leave  
  1038eb:	c3                   	ret    

001038ec <get_function>:
  1038ec:	55                   	push   %ebp
  1038ed:	89 e5                	mov    %esp,%ebp
  1038ef:	83 ec 04             	sub    $0x4,%esp
  1038f2:	8b 45 08             	mov    0x8(%ebp),%eax
  1038f5:	83 f8 01             	cmp    $0x1,%eax
  1038f8:	74 02                	je     1038fc <get_function+0x10>
  1038fa:	eb 09                	jmp    103905 <get_function+0x19>
  1038fc:	c7 45 fc 5f 38 10 00 	movl   $0x10385f,-0x4(%ebp)
  103903:	eb 07                	jmp    10390c <get_function+0x20>
  103905:	c7 45 fc 00 00 00 00 	movl   $0x0,-0x4(%ebp)
  10390c:	8b 45 fc             	mov    -0x4(%ebp),%eax
  10390f:	c9                   	leave  
  103910:	c3                   	ret    
  103911:	00 00                	add    %al,(%eax)
	...

00103914 <startDMA>:
  103914:	55                   	push   %ebp
  103915:	89 e5                	mov    %esp,%ebp
  103917:	83 ec 18             	sub    $0x18,%esp
  10391a:	8b 45 10             	mov    0x10(%ebp),%eax
  10391d:	8b 55 14             	mov    0x14(%ebp),%edx
  103920:	88 45 ec             	mov    %al,-0x14(%ebp)
  103923:	88 55 e8             	mov    %dl,-0x18(%ebp)
  103926:	8b 45 08             	mov    0x8(%ebp),%eax
  103929:	c1 e8 10             	shr    $0x10,%eax
  10392c:	89 45 f4             	mov    %eax,-0xc(%ebp)
  10392f:	0f b7 45 08          	movzwl 0x8(%ebp),%eax
  103933:	89 45 fc             	mov    %eax,-0x4(%ebp)
  103936:	8a 45 ec             	mov    -0x14(%ebp),%al
  103939:	08 45 e8             	or     %al,-0x18(%ebp)
  10393c:	fa                   	cli    
  10393d:	0f b6 45 ec          	movzbl -0x14(%ebp),%eax
  103941:	8a 80 a4 91 10 00    	mov    0x1091a4(%eax),%al
  103947:	0f b6 d0             	movzbl %al,%edx
  10394a:	8a 45 ec             	mov    -0x14(%ebp),%al
  10394d:	83 c8 04             	or     $0x4,%eax
  103950:	0f b6 c0             	movzbl %al,%eax
  103953:	83 ec 08             	sub    $0x8,%esp
  103956:	52                   	push   %edx
  103957:	50                   	push   %eax
  103958:	e8 95 c7 ff ff       	call   1000f2 <outportb>
  10395d:	83 c4 10             	add    $0x10,%esp
  103960:	0f b6 45 ec          	movzbl -0x14(%ebp),%eax
  103964:	8a 80 ac 91 10 00    	mov    0x1091ac(%eax),%al
  10396a:	0f b6 c0             	movzbl %al,%eax
  10396d:	0f b6 55 e8          	movzbl -0x18(%ebp),%edx
  103971:	83 ec 08             	sub    $0x8,%esp
  103974:	50                   	push   %eax
  103975:	52                   	push   %edx
  103976:	e8 77 c7 ff ff       	call   1000f2 <outportb>
  10397b:	83 c4 10             	add    $0x10,%esp
  10397e:	0f b6 45 ec          	movzbl -0x14(%ebp),%eax
  103982:	8a 80 b4 91 10 00    	mov    0x1091b4(%eax),%al
  103988:	0f b6 c0             	movzbl %al,%eax
  10398b:	83 ec 08             	sub    $0x8,%esp
  10398e:	50                   	push   %eax
  10398f:	6a 00                	push   $0x0
  103991:	e8 5c c7 ff ff       	call   1000f2 <outportb>
  103996:	83 c4 10             	add    $0x10,%esp
  103999:	0f b6 45 ec          	movzbl -0x14(%ebp),%eax
  10399d:	8a 80 c4 91 10 00    	mov    0x1091c4(%eax),%al
  1039a3:	0f b6 c0             	movzbl %al,%eax
  1039a6:	0f b6 55 fc          	movzbl -0x4(%ebp),%edx
  1039aa:	83 ec 08             	sub    $0x8,%esp
  1039ad:	50                   	push   %eax
  1039ae:	52                   	push   %edx
  1039af:	e8 3e c7 ff ff       	call   1000f2 <outportb>
  1039b4:	83 c4 10             	add    $0x10,%esp
  1039b7:	0f b6 45 ec          	movzbl -0x14(%ebp),%eax
  1039bb:	8a 80 c4 91 10 00    	mov    0x1091c4(%eax),%al
  1039c1:	0f b6 d0             	movzbl %al,%edx
  1039c4:	8b 45 fc             	mov    -0x4(%ebp),%eax
  1039c7:	25 00 ff 00 00       	and    $0xff00,%eax
  1039cc:	c1 e8 08             	shr    $0x8,%eax
  1039cf:	83 ec 08             	sub    $0x8,%esp
  1039d2:	52                   	push   %edx
  1039d3:	50                   	push   %eax
  1039d4:	e8 19 c7 ff ff       	call   1000f2 <outportb>
  1039d9:	83 c4 10             	add    $0x10,%esp
  1039dc:	0f b6 45 ec          	movzbl -0x14(%ebp),%eax
  1039e0:	8a 80 bc 91 10 00    	mov    0x1091bc(%eax),%al
  1039e6:	0f b6 c0             	movzbl %al,%eax
  1039e9:	83 ec 08             	sub    $0x8,%esp
  1039ec:	50                   	push   %eax
  1039ed:	ff 75 f4             	pushl  -0xc(%ebp)
  1039f0:	e8 fd c6 ff ff       	call   1000f2 <outportb>
  1039f5:	83 c4 10             	add    $0x10,%esp
  1039f8:	0f b6 45 ec          	movzbl -0x14(%ebp),%eax
  1039fc:	8a 80 b4 91 10 00    	mov    0x1091b4(%eax),%al
  103a02:	0f b6 c0             	movzbl %al,%eax
  103a05:	83 ec 08             	sub    $0x8,%esp
  103a08:	50                   	push   %eax
  103a09:	6a 00                	push   $0x0
  103a0b:	e8 e2 c6 ff ff       	call   1000f2 <outportb>
  103a10:	83 c4 10             	add    $0x10,%esp
  103a13:	0f b6 45 ec          	movzbl -0x14(%ebp),%eax
  103a17:	8a 80 cc 91 10 00    	mov    0x1091cc(%eax),%al
  103a1d:	0f b6 c0             	movzbl %al,%eax
  103a20:	0f b6 55 0c          	movzbl 0xc(%ebp),%edx
  103a24:	83 ec 08             	sub    $0x8,%esp
  103a27:	50                   	push   %eax
  103a28:	52                   	push   %edx
  103a29:	e8 c4 c6 ff ff       	call   1000f2 <outportb>
  103a2e:	83 c4 10             	add    $0x10,%esp
  103a31:	0f b6 45 ec          	movzbl -0x14(%ebp),%eax
  103a35:	8a 80 cc 91 10 00    	mov    0x1091cc(%eax),%al
  103a3b:	0f b6 d0             	movzbl %al,%edx
  103a3e:	8b 45 0c             	mov    0xc(%ebp),%eax
  103a41:	25 00 ff 00 00       	and    $0xff00,%eax
  103a46:	c1 e8 08             	shr    $0x8,%eax
  103a49:	83 ec 08             	sub    $0x8,%esp
  103a4c:	52                   	push   %edx
  103a4d:	50                   	push   %eax
  103a4e:	e8 9f c6 ff ff       	call   1000f2 <outportb>
  103a53:	83 c4 10             	add    $0x10,%esp
  103a56:	0f b6 45 ec          	movzbl -0x14(%ebp),%eax
  103a5a:	8a 80 a4 91 10 00    	mov    0x1091a4(%eax),%al
  103a60:	0f b6 c0             	movzbl %al,%eax
  103a63:	0f b6 55 ec          	movzbl -0x14(%ebp),%edx
  103a67:	83 ec 08             	sub    $0x8,%esp
  103a6a:	50                   	push   %eax
  103a6b:	52                   	push   %edx
  103a6c:	e8 81 c6 ff ff       	call   1000f2 <outportb>
  103a71:	83 c4 10             	add    $0x10,%esp
  103a74:	fb                   	sti    
  103a75:	c9                   	leave  
  103a76:	c3                   	ret    
	...

00103a78 <setupPIC>:
  103a78:	55                   	push   %ebp
  103a79:	89 e5                	mov    %esp,%ebp
  103a7b:	83 ec 08             	sub    $0x8,%esp
  103a7e:	83 ec 08             	sub    $0x8,%esp
  103a81:	6a 20                	push   $0x20
  103a83:	6a 11                	push   $0x11
  103a85:	e8 68 c6 ff ff       	call   1000f2 <outportb>
  103a8a:	83 c4 10             	add    $0x10,%esp
  103a8d:	83 ec 08             	sub    $0x8,%esp
  103a90:	68 a0 00 00 00       	push   $0xa0
  103a95:	6a 11                	push   $0x11
  103a97:	e8 56 c6 ff ff       	call   1000f2 <outportb>
  103a9c:	83 c4 10             	add    $0x10,%esp
  103a9f:	83 ec 08             	sub    $0x8,%esp
  103aa2:	6a 21                	push   $0x21
  103aa4:	6a 20                	push   $0x20
  103aa6:	e8 47 c6 ff ff       	call   1000f2 <outportb>
  103aab:	83 c4 10             	add    $0x10,%esp
  103aae:	83 ec 08             	sub    $0x8,%esp
  103ab1:	68 a1 00 00 00       	push   $0xa1
  103ab6:	6a 28                	push   $0x28
  103ab8:	e8 35 c6 ff ff       	call   1000f2 <outportb>
  103abd:	83 c4 10             	add    $0x10,%esp
  103ac0:	83 ec 08             	sub    $0x8,%esp
  103ac3:	6a 21                	push   $0x21
  103ac5:	6a 04                	push   $0x4
  103ac7:	e8 26 c6 ff ff       	call   1000f2 <outportb>
  103acc:	83 c4 10             	add    $0x10,%esp
  103acf:	83 ec 08             	sub    $0x8,%esp
  103ad2:	68 a1 00 00 00       	push   $0xa1
  103ad7:	6a 02                	push   $0x2
  103ad9:	e8 14 c6 ff ff       	call   1000f2 <outportb>
  103ade:	83 c4 10             	add    $0x10,%esp
  103ae1:	83 ec 08             	sub    $0x8,%esp
  103ae4:	6a 21                	push   $0x21
  103ae6:	6a 01                	push   $0x1
  103ae8:	e8 05 c6 ff ff       	call   1000f2 <outportb>
  103aed:	83 c4 10             	add    $0x10,%esp
  103af0:	83 ec 08             	sub    $0x8,%esp
  103af3:	68 a1 00 00 00       	push   $0xa1
  103af8:	6a 01                	push   $0x1
  103afa:	e8 f3 c5 ff ff       	call   1000f2 <outportb>
  103aff:	83 c4 10             	add    $0x10,%esp
  103b02:	83 ec 08             	sub    $0x8,%esp
  103b05:	6a 21                	push   $0x21
  103b07:	6a 00                	push   $0x0
  103b09:	e8 e4 c5 ff ff       	call   1000f2 <outportb>
  103b0e:	83 c4 10             	add    $0x10,%esp
  103b11:	fb                   	sti    
  103b12:	c9                   	leave  
  103b13:	c3                   	ret    

00103b14 <clearIRQ>:
  103b14:	55                   	push   %ebp
  103b15:	89 e5                	mov    %esp,%ebp
  103b17:	83 ec 08             	sub    $0x8,%esp
  103b1a:	8b 4d 08             	mov    0x8(%ebp),%ecx
  103b1d:	b8 ff 00 00 00       	mov    $0xff,%eax
  103b22:	d3 e0                	shl    %cl,%eax
  103b24:	83 ec 08             	sub    $0x8,%esp
  103b27:	6a 21                	push   $0x21
  103b29:	50                   	push   %eax
  103b2a:	e8 c3 c5 ff ff       	call   1000f2 <outportb>
  103b2f:	83 c4 10             	add    $0x10,%esp
  103b32:	c9                   	leave  
  103b33:	c3                   	ret    

00103b34 <enableIRQ>:
  103b34:	55                   	push   %ebp
  103b35:	89 e5                	mov    %esp,%ebp
  103b37:	83 ec 08             	sub    $0x8,%esp
  103b3a:	8b 4d 08             	mov    0x8(%ebp),%ecx
  103b3d:	b8 ff 00 00 00       	mov    $0xff,%eax
  103b42:	d3 e0                	shl    %cl,%eax
  103b44:	f7 d0                	not    %eax
  103b46:	83 ec 08             	sub    $0x8,%esp
  103b49:	6a 21                	push   $0x21
  103b4b:	50                   	push   %eax
  103b4c:	e8 a1 c5 ff ff       	call   1000f2 <outportb>
  103b51:	83 c4 10             	add    $0x10,%esp
  103b54:	c9                   	leave  
  103b55:	c3                   	ret    

00103b56 <setupTimer>:
  103b56:	55                   	push   %ebp
  103b57:	89 e5                	mov    %esp,%ebp
  103b59:	83 ec 08             	sub    $0x8,%esp
  103b5c:	83 ec 08             	sub    $0x8,%esp
  103b5f:	6a 43                	push   $0x43
  103b61:	6a 34                	push   $0x34
  103b63:	e8 8a c5 ff ff       	call   1000f2 <outportb>
  103b68:	83 c4 10             	add    $0x10,%esp
  103b6b:	b8 dc 34 12 00       	mov    $0x1234dc,%eax
  103b70:	ba 00 00 00 00       	mov    $0x0,%edx
  103b75:	f7 75 08             	divl   0x8(%ebp)
  103b78:	25 ff 00 00 00       	and    $0xff,%eax
  103b7d:	83 ec 08             	sub    $0x8,%esp
  103b80:	6a 40                	push   $0x40
  103b82:	50                   	push   %eax
  103b83:	e8 6a c5 ff ff       	call   1000f2 <outportb>
  103b88:	83 c4 10             	add    $0x10,%esp
  103b8b:	b8 dc 34 12 00       	mov    $0x1234dc,%eax
  103b90:	ba 00 00 00 00       	mov    $0x0,%edx
  103b95:	f7 75 08             	divl   0x8(%ebp)
  103b98:	c1 e8 08             	shr    $0x8,%eax
  103b9b:	83 ec 08             	sub    $0x8,%esp
  103b9e:	6a 40                	push   $0x40
  103ba0:	50                   	push   %eax
  103ba1:	e8 4c c5 ff ff       	call   1000f2 <outportb>
  103ba6:	83 c4 10             	add    $0x10,%esp
  103ba9:	c9                   	leave  
  103baa:	c3                   	ret    
	...

00103bac <wait_to_write>:
  103bac:	55                   	push   %ebp
  103bad:	89 e5                	mov    %esp,%ebp
  103baf:	83 ec 08             	sub    $0x8,%esp
  103bb2:	83 ec 0c             	sub    $0xc,%esp
  103bb5:	6a 64                	push   $0x64
  103bb7:	e8 2e c5 ff ff       	call   1000ea <inportb>
  103bbc:	83 c4 10             	add    $0x10,%esp
  103bbf:	83 e0 03             	and    $0x3,%eax
  103bc2:	85 c0                	test   %eax,%eax
  103bc4:	75 ec                	jne    103bb2 <wait_to_write+0x6>
  103bc6:	c9                   	leave  
  103bc7:	c3                   	ret    

00103bc8 <wait_2_write>:
  103bc8:	55                   	push   %ebp
  103bc9:	89 e5                	mov    %esp,%ebp
  103bcb:	83 ec 08             	sub    $0x8,%esp
  103bce:	83 ec 0c             	sub    $0xc,%esp
  103bd1:	6a 61                	push   $0x61
  103bd3:	e8 12 c5 ff ff       	call   1000ea <inportb>
  103bd8:	83 c4 10             	add    $0x10,%esp
  103bdb:	83 e0 04             	and    $0x4,%eax
  103bde:	85 c0                	test   %eax,%eax
  103be0:	75 ec                	jne    103bce <wait_2_write+0x6>
  103be2:	c9                   	leave  
  103be3:	c3                   	ret    

00103be4 <wait_to_read>:
  103be4:	55                   	push   %ebp
  103be5:	89 e5                	mov    %esp,%ebp
  103be7:	83 ec 08             	sub    $0x8,%esp
  103bea:	83 ec 0c             	sub    $0xc,%esp
  103bed:	6a 64                	push   $0x64
  103bef:	e8 f6 c4 ff ff       	call   1000ea <inportb>
  103bf4:	83 c4 10             	add    $0x10,%esp
  103bf7:	83 e0 01             	and    $0x1,%eax
  103bfa:	85 c0                	test   %eax,%eax
  103bfc:	74 ec                	je     103bea <wait_to_read+0x6>
  103bfe:	c9                   	leave  
  103bff:	c3                   	ret    

00103c00 <verify_scancode_receipt>:
  103c00:	55                   	push   %ebp
  103c01:	89 e5                	mov    %esp,%ebp
  103c03:	83 ec 18             	sub    $0x18,%esp
  103c06:	83 ec 0c             	sub    $0xc,%esp
  103c09:	6a 61                	push   $0x61
  103c0b:	e8 da c4 ff ff       	call   1000ea <inportb>
  103c10:	83 c4 10             	add    $0x10,%esp
  103c13:	89 45 fc             	mov    %eax,-0x4(%ebp)
  103c16:	8b 45 fc             	mov    -0x4(%ebp),%eax
  103c19:	0c 80                	or     $0x80,%al
  103c1b:	83 ec 08             	sub    $0x8,%esp
  103c1e:	6a 61                	push   $0x61
  103c20:	50                   	push   %eax
  103c21:	e8 cc c4 ff ff       	call   1000f2 <outportb>
  103c26:	83 c4 10             	add    $0x10,%esp
  103c29:	83 ec 0c             	sub    $0xc,%esp
  103c2c:	6a 0a                	push   $0xa
  103c2e:	e8 d7 c8 ff ff       	call   10050a <Delay>
  103c33:	83 c4 10             	add    $0x10,%esp
  103c36:	83 ec 08             	sub    $0x8,%esp
  103c39:	6a 61                	push   $0x61
  103c3b:	ff 75 fc             	pushl  -0x4(%ebp)
  103c3e:	e8 af c4 ff ff       	call   1000f2 <outportb>
  103c43:	83 c4 10             	add    $0x10,%esp
  103c46:	c9                   	leave  
  103c47:	c3                   	ret    

00103c48 <init_keyboard>:
  103c48:	55                   	push   %ebp
  103c49:	89 e5                	mov    %esp,%ebp
  103c4b:	83 ec 18             	sub    $0x18,%esp
  103c4e:	c7 05 af 05 10 00 00 	movl   $0x0,0x1005af
  103c55:	00 00 00 
  103c58:	83 ec 0c             	sub    $0xc,%esp
  103c5b:	68 ec 86 10 00       	push   $0x1086ec
  103c60:	e8 bb d7 ff ff       	call   101420 <display>
  103c65:	83 c4 10             	add    $0x10,%esp
  103c68:	c7 05 5c d8 10 00 01 	movl   $0x1,0x10d85c
  103c6f:	00 00 00 
  103c72:	c7 05 60 d8 10 00 01 	movl   $0x1,0x10d860
  103c79:	00 00 00 
  103c7c:	83 ec 0c             	sub    $0xc,%esp
  103c7f:	68 14 87 10 00       	push   $0x108714
  103c84:	e8 97 d7 ff ff       	call   101420 <display>
  103c89:	83 c4 10             	add    $0x10,%esp
  103c8c:	e8 37 ff ff ff       	call   103bc8 <wait_2_write>
  103c91:	83 ec 08             	sub    $0x8,%esp
  103c94:	6a 64                	push   $0x64
  103c96:	6a 20                	push   $0x20
  103c98:	e8 55 c4 ff ff       	call   1000f2 <outportb>
  103c9d:	83 c4 10             	add    $0x10,%esp
  103ca0:	e8 07 ff ff ff       	call   103bac <wait_to_write>
  103ca5:	e8 e5 c8 ff ff       	call   10058f <getResponse>
  103caa:	89 45 fc             	mov    %eax,-0x4(%ebp)
  103cad:	83 7d fc 00          	cmpl   $0x0,-0x4(%ebp)
  103cb1:	74 f2                	je     103ca5 <init_keyboard+0x5d>
  103cb3:	c7 45 fc 43 00 00 00 	movl   $0x43,-0x4(%ebp)
  103cba:	e8 09 ff ff ff       	call   103bc8 <wait_2_write>
  103cbf:	83 ec 08             	sub    $0x8,%esp
  103cc2:	6a 64                	push   $0x64
  103cc4:	6a 60                	push   $0x60
  103cc6:	e8 27 c4 ff ff       	call   1000f2 <outportb>
  103ccb:	83 c4 10             	add    $0x10,%esp
  103cce:	e8 d9 fe ff ff       	call   103bac <wait_to_write>
  103cd3:	83 ec 08             	sub    $0x8,%esp
  103cd6:	6a 60                	push   $0x60
  103cd8:	ff 75 fc             	pushl  -0x4(%ebp)
  103cdb:	e8 12 c4 ff ff       	call   1000f2 <outportb>
  103ce0:	83 c4 10             	add    $0x10,%esp
  103ce3:	e8 c4 fe ff ff       	call   103bac <wait_to_write>
  103ce8:	c9                   	leave  
  103ce9:	c3                   	ret    

00103cea <postMakeCode>:
  103cea:	55                   	push   %ebp
  103ceb:	89 e5                	mov    %esp,%ebp
  103ced:	83 ec 08             	sub    $0x8,%esp
  103cf0:	a1 64 d8 10 00       	mov    0x10d864,%eax
  103cf5:	0b 45 08             	or     0x8(%ebp),%eax
  103cf8:	80 cc 01             	or     $0x1,%ah
  103cfb:	a3 64 d8 10 00       	mov    %eax,0x10d864
  103d00:	83 ec 0c             	sub    $0xc,%esp
  103d03:	68 5c d8 10 00       	push   $0x10d85c
  103d08:	e8 ca 0c 00 00       	call   1049d7 <add_system_event>
  103d0d:	83 c4 10             	add    $0x10,%esp
  103d10:	a1 64 d8 10 00       	mov    0x10d864,%eax
  103d15:	b0 00                	mov    $0x0,%al
  103d17:	a3 64 d8 10 00       	mov    %eax,0x10d864
  103d1c:	c7 05 af 05 10 00 00 	movl   $0x0,0x1005af
  103d23:	00 00 00 
  103d26:	c9                   	leave  
  103d27:	c3                   	ret    

00103d28 <postBreakCode>:
  103d28:	55                   	push   %ebp
  103d29:	89 e5                	mov    %esp,%ebp
  103d2b:	83 ec 08             	sub    $0x8,%esp
  103d2e:	a1 64 d8 10 00       	mov    0x10d864,%eax
  103d33:	0b 45 08             	or     0x8(%ebp),%eax
  103d36:	a3 64 d8 10 00       	mov    %eax,0x10d864
  103d3b:	a1 64 d8 10 00       	mov    0x10d864,%eax
  103d40:	80 e4 fe             	and    $0xfe,%ah
  103d43:	a3 64 d8 10 00       	mov    %eax,0x10d864
  103d48:	83 ec 0c             	sub    $0xc,%esp
  103d4b:	68 5c d8 10 00       	push   $0x10d85c
  103d50:	e8 82 0c 00 00       	call   1049d7 <add_system_event>
  103d55:	83 c4 10             	add    $0x10,%esp
  103d58:	a1 64 d8 10 00       	mov    0x10d864,%eax
  103d5d:	b0 00                	mov    $0x0,%al
  103d5f:	a3 64 d8 10 00       	mov    %eax,0x10d864
  103d64:	c7 05 af 05 10 00 00 	movl   $0x0,0x1005af
  103d6b:	00 00 00 
  103d6e:	c9                   	leave  
  103d6f:	c3                   	ret    

00103d70 <handleScancode>:
  103d70:	55                   	push   %ebp
  103d71:	89 e5                	mov    %esp,%ebp
  103d73:	83 ec 18             	sub    $0x18,%esp
  103d76:	a1 af 05 10 00       	mov    0x1005af,%eax
  103d7b:	89 45 fc             	mov    %eax,-0x4(%ebp)
  103d7e:	83 7d fc 05          	cmpl   $0x5,-0x4(%ebp)
  103d82:	0f 87 99 09 00 00    	ja     104721 <handleScancode+0x9b1>
  103d88:	8b 55 fc             	mov    -0x4(%ebp),%edx
  103d8b:	8b 04 95 00 88 10 00 	mov    0x108800(,%edx,4),%eax
  103d92:	ff e0                	jmp    *%eax
  103d94:	8b 45 08             	mov    0x8(%ebp),%eax
  103d97:	89 45 f8             	mov    %eax,-0x8(%ebp)
  103d9a:	81 7d f8 b6 00 00 00 	cmpl   $0xb6,-0x8(%ebp)
  103da1:	0f 84 44 01 00 00    	je     103eeb <handleScancode+0x17b>
  103da7:	81 7d f8 b6 00 00 00 	cmpl   $0xb6,-0x8(%ebp)
  103dae:	77 52                	ja     103e02 <handleScancode+0x92>
  103db0:	83 7d f8 36          	cmpl   $0x36,-0x8(%ebp)
  103db4:	0f 84 11 01 00 00    	je     103ecb <handleScancode+0x15b>
  103dba:	83 7d f8 36          	cmpl   $0x36,-0x8(%ebp)
  103dbe:	77 19                	ja     103dd9 <handleScancode+0x69>
  103dc0:	83 7d f8 00          	cmpl   $0x0,-0x8(%ebp)
  103dc4:	0f 84 ae 00 00 00    	je     103e78 <handleScancode+0x108>
  103dca:	83 7d f8 2a          	cmpl   $0x2a,-0x8(%ebp)
  103dce:	0f 84 b3 00 00 00    	je     103e87 <handleScancode+0x117>
  103dd4:	e9 7a 01 00 00       	jmp    103f53 <handleScancode+0x1e3>
  103dd9:	81 7d f8 a8 00 00 00 	cmpl   $0xa8,-0x8(%ebp)
  103de0:	0f 84 49 01 00 00    	je     103f2f <handleScancode+0x1bf>
  103de6:	81 7d f8 aa 00 00 00 	cmpl   $0xaa,-0x8(%ebp)
  103ded:	0f 84 b4 00 00 00    	je     103ea7 <handleScancode+0x137>
  103df3:	83 7d f8 38          	cmpl   $0x38,-0x8(%ebp)
  103df7:	0f 84 12 01 00 00    	je     103f0f <handleScancode+0x19f>
  103dfd:	e9 51 01 00 00       	jmp    103f53 <handleScancode+0x1e3>
  103e02:	81 7d f8 f0 00 00 00 	cmpl   $0xf0,-0x8(%ebp)
  103e09:	74 6d                	je     103e78 <handleScancode+0x108>
  103e0b:	81 7d f8 f0 00 00 00 	cmpl   $0xf0,-0x8(%ebp)
  103e12:	77 24                	ja     103e38 <handleScancode+0xc8>
  103e14:	81 7d f8 e0 00 00 00 	cmpl   $0xe0,-0x8(%ebp)
  103e1b:	0f 82 32 01 00 00    	jb     103f53 <handleScancode+0x1e3>
  103e21:	81 7d f8 e1 00 00 00 	cmpl   $0xe1,-0x8(%ebp)
  103e28:	76 37                	jbe    103e61 <handleScancode+0xf1>
  103e2a:	81 7d f8 ee 00 00 00 	cmpl   $0xee,-0x8(%ebp)
  103e31:	74 45                	je     103e78 <handleScancode+0x108>
  103e33:	e9 1b 01 00 00       	jmp    103f53 <handleScancode+0x1e3>
  103e38:	81 7d f8 fa 00 00 00 	cmpl   $0xfa,-0x8(%ebp)
  103e3f:	74 37                	je     103e78 <handleScancode+0x108>
  103e41:	81 7d f8 fa 00 00 00 	cmpl   $0xfa,-0x8(%ebp)
  103e48:	0f 82 05 01 00 00    	jb     103f53 <handleScancode+0x1e3>
  103e4e:	8b 45 f8             	mov    -0x8(%ebp),%eax
  103e51:	2d fc 00 00 00       	sub    $0xfc,%eax
  103e56:	83 f8 03             	cmp    $0x3,%eax
  103e59:	0f 87 f4 00 00 00    	ja     103f53 <handleScancode+0x1e3>
  103e5f:	eb 17                	jmp    103e78 <handleScancode+0x108>
  103e61:	c7 05 af 05 10 00 01 	movl   $0x1,0x1005af
  103e68:	00 00 00 
  103e6b:	8b 45 08             	mov    0x8(%ebp),%eax
  103e6e:	a3 b3 05 10 00       	mov    %eax,0x1005b3
  103e73:	e9 da 08 00 00       	jmp    104752 <handleScancode+0x9e2>
  103e78:	c7 05 af 05 10 00 00 	movl   $0x0,0x1005af
  103e7f:	00 00 00 
  103e82:	e9 cb 08 00 00       	jmp    104752 <handleScancode+0x9e2>
  103e87:	a1 64 d8 10 00       	mov    0x10d864,%eax
  103e8c:	80 cc 02             	or     $0x2,%ah
  103e8f:	a3 64 d8 10 00       	mov    %eax,0x10d864
  103e94:	83 ec 0c             	sub    $0xc,%esp
  103e97:	ff 75 08             	pushl  0x8(%ebp)
  103e9a:	e8 4b fe ff ff       	call   103cea <postMakeCode>
  103e9f:	83 c4 10             	add    $0x10,%esp
  103ea2:	e9 ab 08 00 00       	jmp    104752 <handleScancode+0x9e2>
  103ea7:	a1 64 d8 10 00       	mov    0x10d864,%eax
  103eac:	80 e4 fd             	and    $0xfd,%ah
  103eaf:	a3 64 d8 10 00       	mov    %eax,0x10d864
  103eb4:	8b 45 08             	mov    0x8(%ebp),%eax
  103eb7:	83 c0 80             	add    $0xffffff80,%eax
  103eba:	83 ec 0c             	sub    $0xc,%esp
  103ebd:	50                   	push   %eax
  103ebe:	e8 65 fe ff ff       	call   103d28 <postBreakCode>
  103ec3:	83 c4 10             	add    $0x10,%esp
  103ec6:	e9 87 08 00 00       	jmp    104752 <handleScancode+0x9e2>
  103ecb:	a1 64 d8 10 00       	mov    0x10d864,%eax
  103ed0:	80 cc 04             	or     $0x4,%ah
  103ed3:	a3 64 d8 10 00       	mov    %eax,0x10d864
  103ed8:	83 ec 0c             	sub    $0xc,%esp
  103edb:	ff 75 08             	pushl  0x8(%ebp)
  103ede:	e8 07 fe ff ff       	call   103cea <postMakeCode>
  103ee3:	83 c4 10             	add    $0x10,%esp
  103ee6:	e9 67 08 00 00       	jmp    104752 <handleScancode+0x9e2>
  103eeb:	a1 64 d8 10 00       	mov    0x10d864,%eax
  103ef0:	80 e4 fb             	and    $0xfb,%ah
  103ef3:	a3 64 d8 10 00       	mov    %eax,0x10d864
  103ef8:	8b 45 08             	mov    0x8(%ebp),%eax
  103efb:	83 c0 80             	add    $0xffffff80,%eax
  103efe:	83 ec 0c             	sub    $0xc,%esp
  103f01:	50                   	push   %eax
  103f02:	e8 21 fe ff ff       	call   103d28 <postBreakCode>
  103f07:	83 c4 10             	add    $0x10,%esp
  103f0a:	e9 43 08 00 00       	jmp    104752 <handleScancode+0x9e2>
  103f0f:	a1 64 d8 10 00       	mov    0x10d864,%eax
  103f14:	80 cc 20             	or     $0x20,%ah
  103f17:	a3 64 d8 10 00       	mov    %eax,0x10d864
  103f1c:	83 ec 0c             	sub    $0xc,%esp
  103f1f:	ff 75 08             	pushl  0x8(%ebp)
  103f22:	e8 c3 fd ff ff       	call   103cea <postMakeCode>
  103f27:	83 c4 10             	add    $0x10,%esp
  103f2a:	e9 23 08 00 00       	jmp    104752 <handleScancode+0x9e2>
  103f2f:	a1 64 d8 10 00       	mov    0x10d864,%eax
  103f34:	80 e4 df             	and    $0xdf,%ah
  103f37:	a3 64 d8 10 00       	mov    %eax,0x10d864
  103f3c:	8b 45 08             	mov    0x8(%ebp),%eax
  103f3f:	83 c0 80             	add    $0xffffff80,%eax
  103f42:	83 ec 0c             	sub    $0xc,%esp
  103f45:	50                   	push   %eax
  103f46:	e8 dd fd ff ff       	call   103d28 <postBreakCode>
  103f4b:	83 c4 10             	add    $0x10,%esp
  103f4e:	e9 ff 07 00 00       	jmp    104752 <handleScancode+0x9e2>
  103f53:	8b 45 08             	mov    0x8(%ebp),%eax
  103f56:	83 e0 7f             	and    $0x7f,%eax
  103f59:	83 f8 58             	cmp    $0x58,%eax
  103f5c:	76 33                	jbe    103f91 <handleScancode+0x221>
  103f5e:	83 ec 0c             	sub    $0xc,%esp
  103f61:	68 34 87 10 00       	push   $0x108734
  103f66:	e8 b5 d4 ff ff       	call   101420 <display>
  103f6b:	83 c4 10             	add    $0x10,%esp
  103f6e:	83 ec 0c             	sub    $0xc,%esp
  103f71:	ff 75 08             	pushl  0x8(%ebp)
  103f74:	e8 f7 d4 ff ff       	call   101470 <PrintNumber>
  103f79:	83 c4 10             	add    $0x10,%esp
  103f7c:	83 ec 0c             	sub    $0xc,%esp
  103f7f:	68 41 87 10 00       	push   $0x108741
  103f84:	e8 97 d4 ff ff       	call   101420 <display>
  103f89:	83 c4 10             	add    $0x10,%esp
  103f8c:	e9 c1 07 00 00       	jmp    104752 <handleScancode+0x9e2>
  103f91:	83 7d 08 7f          	cmpl   $0x7f,0x8(%ebp)
  103f95:	77 13                	ja     103faa <handleScancode+0x23a>
  103f97:	83 ec 0c             	sub    $0xc,%esp
  103f9a:	ff 75 08             	pushl  0x8(%ebp)
  103f9d:	e8 48 fd ff ff       	call   103cea <postMakeCode>
  103fa2:	83 c4 10             	add    $0x10,%esp
  103fa5:	e9 a8 07 00 00       	jmp    104752 <handleScancode+0x9e2>
  103faa:	8b 45 08             	mov    0x8(%ebp),%eax
  103fad:	83 c0 80             	add    $0xffffff80,%eax
  103fb0:	83 ec 0c             	sub    $0xc,%esp
  103fb3:	50                   	push   %eax
  103fb4:	e8 6f fd ff ff       	call   103d28 <postBreakCode>
  103fb9:	83 c4 10             	add    $0x10,%esp
  103fbc:	e9 91 07 00 00       	jmp    104752 <handleScancode+0x9e2>
  103fc1:	8b 55 08             	mov    0x8(%ebp),%edx
  103fc4:	83 ea 1c             	sub    $0x1c,%edx
  103fc7:	89 55 f4             	mov    %edx,-0xc(%ebp)
  103fca:	81 7d f4 c1 00 00 00 	cmpl   $0xc1,-0xc(%ebp)
  103fd1:	0f 87 fd 01 00 00    	ja     1041d4 <handleScancode+0x464>
  103fd7:	8b 55 f4             	mov    -0xc(%ebp),%edx
  103fda:	8b 04 95 18 88 10 00 	mov    0x108818(,%edx,4),%eax
  103fe1:	ff e0                	jmp    *%eax
  103fe3:	c7 05 af 05 10 00 02 	movl   $0x2,0x1005af
  103fea:	00 00 00 
  103fed:	8b 45 08             	mov    0x8(%ebp),%eax
  103ff0:	a3 b7 05 10 00       	mov    %eax,0x1005b7
  103ff5:	e9 58 07 00 00       	jmp    104752 <handleScancode+0x9e2>
  103ffa:	83 ec 0c             	sub    $0xc,%esp
  103ffd:	6a 5a                	push   $0x5a
  103fff:	e8 e6 fc ff ff       	call   103cea <postMakeCode>
  104004:	83 c4 10             	add    $0x10,%esp
  104007:	e9 46 07 00 00       	jmp    104752 <handleScancode+0x9e2>
  10400c:	83 ec 0c             	sub    $0xc,%esp
  10400f:	6a 5a                	push   $0x5a
  104011:	e8 12 fd ff ff       	call   103d28 <postBreakCode>
  104016:	83 c4 10             	add    $0x10,%esp
  104019:	e9 34 07 00 00       	jmp    104752 <handleScancode+0x9e2>
  10401e:	a1 64 d8 10 00       	mov    0x10d864,%eax
  104023:	80 cc 40             	or     $0x40,%ah
  104026:	a3 64 d8 10 00       	mov    %eax,0x10d864
  10402b:	83 ec 0c             	sub    $0xc,%esp
  10402e:	6a 59                	push   $0x59
  104030:	e8 b5 fc ff ff       	call   103cea <postMakeCode>
  104035:	83 c4 10             	add    $0x10,%esp
  104038:	e9 15 07 00 00       	jmp    104752 <handleScancode+0x9e2>
  10403d:	a1 64 d8 10 00       	mov    0x10d864,%eax
  104042:	80 e4 bf             	and    $0xbf,%ah
  104045:	a3 64 d8 10 00       	mov    %eax,0x10d864
  10404a:	83 ec 0c             	sub    $0xc,%esp
  10404d:	6a 59                	push   $0x59
  10404f:	e8 d4 fc ff ff       	call   103d28 <postBreakCode>
  104054:	83 c4 10             	add    $0x10,%esp
  104057:	e9 f6 06 00 00       	jmp    104752 <handleScancode+0x9e2>
  10405c:	a1 b3 05 10 00       	mov    0x1005b3,%eax
  104061:	3d e1 00 00 00       	cmp    $0xe1,%eax
  104066:	75 17                	jne    10407f <handleScancode+0x30f>
  104068:	c7 05 af 05 10 00 02 	movl   $0x2,0x1005af
  10406f:	00 00 00 
  104072:	8b 45 08             	mov    0x8(%ebp),%eax
  104075:	a3 b7 05 10 00       	mov    %eax,0x1005b7
  10407a:	e9 d3 06 00 00       	jmp    104752 <handleScancode+0x9e2>
  10407f:	a1 64 d8 10 00       	mov    0x10d864,%eax
  104084:	80 cc 10             	or     $0x10,%ah
  104087:	a3 64 d8 10 00       	mov    %eax,0x10d864
  10408c:	83 ec 0c             	sub    $0xc,%esp
  10408f:	6a 54                	push   $0x54
  104091:	e8 54 fc ff ff       	call   103cea <postMakeCode>
  104096:	83 c4 10             	add    $0x10,%esp
  104099:	e9 b4 06 00 00       	jmp    104752 <handleScancode+0x9e2>
  10409e:	a1 64 d8 10 00       	mov    0x10d864,%eax
  1040a3:	80 e4 ef             	and    $0xef,%ah
  1040a6:	a3 64 d8 10 00       	mov    %eax,0x10d864
  1040ab:	83 ec 0c             	sub    $0xc,%esp
  1040ae:	6a 54                	push   $0x54
  1040b0:	e8 73 fc ff ff       	call   103d28 <postBreakCode>
  1040b5:	83 c4 10             	add    $0x10,%esp
  1040b8:	e9 95 06 00 00       	jmp    104752 <handleScancode+0x9e2>
  1040bd:	83 ec 0c             	sub    $0xc,%esp
  1040c0:	6a 55                	push   $0x55
  1040c2:	e8 23 fc ff ff       	call   103cea <postMakeCode>
  1040c7:	83 c4 10             	add    $0x10,%esp
  1040ca:	e9 83 06 00 00       	jmp    104752 <handleScancode+0x9e2>
  1040cf:	83 ec 0c             	sub    $0xc,%esp
  1040d2:	6a 55                	push   $0x55
  1040d4:	e8 4f fc ff ff       	call   103d28 <postBreakCode>
  1040d9:	83 c4 10             	add    $0x10,%esp
  1040dc:	e9 71 06 00 00       	jmp    104752 <handleScancode+0x9e2>
  1040e1:	83 ec 0c             	sub    $0xc,%esp
  1040e4:	6a 56                	push   $0x56
  1040e6:	e8 ff fb ff ff       	call   103cea <postMakeCode>
  1040eb:	83 c4 10             	add    $0x10,%esp
  1040ee:	e9 5f 06 00 00       	jmp    104752 <handleScancode+0x9e2>
  1040f3:	8b 45 08             	mov    0x8(%ebp),%eax
  1040f6:	83 c0 14             	add    $0x14,%eax
  1040f9:	83 ec 0c             	sub    $0xc,%esp
  1040fc:	50                   	push   %eax
  1040fd:	e8 e8 fb ff ff       	call   103cea <postMakeCode>
  104102:	83 c4 10             	add    $0x10,%esp
  104105:	e9 48 06 00 00       	jmp    104752 <handleScancode+0x9e2>
  10410a:	8b 45 08             	mov    0x8(%ebp),%eax
  10410d:	83 e8 6c             	sub    $0x6c,%eax
  104110:	83 ec 0c             	sub    $0xc,%esp
  104113:	50                   	push   %eax
  104114:	e8 0f fc ff ff       	call   103d28 <postBreakCode>
  104119:	83 c4 10             	add    $0x10,%esp
  10411c:	e9 31 06 00 00       	jmp    104752 <handleScancode+0x9e2>
  104121:	83 ec 0c             	sub    $0xc,%esp
  104124:	6a 5e                	push   $0x5e
  104126:	e8 bf fb ff ff       	call   103cea <postMakeCode>
  10412b:	83 c4 10             	add    $0x10,%esp
  10412e:	e9 1f 06 00 00       	jmp    104752 <handleScancode+0x9e2>
  104133:	83 ec 0c             	sub    $0xc,%esp
  104136:	6a 5e                	push   $0x5e
  104138:	e8 eb fb ff ff       	call   103d28 <postBreakCode>
  10413d:	83 c4 10             	add    $0x10,%esp
  104140:	e9 0d 06 00 00       	jmp    104752 <handleScancode+0x9e2>
  104145:	83 ec 0c             	sub    $0xc,%esp
  104148:	6a 5f                	push   $0x5f
  10414a:	e8 9b fb ff ff       	call   103cea <postMakeCode>
  10414f:	83 c4 10             	add    $0x10,%esp
  104152:	e9 fb 05 00 00       	jmp    104752 <handleScancode+0x9e2>
  104157:	83 ec 0c             	sub    $0xc,%esp
  10415a:	6a 5f                	push   $0x5f
  10415c:	e8 c7 fb ff ff       	call   103d28 <postBreakCode>
  104161:	83 c4 10             	add    $0x10,%esp
  104164:	e9 e9 05 00 00       	jmp    104752 <handleScancode+0x9e2>
  104169:	8b 45 08             	mov    0x8(%ebp),%eax
  10416c:	83 c0 11             	add    $0x11,%eax
  10416f:	83 ec 0c             	sub    $0xc,%esp
  104172:	50                   	push   %eax
  104173:	e8 72 fb ff ff       	call   103cea <postMakeCode>
  104178:	83 c4 10             	add    $0x10,%esp
  10417b:	e9 d2 05 00 00       	jmp    104752 <handleScancode+0x9e2>
  104180:	8b 45 08             	mov    0x8(%ebp),%eax
  104183:	83 e8 6f             	sub    $0x6f,%eax
  104186:	83 ec 0c             	sub    $0xc,%esp
  104189:	50                   	push   %eax
  10418a:	e8 99 fb ff ff       	call   103d28 <postBreakCode>
  10418f:	83 c4 10             	add    $0x10,%esp
  104192:	e9 bb 05 00 00       	jmp    104752 <handleScancode+0x9e2>
  104197:	8b 45 08             	mov    0x8(%ebp),%eax
  10419a:	83 c0 0a             	add    $0xa,%eax
  10419d:	83 ec 0c             	sub    $0xc,%esp
  1041a0:	50                   	push   %eax
  1041a1:	e8 44 fb ff ff       	call   103cea <postMakeCode>
  1041a6:	83 c4 10             	add    $0x10,%esp
  1041a9:	e9 a4 05 00 00       	jmp    104752 <handleScancode+0x9e2>
  1041ae:	8b 45 08             	mov    0x8(%ebp),%eax
  1041b1:	83 e8 76             	sub    $0x76,%eax
  1041b4:	83 ec 0c             	sub    $0xc,%esp
  1041b7:	50                   	push   %eax
  1041b8:	e8 6b fb ff ff       	call   103d28 <postBreakCode>
  1041bd:	83 c4 10             	add    $0x10,%esp
  1041c0:	e9 8d 05 00 00       	jmp    104752 <handleScancode+0x9e2>
  1041c5:	c7 05 af 05 10 00 00 	movl   $0x0,0x1005af
  1041cc:	00 00 00 
  1041cf:	e9 7e 05 00 00       	jmp    104752 <handleScancode+0x9e2>
  1041d4:	83 ec 0c             	sub    $0xc,%esp
  1041d7:	68 43 87 10 00       	push   $0x108743
  1041dc:	e8 3f d2 ff ff       	call   101420 <display>
  1041e1:	83 c4 10             	add    $0x10,%esp
  1041e4:	a1 b3 05 10 00       	mov    0x1005b3,%eax
  1041e9:	83 ec 0c             	sub    $0xc,%esp
  1041ec:	50                   	push   %eax
  1041ed:	e8 7e d2 ff ff       	call   101470 <PrintNumber>
  1041f2:	83 c4 10             	add    $0x10,%esp
  1041f5:	83 ec 0c             	sub    $0xc,%esp
  1041f8:	68 5f 87 10 00       	push   $0x10875f
  1041fd:	e8 1e d2 ff ff       	call   101420 <display>
  104202:	83 c4 10             	add    $0x10,%esp
  104205:	83 ec 0c             	sub    $0xc,%esp
  104208:	ff 75 08             	pushl  0x8(%ebp)
  10420b:	e8 60 d2 ff ff       	call   101470 <PrintNumber>
  104210:	83 c4 10             	add    $0x10,%esp
  104213:	83 ec 0c             	sub    $0xc,%esp
  104216:	68 41 87 10 00       	push   $0x108741
  10421b:	e8 00 d2 ff ff       	call   101420 <display>
  104220:	83 c4 10             	add    $0x10,%esp
  104223:	c7 05 af 05 10 00 00 	movl   $0x0,0x1005af
  10422a:	00 00 00 
  10422d:	e9 20 05 00 00       	jmp    104752 <handleScancode+0x9e2>
  104232:	8b 45 08             	mov    0x8(%ebp),%eax
  104235:	89 45 f0             	mov    %eax,-0x10(%ebp)
  104238:	83 7d f0 45          	cmpl   $0x45,-0x10(%ebp)
  10423c:	74 0b                	je     104249 <handleScancode+0x4d9>
  10423e:	81 7d f0 e0 00 00 00 	cmpl   $0xe0,-0x10(%ebp)
  104245:	74 02                	je     104249 <handleScancode+0x4d9>
  104247:	eb 17                	jmp    104260 <handleScancode+0x4f0>
  104249:	c7 05 af 05 10 00 03 	movl   $0x3,0x1005af
  104250:	00 00 00 
  104253:	8b 45 08             	mov    0x8(%ebp),%eax
  104256:	a3 bb 05 10 00       	mov    %eax,0x1005bb
  10425b:	e9 f2 04 00 00       	jmp    104752 <handleScancode+0x9e2>
  104260:	83 ec 0c             	sub    $0xc,%esp
  104263:	68 61 87 10 00       	push   $0x108761
  104268:	e8 b3 d1 ff ff       	call   101420 <display>
  10426d:	83 c4 10             	add    $0x10,%esp
  104270:	a1 b3 05 10 00       	mov    0x1005b3,%eax
  104275:	83 ec 0c             	sub    $0xc,%esp
  104278:	50                   	push   %eax
  104279:	e8 f2 d1 ff ff       	call   101470 <PrintNumber>
  10427e:	83 c4 10             	add    $0x10,%esp
  104281:	83 ec 0c             	sub    $0xc,%esp
  104284:	68 5f 87 10 00       	push   $0x10875f
  104289:	e8 92 d1 ff ff       	call   101420 <display>
  10428e:	83 c4 10             	add    $0x10,%esp
  104291:	a1 b7 05 10 00       	mov    0x1005b7,%eax
  104296:	83 ec 0c             	sub    $0xc,%esp
  104299:	50                   	push   %eax
  10429a:	e8 d1 d1 ff ff       	call   101470 <PrintNumber>
  10429f:	83 c4 10             	add    $0x10,%esp
  1042a2:	83 ec 0c             	sub    $0xc,%esp
  1042a5:	68 5f 87 10 00       	push   $0x10875f
  1042aa:	e8 71 d1 ff ff       	call   101420 <display>
  1042af:	83 c4 10             	add    $0x10,%esp
  1042b2:	83 ec 0c             	sub    $0xc,%esp
  1042b5:	ff 75 08             	pushl  0x8(%ebp)
  1042b8:	e8 b3 d1 ff ff       	call   101470 <PrintNumber>
  1042bd:	83 c4 10             	add    $0x10,%esp
  1042c0:	83 ec 0c             	sub    $0xc,%esp
  1042c3:	68 41 87 10 00       	push   $0x108741
  1042c8:	e8 53 d1 ff ff       	call   101420 <display>
  1042cd:	83 c4 10             	add    $0x10,%esp
  1042d0:	c7 05 af 05 10 00 00 	movl   $0x0,0x1005af
  1042d7:	00 00 00 
  1042da:	e9 73 04 00 00       	jmp    104752 <handleScancode+0x9e2>
  1042df:	8b 55 08             	mov    0x8(%ebp),%edx
  1042e2:	89 55 ec             	mov    %edx,-0x14(%ebp)
  1042e5:	81 7d ec aa 00 00 00 	cmpl   $0xaa,-0x14(%ebp)
  1042ec:	0f 84 9c 01 00 00    	je     10448e <handleScancode+0x71e>
  1042f2:	81 7d ec aa 00 00 00 	cmpl   $0xaa,-0x14(%ebp)
  1042f9:	77 60                	ja     10435b <handleScancode+0x5eb>
  1042fb:	83 7d ec 4b          	cmpl   $0x4b,-0x14(%ebp)
  1042ff:	0f 84 01 01 00 00    	je     104406 <handleScancode+0x696>
  104305:	83 7d ec 4b          	cmpl   $0x4b,-0x14(%ebp)
  104309:	77 28                	ja     104333 <handleScancode+0x5c3>
  10430b:	83 7d ec 37          	cmpl   $0x37,-0x14(%ebp)
  10430f:	0f 84 67 01 00 00    	je     10447c <handleScancode+0x70c>
  104315:	83 7d ec 37          	cmpl   $0x37,-0x14(%ebp)
  104319:	0f 82 81 01 00 00    	jb     1044a0 <handleScancode+0x730>
  10431f:	8b 45 ec             	mov    -0x14(%ebp),%eax
  104322:	83 e8 47             	sub    $0x47,%eax
  104325:	83 f8 02             	cmp    $0x2,%eax
  104328:	0f 87 72 01 00 00    	ja     1044a0 <handleScancode+0x730>
  10432e:	e9 a5 00 00 00       	jmp    1043d8 <handleScancode+0x668>
  104333:	83 7d ec 4d          	cmpl   $0x4d,-0x14(%ebp)
  104337:	0f 84 ed 00 00 00    	je     10442a <handleScancode+0x6ba>
  10433d:	83 7d ec 4d          	cmpl   $0x4d,-0x14(%ebp)
  104341:	0f 82 59 01 00 00    	jb     1044a0 <handleScancode+0x730>
  104347:	8b 45 ec             	mov    -0x14(%ebp),%eax
  10434a:	83 e8 4f             	sub    $0x4f,%eax
  10434d:	83 f8 04             	cmp    $0x4,%eax
  104350:	0f 87 4a 01 00 00    	ja     1044a0 <handleScancode+0x730>
  104356:	e9 f3 00 00 00       	jmp    10444e <handleScancode+0x6de>
  10435b:	81 7d ec cd 00 00 00 	cmpl   $0xcd,-0x14(%ebp)
  104362:	0f 84 d4 00 00 00    	je     10443c <handleScancode+0x6cc>
  104368:	81 7d ec cd 00 00 00 	cmpl   $0xcd,-0x14(%ebp)
  10436f:	77 28                	ja     104399 <handleScancode+0x629>
  104371:	81 7d ec c7 00 00 00 	cmpl   $0xc7,-0x14(%ebp)
  104378:	0f 82 22 01 00 00    	jb     1044a0 <handleScancode+0x730>
  10437e:	81 7d ec c9 00 00 00 	cmpl   $0xc9,-0x14(%ebp)
  104385:	76 68                	jbe    1043ef <handleScancode+0x67f>
  104387:	81 7d ec cb 00 00 00 	cmpl   $0xcb,-0x14(%ebp)
  10438e:	0f 84 84 00 00 00    	je     104418 <handleScancode+0x6a8>
  104394:	e9 07 01 00 00       	jmp    1044a0 <handleScancode+0x730>
  104399:	81 7d ec cf 00 00 00 	cmpl   $0xcf,-0x14(%ebp)
  1043a0:	0f 82 fa 00 00 00    	jb     1044a0 <handleScancode+0x730>
  1043a6:	81 7d ec d3 00 00 00 	cmpl   $0xd3,-0x14(%ebp)
  1043ad:	0f 86 b2 00 00 00    	jbe    104465 <handleScancode+0x6f5>
  1043b3:	81 7d ec e1 00 00 00 	cmpl   $0xe1,-0x14(%ebp)
  1043ba:	74 05                	je     1043c1 <handleScancode+0x651>
  1043bc:	e9 df 00 00 00       	jmp    1044a0 <handleScancode+0x730>
  1043c1:	c7 05 af 05 10 00 04 	movl   $0x4,0x1005af
  1043c8:	00 00 00 
  1043cb:	8b 45 08             	mov    0x8(%ebp),%eax
  1043ce:	a3 bf 05 10 00       	mov    %eax,0x1005bf
  1043d3:	e9 7a 03 00 00       	jmp    104752 <handleScancode+0x9e2>
  1043d8:	8b 45 08             	mov    0x8(%ebp),%eax
  1043db:	83 c0 14             	add    $0x14,%eax
  1043de:	83 ec 0c             	sub    $0xc,%esp
  1043e1:	50                   	push   %eax
  1043e2:	e8 03 f9 ff ff       	call   103cea <postMakeCode>
  1043e7:	83 c4 10             	add    $0x10,%esp
  1043ea:	e9 63 03 00 00       	jmp    104752 <handleScancode+0x9e2>
  1043ef:	8b 45 08             	mov    0x8(%ebp),%eax
  1043f2:	83 e8 6c             	sub    $0x6c,%eax
  1043f5:	83 ec 0c             	sub    $0xc,%esp
  1043f8:	50                   	push   %eax
  1043f9:	e8 2a f9 ff ff       	call   103d28 <postBreakCode>
  1043fe:	83 c4 10             	add    $0x10,%esp
  104401:	e9 4c 03 00 00       	jmp    104752 <handleScancode+0x9e2>
  104406:	83 ec 0c             	sub    $0xc,%esp
  104409:	6a 5e                	push   $0x5e
  10440b:	e8 da f8 ff ff       	call   103cea <postMakeCode>
  104410:	83 c4 10             	add    $0x10,%esp
  104413:	e9 3a 03 00 00       	jmp    104752 <handleScancode+0x9e2>
  104418:	83 ec 0c             	sub    $0xc,%esp
  10441b:	6a 5e                	push   $0x5e
  10441d:	e8 06 f9 ff ff       	call   103d28 <postBreakCode>
  104422:	83 c4 10             	add    $0x10,%esp
  104425:	e9 28 03 00 00       	jmp    104752 <handleScancode+0x9e2>
  10442a:	83 ec 0c             	sub    $0xc,%esp
  10442d:	6a 5f                	push   $0x5f
  10442f:	e8 b6 f8 ff ff       	call   103cea <postMakeCode>
  104434:	83 c4 10             	add    $0x10,%esp
  104437:	e9 16 03 00 00       	jmp    104752 <handleScancode+0x9e2>
  10443c:	83 ec 0c             	sub    $0xc,%esp
  10443f:	6a 5f                	push   $0x5f
  104441:	e8 e2 f8 ff ff       	call   103d28 <postBreakCode>
  104446:	83 c4 10             	add    $0x10,%esp
  104449:	e9 04 03 00 00       	jmp    104752 <handleScancode+0x9e2>
  10444e:	8b 45 08             	mov    0x8(%ebp),%eax
  104451:	83 c0 11             	add    $0x11,%eax
  104454:	83 ec 0c             	sub    $0xc,%esp
  104457:	50                   	push   %eax
  104458:	e8 8d f8 ff ff       	call   103cea <postMakeCode>
  10445d:	83 c4 10             	add    $0x10,%esp
  104460:	e9 ed 02 00 00       	jmp    104752 <handleScancode+0x9e2>
  104465:	8b 45 08             	mov    0x8(%ebp),%eax
  104468:	83 e8 6f             	sub    $0x6f,%eax
  10446b:	83 ec 0c             	sub    $0xc,%esp
  10446e:	50                   	push   %eax
  10446f:	e8 b4 f8 ff ff       	call   103d28 <postBreakCode>
  104474:	83 c4 10             	add    $0x10,%esp
  104477:	e9 d6 02 00 00       	jmp    104752 <handleScancode+0x9e2>
  10447c:	83 ec 0c             	sub    $0xc,%esp
  10447f:	6a 56                	push   $0x56
  104481:	e8 64 f8 ff ff       	call   103cea <postMakeCode>
  104486:	83 c4 10             	add    $0x10,%esp
  104489:	e9 c4 02 00 00       	jmp    104752 <handleScancode+0x9e2>
  10448e:	83 ec 0c             	sub    $0xc,%esp
  104491:	6a 56                	push   $0x56
  104493:	e8 90 f8 ff ff       	call   103d28 <postBreakCode>
  104498:	83 c4 10             	add    $0x10,%esp
  10449b:	e9 b2 02 00 00       	jmp    104752 <handleScancode+0x9e2>
  1044a0:	83 ec 0c             	sub    $0xc,%esp
  1044a3:	68 7f 87 10 00       	push   $0x10877f
  1044a8:	e8 73 cf ff ff       	call   101420 <display>
  1044ad:	83 c4 10             	add    $0x10,%esp
  1044b0:	a1 b3 05 10 00       	mov    0x1005b3,%eax
  1044b5:	83 ec 0c             	sub    $0xc,%esp
  1044b8:	50                   	push   %eax
  1044b9:	e8 b2 cf ff ff       	call   101470 <PrintNumber>
  1044be:	83 c4 10             	add    $0x10,%esp
  1044c1:	83 ec 0c             	sub    $0xc,%esp
  1044c4:	68 5f 87 10 00       	push   $0x10875f
  1044c9:	e8 52 cf ff ff       	call   101420 <display>
  1044ce:	83 c4 10             	add    $0x10,%esp
  1044d1:	a1 b7 05 10 00       	mov    0x1005b7,%eax
  1044d6:	83 ec 0c             	sub    $0xc,%esp
  1044d9:	50                   	push   %eax
  1044da:	e8 91 cf ff ff       	call   101470 <PrintNumber>
  1044df:	83 c4 10             	add    $0x10,%esp
  1044e2:	83 ec 0c             	sub    $0xc,%esp
  1044e5:	68 5f 87 10 00       	push   $0x10875f
  1044ea:	e8 31 cf ff ff       	call   101420 <display>
  1044ef:	83 c4 10             	add    $0x10,%esp
  1044f2:	a1 bb 05 10 00       	mov    0x1005bb,%eax
  1044f7:	83 ec 0c             	sub    $0xc,%esp
  1044fa:	50                   	push   %eax
  1044fb:	e8 70 cf ff ff       	call   101470 <PrintNumber>
  104500:	83 c4 10             	add    $0x10,%esp
  104503:	83 ec 0c             	sub    $0xc,%esp
  104506:	68 5f 87 10 00       	push   $0x10875f
  10450b:	e8 10 cf ff ff       	call   101420 <display>
  104510:	83 c4 10             	add    $0x10,%esp
  104513:	83 ec 0c             	sub    $0xc,%esp
  104516:	ff 75 08             	pushl  0x8(%ebp)
  104519:	e8 52 cf ff ff       	call   101470 <PrintNumber>
  10451e:	83 c4 10             	add    $0x10,%esp
  104521:	83 ec 0c             	sub    $0xc,%esp
  104524:	68 41 87 10 00       	push   $0x108741
  104529:	e8 f2 ce ff ff       	call   101420 <display>
  10452e:	83 c4 10             	add    $0x10,%esp
  104531:	c7 05 af 05 10 00 00 	movl   $0x0,0x1005af
  104538:	00 00 00 
  10453b:	e9 12 02 00 00       	jmp    104752 <handleScancode+0x9e2>
  104540:	8b 45 08             	mov    0x8(%ebp),%eax
  104543:	3d 9d 00 00 00       	cmp    $0x9d,%eax
  104548:	74 02                	je     10454c <handleScancode+0x7dc>
  10454a:	eb 17                	jmp    104563 <handleScancode+0x7f3>
  10454c:	c7 05 af 05 10 00 05 	movl   $0x5,0x1005af
  104553:	00 00 00 
  104556:	8b 45 08             	mov    0x8(%ebp),%eax
  104559:	a3 c3 05 10 00       	mov    %eax,0x1005c3
  10455e:	e9 ef 01 00 00       	jmp    104752 <handleScancode+0x9e2>
  104563:	83 ec 0c             	sub    $0xc,%esp
  104566:	68 9c 87 10 00       	push   $0x10879c
  10456b:	e8 b0 ce ff ff       	call   101420 <display>
  104570:	83 c4 10             	add    $0x10,%esp
  104573:	a1 b3 05 10 00       	mov    0x1005b3,%eax
  104578:	83 ec 0c             	sub    $0xc,%esp
  10457b:	50                   	push   %eax
  10457c:	e8 ef ce ff ff       	call   101470 <PrintNumber>
  104581:	83 c4 10             	add    $0x10,%esp
  104584:	83 ec 0c             	sub    $0xc,%esp
  104587:	68 5f 87 10 00       	push   $0x10875f
  10458c:	e8 8f ce ff ff       	call   101420 <display>
  104591:	83 c4 10             	add    $0x10,%esp
  104594:	a1 b7 05 10 00       	mov    0x1005b7,%eax
  104599:	83 ec 0c             	sub    $0xc,%esp
  10459c:	50                   	push   %eax
  10459d:	e8 ce ce ff ff       	call   101470 <PrintNumber>
  1045a2:	83 c4 10             	add    $0x10,%esp
  1045a5:	83 ec 0c             	sub    $0xc,%esp
  1045a8:	68 5f 87 10 00       	push   $0x10875f
  1045ad:	e8 6e ce ff ff       	call   101420 <display>
  1045b2:	83 c4 10             	add    $0x10,%esp
  1045b5:	a1 bb 05 10 00       	mov    0x1005bb,%eax
  1045ba:	83 ec 0c             	sub    $0xc,%esp
  1045bd:	50                   	push   %eax
  1045be:	e8 ad ce ff ff       	call   101470 <PrintNumber>
  1045c3:	83 c4 10             	add    $0x10,%esp
  1045c6:	83 ec 0c             	sub    $0xc,%esp
  1045c9:	68 5f 87 10 00       	push   $0x10875f
  1045ce:	e8 4d ce ff ff       	call   101420 <display>
  1045d3:	83 c4 10             	add    $0x10,%esp
  1045d6:	a1 bf 05 10 00       	mov    0x1005bf,%eax
  1045db:	83 ec 0c             	sub    $0xc,%esp
  1045de:	50                   	push   %eax
  1045df:	e8 8c ce ff ff       	call   101470 <PrintNumber>
  1045e4:	83 c4 10             	add    $0x10,%esp
  1045e7:	83 ec 0c             	sub    $0xc,%esp
  1045ea:	68 5f 87 10 00       	push   $0x10875f
  1045ef:	e8 2c ce ff ff       	call   101420 <display>
  1045f4:	83 c4 10             	add    $0x10,%esp
  1045f7:	83 ec 0c             	sub    $0xc,%esp
  1045fa:	ff 75 08             	pushl  0x8(%ebp)
  1045fd:	e8 6e ce ff ff       	call   101470 <PrintNumber>
  104602:	83 c4 10             	add    $0x10,%esp
  104605:	83 ec 0c             	sub    $0xc,%esp
  104608:	68 41 87 10 00       	push   $0x108741
  10460d:	e8 0e ce ff ff       	call   101420 <display>
  104612:	83 c4 10             	add    $0x10,%esp
  104615:	c7 05 af 05 10 00 00 	movl   $0x0,0x1005af
  10461c:	00 00 00 
  10461f:	e9 2e 01 00 00       	jmp    104752 <handleScancode+0x9e2>
  104624:	8b 45 08             	mov    0x8(%ebp),%eax
  104627:	3d c5 00 00 00       	cmp    $0xc5,%eax
  10462c:	74 02                	je     104630 <handleScancode+0x8c0>
  10462e:	eb 12                	jmp    104642 <handleScancode+0x8d2>
  104630:	83 ec 0c             	sub    $0xc,%esp
  104633:	6a 68                	push   $0x68
  104635:	e8 b0 f6 ff ff       	call   103cea <postMakeCode>
  10463a:	83 c4 10             	add    $0x10,%esp
  10463d:	e9 10 01 00 00       	jmp    104752 <handleScancode+0x9e2>
  104642:	83 ec 0c             	sub    $0xc,%esp
  104645:	68 b9 87 10 00       	push   $0x1087b9
  10464a:	e8 d1 cd ff ff       	call   101420 <display>
  10464f:	83 c4 10             	add    $0x10,%esp
  104652:	a1 b3 05 10 00       	mov    0x1005b3,%eax
  104657:	83 ec 0c             	sub    $0xc,%esp
  10465a:	50                   	push   %eax
  10465b:	e8 10 ce ff ff       	call   101470 <PrintNumber>
  104660:	83 c4 10             	add    $0x10,%esp
  104663:	83 ec 0c             	sub    $0xc,%esp
  104666:	68 5f 87 10 00       	push   $0x10875f
  10466b:	e8 b0 cd ff ff       	call   101420 <display>
  104670:	83 c4 10             	add    $0x10,%esp
  104673:	a1 b7 05 10 00       	mov    0x1005b7,%eax
  104678:	83 ec 0c             	sub    $0xc,%esp
  10467b:	50                   	push   %eax
  10467c:	e8 ef cd ff ff       	call   101470 <PrintNumber>
  104681:	83 c4 10             	add    $0x10,%esp
  104684:	83 ec 0c             	sub    $0xc,%esp
  104687:	68 5f 87 10 00       	push   $0x10875f
  10468c:	e8 8f cd ff ff       	call   101420 <display>
  104691:	83 c4 10             	add    $0x10,%esp
  104694:	a1 bb 05 10 00       	mov    0x1005bb,%eax
  104699:	83 ec 0c             	sub    $0xc,%esp
  10469c:	50                   	push   %eax
  10469d:	e8 ce cd ff ff       	call   101470 <PrintNumber>
  1046a2:	83 c4 10             	add    $0x10,%esp
  1046a5:	83 ec 0c             	sub    $0xc,%esp
  1046a8:	68 5f 87 10 00       	push   $0x10875f
  1046ad:	e8 6e cd ff ff       	call   101420 <display>
  1046b2:	83 c4 10             	add    $0x10,%esp
  1046b5:	a1 bf 05 10 00       	mov    0x1005bf,%eax
  1046ba:	83 ec 0c             	sub    $0xc,%esp
  1046bd:	50                   	push   %eax
  1046be:	e8 ad cd ff ff       	call   101470 <PrintNumber>
  1046c3:	83 c4 10             	add    $0x10,%esp
  1046c6:	83 ec 0c             	sub    $0xc,%esp
  1046c9:	68 5f 87 10 00       	push   $0x10875f
  1046ce:	e8 4d cd ff ff       	call   101420 <display>
  1046d3:	83 c4 10             	add    $0x10,%esp
  1046d6:	a1 c3 05 10 00       	mov    0x1005c3,%eax
  1046db:	83 ec 0c             	sub    $0xc,%esp
  1046de:	50                   	push   %eax
  1046df:	e8 8c cd ff ff       	call   101470 <PrintNumber>
  1046e4:	83 c4 10             	add    $0x10,%esp
  1046e7:	83 ec 0c             	sub    $0xc,%esp
  1046ea:	68 5f 87 10 00       	push   $0x10875f
  1046ef:	e8 2c cd ff ff       	call   101420 <display>
  1046f4:	83 c4 10             	add    $0x10,%esp
  1046f7:	83 ec 0c             	sub    $0xc,%esp
  1046fa:	ff 75 08             	pushl  0x8(%ebp)
  1046fd:	e8 6e cd ff ff       	call   101470 <PrintNumber>
  104702:	83 c4 10             	add    $0x10,%esp
  104705:	83 ec 0c             	sub    $0xc,%esp
  104708:	68 41 87 10 00       	push   $0x108741
  10470d:	e8 0e cd ff ff       	call   101420 <display>
  104712:	83 c4 10             	add    $0x10,%esp
  104715:	c7 05 af 05 10 00 00 	movl   $0x0,0x1005af
  10471c:	00 00 00 
  10471f:	eb 31                	jmp    104752 <handleScancode+0x9e2>
  104721:	83 ec 0c             	sub    $0xc,%esp
  104724:	68 d8 87 10 00       	push   $0x1087d8
  104729:	e8 f2 cc ff ff       	call   101420 <display>
  10472e:	83 c4 10             	add    $0x10,%esp
  104731:	a1 af 05 10 00       	mov    0x1005af,%eax
  104736:	83 ec 0c             	sub    $0xc,%esp
  104739:	50                   	push   %eax
  10473a:	e8 31 cd ff ff       	call   101470 <PrintNumber>
  10473f:	83 c4 10             	add    $0x10,%esp
  104742:	83 ec 0c             	sub    $0xc,%esp
  104745:	68 fc 87 10 00       	push   $0x1087fc
  10474a:	e8 d1 cc ff ff       	call   101420 <display>
  10474f:	83 c4 10             	add    $0x10,%esp
  104752:	c9                   	leave  
  104753:	c3                   	ret    

00104754 <enter_spinlock>:
  104754:	55                   	push   %ebp
  104755:	89 e5                	mov    %esp,%ebp
  104757:	83 ec 18             	sub    $0x18,%esp
  10475a:	8b 45 08             	mov    0x8(%ebp),%eax
  10475d:	89 45 ec             	mov    %eax,-0x14(%ebp)
  104760:	83 7d ec 04          	cmpl   $0x4,-0x14(%ebp)
  104764:	74 0e                	je     104774 <enter_spinlock+0x20>
  104766:	83 7d ec 05          	cmpl   $0x5,-0x14(%ebp)
  10476a:	74 18                	je     104784 <enter_spinlock+0x30>
  10476c:	83 7d ec 02          	cmpl   $0x2,-0x14(%ebp)
  104770:	74 12                	je     104784 <enter_spinlock+0x30>
  104772:	eb 20                	jmp    104794 <enter_spinlock+0x40>
  104774:	fa                   	cli    
  104775:	83 ec 0c             	sub    $0xc,%esp
  104778:	6a 01                	push   $0x1
  10477a:	e8 95 f3 ff ff       	call   103b14 <clearIRQ>
  10477f:	83 c4 10             	add    $0x10,%esp
  104782:	eb 10                	jmp    104794 <enter_spinlock+0x40>
  104784:	fa                   	cli    
  104785:	eb 0d                	jmp    104794 <enter_spinlock+0x40>
  104787:	83 ec 0c             	sub    $0xc,%esp
  10478a:	6a 3f                	push   $0x3f
  10478c:	e8 72 cd ff ff       	call   101503 <put>
  104791:	83 c4 10             	add    $0x10,%esp
  104794:	8b 55 08             	mov    0x8(%ebp),%edx
  104797:	89 d0                	mov    %edx,%eax
  104799:	d1 e0                	shl    %eax
  10479b:	01 d0                	add    %edx,%eax
  10479d:	c1 e0 02             	shl    $0x2,%eax
  1047a0:	05 80 d8 10 00       	add    $0x10d880,%eax
  1047a5:	83 c0 04             	add    $0x4,%eax
  1047a8:	83 ec 08             	sub    $0x8,%esp
  1047ab:	50                   	push   %eax
  1047ac:	6a 01                	push   $0x1
  1047ae:	e8 8a ba ff ff       	call   10023d <test_and_set>
  1047b3:	83 c4 10             	add    $0x10,%esp
  1047b6:	85 c0                	test   %eax,%eax
  1047b8:	75 cd                	jne    104787 <enter_spinlock+0x33>
  1047ba:	8b 55 08             	mov    0x8(%ebp),%edx
  1047bd:	89 d0                	mov    %edx,%eax
  1047bf:	d1 e0                	shl    %eax
  1047c1:	01 d0                	add    %edx,%eax
  1047c3:	c1 e0 02             	shl    $0x2,%eax
  1047c6:	c7 80 80 d8 10 00 01 	movl   $0x1,0x10d880(%eax)
  1047cd:	00 00 00 
  1047d0:	8b 45 08             	mov    0x8(%ebp),%eax
  1047d3:	40                   	inc    %eax
  1047d4:	89 45 fc             	mov    %eax,-0x4(%ebp)
  1047d7:	eb 1e                	jmp    1047f7 <enter_spinlock+0xa3>
  1047d9:	8b 45 08             	mov    0x8(%ebp),%eax
  1047dc:	48                   	dec    %eax
  1047dd:	89 c2                	mov    %eax,%edx
  1047df:	d1 e2                	shl    %edx
  1047e1:	01 c2                	add    %eax,%edx
  1047e3:	8d 04 95 00 00 00 00 	lea    0x0(,%edx,4),%eax
  1047ea:	c7 80 84 d8 10 00 01 	movl   $0x1,0x10d884(%eax)
  1047f1:	00 00 00 
  1047f4:	ff 4d fc             	decl   -0x4(%ebp)
  1047f7:	83 7d fc 00          	cmpl   $0x0,-0x4(%ebp)
  1047fb:	75 dc                	jne    1047d9 <enter_spinlock+0x85>
  1047fd:	c9                   	leave  
  1047fe:	c3                   	ret    

001047ff <leave_spinlock>:
  1047ff:	55                   	push   %ebp
  104800:	89 e5                	mov    %esp,%ebp
  104802:	83 ec 18             	sub    $0x18,%esp
  104805:	8b 55 08             	mov    0x8(%ebp),%edx
  104808:	89 d0                	mov    %edx,%eax
  10480a:	d1 e0                	shl    %eax
  10480c:	01 d0                	add    %edx,%eax
  10480e:	c1 e0 02             	shl    $0x2,%eax
  104811:	8b 80 80 d8 10 00    	mov    0x10d880(%eax),%eax
  104817:	83 f8 01             	cmp    $0x1,%eax
  10481a:	74 77                	je     104893 <leave_spinlock+0x94>
  10481c:	83 ec 0c             	sub    $0xc,%esp
  10481f:	6a 3f                	push   $0x3f
  104821:	e8 dd cc ff ff       	call   101503 <put>
  104826:	83 c4 10             	add    $0x10,%esp
  104829:	83 ec 0c             	sub    $0xc,%esp
  10482c:	6a 3f                	push   $0x3f
  10482e:	e8 d0 cc ff ff       	call   101503 <put>
  104833:	83 c4 10             	add    $0x10,%esp
  104836:	83 ec 0c             	sub    $0xc,%esp
  104839:	6a 3f                	push   $0x3f
  10483b:	e8 c3 cc ff ff       	call   101503 <put>
  104840:	83 c4 10             	add    $0x10,%esp
  104843:	83 ec 0c             	sub    $0xc,%esp
  104846:	6a 3f                	push   $0x3f
  104848:	e8 b6 cc ff ff       	call   101503 <put>
  10484d:	83 c4 10             	add    $0x10,%esp
  104850:	83 ec 0c             	sub    $0xc,%esp
  104853:	6a 3f                	push   $0x3f
  104855:	e8 a9 cc ff ff       	call   101503 <put>
  10485a:	83 c4 10             	add    $0x10,%esp
  10485d:	83 ec 0c             	sub    $0xc,%esp
  104860:	6a 3f                	push   $0x3f
  104862:	e8 9c cc ff ff       	call   101503 <put>
  104867:	83 c4 10             	add    $0x10,%esp
  10486a:	83 ec 0c             	sub    $0xc,%esp
  10486d:	6a 3f                	push   $0x3f
  10486f:	e8 8f cc ff ff       	call   101503 <put>
  104874:	83 c4 10             	add    $0x10,%esp
  104877:	83 ec 0c             	sub    $0xc,%esp
  10487a:	6a 3f                	push   $0x3f
  10487c:	e8 82 cc ff ff       	call   101503 <put>
  104881:	83 c4 10             	add    $0x10,%esp
  104884:	83 ec 0c             	sub    $0xc,%esp
  104887:	6a 0a                	push   $0xa
  104889:	e8 75 cc ff ff       	call   101503 <put>
  10488e:	83 c4 10             	add    $0x10,%esp
  104891:	eb fe                	jmp    104891 <leave_spinlock+0x92>
  104893:	8b 55 08             	mov    0x8(%ebp),%edx
  104896:	89 d0                	mov    %edx,%eax
  104898:	d1 e0                	shl    %eax
  10489a:	01 d0                	add    %edx,%eax
  10489c:	c1 e0 02             	shl    $0x2,%eax
  10489f:	c7 80 80 d8 10 00 00 	movl   $0x0,0x10d880(%eax)
  1048a6:	00 00 00 
  1048a9:	8b 55 08             	mov    0x8(%ebp),%edx
  1048ac:	89 d0                	mov    %edx,%eax
  1048ae:	d1 e0                	shl    %eax
  1048b0:	01 d0                	add    %edx,%eax
  1048b2:	c1 e0 02             	shl    $0x2,%eax
  1048b5:	c7 80 84 d8 10 00 00 	movl   $0x0,0x10d884(%eax)
  1048bc:	00 00 00 
  1048bf:	8b 45 08             	mov    0x8(%ebp),%eax
  1048c2:	89 45 fc             	mov    %eax,-0x4(%ebp)
  1048c5:	eb 46                	jmp    10490d <leave_spinlock+0x10e>
  1048c7:	8b 55 fc             	mov    -0x4(%ebp),%edx
  1048ca:	89 d0                	mov    %edx,%eax
  1048cc:	d1 e0                	shl    %eax
  1048ce:	01 d0                	add    %edx,%eax
  1048d0:	c1 e0 02             	shl    $0x2,%eax
  1048d3:	8b 80 80 d8 10 00    	mov    0x10d880(%eax),%eax
  1048d9:	83 f8 01             	cmp    $0x1,%eax
  1048dc:	74 35                	je     104913 <leave_spinlock+0x114>
  1048de:	8b 55 fc             	mov    -0x4(%ebp),%edx
  1048e1:	89 d0                	mov    %edx,%eax
  1048e3:	d1 e0                	shl    %eax
  1048e5:	01 d0                	add    %edx,%eax
  1048e7:	c1 e0 02             	shl    $0x2,%eax
  1048ea:	c7 80 80 d8 10 00 00 	movl   $0x0,0x10d880(%eax)
  1048f1:	00 00 00 
  1048f4:	8b 55 fc             	mov    -0x4(%ebp),%edx
  1048f7:	89 d0                	mov    %edx,%eax
  1048f9:	d1 e0                	shl    %eax
  1048fb:	01 d0                	add    %edx,%eax
  1048fd:	c1 e0 02             	shl    $0x2,%eax
  104900:	c7 80 84 d8 10 00 00 	movl   $0x0,0x10d884(%eax)
  104907:	00 00 00 
  10490a:	ff 4d fc             	decl   -0x4(%ebp)
  10490d:	83 7d fc 00          	cmpl   $0x0,-0x4(%ebp)
  104911:	75 b4                	jne    1048c7 <leave_spinlock+0xc8>
  104913:	8b 45 08             	mov    0x8(%ebp),%eax
  104916:	89 45 ec             	mov    %eax,-0x14(%ebp)
  104919:	83 7d ec 04          	cmpl   $0x4,-0x14(%ebp)
  10491d:	74 0e                	je     10492d <leave_spinlock+0x12e>
  10491f:	83 7d ec 05          	cmpl   $0x5,-0x14(%ebp)
  104923:	74 18                	je     10493d <leave_spinlock+0x13e>
  104925:	83 7d ec 02          	cmpl   $0x2,-0x14(%ebp)
  104929:	74 12                	je     10493d <leave_spinlock+0x13e>
  10492b:	eb 11                	jmp    10493e <leave_spinlock+0x13f>
  10492d:	83 ec 0c             	sub    $0xc,%esp
  104930:	6a 00                	push   $0x0
  104932:	e8 fd f1 ff ff       	call   103b34 <enableIRQ>
  104937:	83 c4 10             	add    $0x10,%esp
  10493a:	fb                   	sti    
  10493b:	eb 01                	jmp    10493e <leave_spinlock+0x13f>
  10493d:	fb                   	sti    
  10493e:	c9                   	leave  
  10493f:	c3                   	ret    

00104940 <initialize_spinlock>:
  104940:	55                   	push   %ebp
  104941:	89 e5                	mov    %esp,%ebp
  104943:	83 ec 10             	sub    $0x10,%esp
  104946:	c7 45 fc 00 00 00 00 	movl   $0x0,-0x4(%ebp)
  10494d:	eb 45                	jmp    104994 <initialize_spinlock+0x54>
  10494f:	8b 55 fc             	mov    -0x4(%ebp),%edx
  104952:	89 d0                	mov    %edx,%eax
  104954:	d1 e0                	shl    %eax
  104956:	01 d0                	add    %edx,%eax
  104958:	c1 e0 02             	shl    $0x2,%eax
  10495b:	c7 80 80 d8 10 00 00 	movl   $0x0,0x10d880(%eax)
  104962:	00 00 00 
  104965:	8b 55 fc             	mov    -0x4(%ebp),%edx
  104968:	89 d0                	mov    %edx,%eax
  10496a:	d1 e0                	shl    %eax
  10496c:	01 d0                	add    %edx,%eax
  10496e:	c1 e0 02             	shl    $0x2,%eax
  104971:	c7 80 84 d8 10 00 00 	movl   $0x0,0x10d884(%eax)
  104978:	00 00 00 
  10497b:	8b 55 fc             	mov    -0x4(%ebp),%edx
  10497e:	89 d0                	mov    %edx,%eax
  104980:	d1 e0                	shl    %eax
  104982:	01 d0                	add    %edx,%eax
  104984:	c1 e0 02             	shl    $0x2,%eax
  104987:	c7 80 88 d8 10 00 00 	movl   $0x0,0x10d888(%eax)
  10498e:	00 00 00 
  104991:	ff 45 fc             	incl   -0x4(%ebp)
  104994:	83 7d fc 05          	cmpl   $0x5,-0x4(%ebp)
  104998:	76 b5                	jbe    10494f <initialize_spinlock+0xf>
  10499a:	c9                   	leave  
  10499b:	c3                   	ret    

0010499c <init_messaging>:
  10499c:	55                   	push   %ebp
  10499d:	89 e5                	mov    %esp,%ebp
  10499f:	83 ec 08             	sub    $0x8,%esp
  1049a2:	83 ec 0c             	sub    $0xc,%esp
  1049a5:	68 00 10 00 00       	push   $0x1000
  1049aa:	e8 de d9 ff ff       	call   10238d <malloc>
  1049af:	83 c4 10             	add    $0x10,%esp
  1049b2:	a3 d0 d8 10 00       	mov    %eax,0x10d8d0
  1049b7:	c7 05 c8 d8 10 00 00 	movl   $0x1000,0x10d8c8
  1049be:	10 00 00 
  1049c1:	a1 d0 d8 10 00       	mov    0x10d8d0,%eax
  1049c6:	a3 d4 d8 10 00       	mov    %eax,0x10d8d4
  1049cb:	c7 05 cc d8 10 00 00 	movl   $0x0,0x10d8cc
  1049d2:	00 00 00 
  1049d5:	c9                   	leave  
  1049d6:	c3                   	ret    

001049d7 <add_system_event>:
  1049d7:	55                   	push   %ebp
  1049d8:	89 e5                	mov    %esp,%ebp
  1049da:	83 ec 08             	sub    $0x8,%esp
  1049dd:	83 ec 0c             	sub    $0xc,%esp
  1049e0:	6a 05                	push   $0x5
  1049e2:	e8 6d fd ff ff       	call   104754 <enter_spinlock>
  1049e7:	83 c4 10             	add    $0x10,%esp
  1049ea:	a1 cc d8 10 00       	mov    0x10d8cc,%eax
  1049ef:	85 c0                	test   %eax,%eax
  1049f1:	75 0a                	jne    1049fd <add_system_event+0x26>
  1049f3:	a1 d0 d8 10 00       	mov    0x10d8d0,%eax
  1049f8:	a3 d4 d8 10 00       	mov    %eax,0x10d8d4
  1049fd:	8b 15 cc d8 10 00    	mov    0x10d8cc,%edx
  104a03:	89 d0                	mov    %edx,%eax
  104a05:	d1 e0                	shl    %eax
  104a07:	01 d0                	add    %edx,%eax
  104a09:	c1 e0 02             	shl    $0x2,%eax
  104a0c:	89 c2                	mov    %eax,%edx
  104a0e:	a1 d4 d8 10 00       	mov    0x10d8d4,%eax
  104a13:	01 c2                	add    %eax,%edx
  104a15:	8b 45 08             	mov    0x8(%ebp),%eax
  104a18:	8b 00                	mov    (%eax),%eax
  104a1a:	89 02                	mov    %eax,(%edx)
  104a1c:	8b 15 cc d8 10 00    	mov    0x10d8cc,%edx
  104a22:	89 d0                	mov    %edx,%eax
  104a24:	d1 e0                	shl    %eax
  104a26:	01 d0                	add    %edx,%eax
  104a28:	c1 e0 02             	shl    $0x2,%eax
  104a2b:	89 c2                	mov    %eax,%edx
  104a2d:	a1 d4 d8 10 00       	mov    0x10d8d4,%eax
  104a32:	01 c2                	add    %eax,%edx
  104a34:	8b 45 08             	mov    0x8(%ebp),%eax
  104a37:	8b 40 04             	mov    0x4(%eax),%eax
  104a3a:	89 42 04             	mov    %eax,0x4(%edx)
  104a3d:	8b 15 cc d8 10 00    	mov    0x10d8cc,%edx
  104a43:	89 d0                	mov    %edx,%eax
  104a45:	d1 e0                	shl    %eax
  104a47:	01 d0                	add    %edx,%eax
  104a49:	c1 e0 02             	shl    $0x2,%eax
  104a4c:	89 c2                	mov    %eax,%edx
  104a4e:	a1 d4 d8 10 00       	mov    0x10d8d4,%eax
  104a53:	01 c2                	add    %eax,%edx
  104a55:	8b 45 08             	mov    0x8(%ebp),%eax
  104a58:	8b 40 08             	mov    0x8(%eax),%eax
  104a5b:	89 42 08             	mov    %eax,0x8(%edx)
  104a5e:	a1 cc d8 10 00       	mov    0x10d8cc,%eax
  104a63:	40                   	inc    %eax
  104a64:	a3 cc d8 10 00       	mov    %eax,0x10d8cc
  104a69:	83 ec 0c             	sub    $0xc,%esp
  104a6c:	6a 05                	push   $0x5
  104a6e:	e8 8c fd ff ff       	call   1047ff <leave_spinlock>
  104a73:	83 c4 10             	add    $0x10,%esp
  104a76:	c9                   	leave  
  104a77:	c3                   	ret    

00104a78 <check_system_event>:
  104a78:	55                   	push   %ebp
  104a79:	89 e5                	mov    %esp,%ebp
  104a7b:	83 ec 08             	sub    $0x8,%esp
  104a7e:	83 ec 0c             	sub    $0xc,%esp
  104a81:	6a 05                	push   $0x5
  104a83:	e8 cc fc ff ff       	call   104754 <enter_spinlock>
  104a88:	83 c4 10             	add    $0x10,%esp
  104a8b:	8b 15 cc d8 10 00    	mov    0x10d8cc,%edx
  104a91:	8b 45 08             	mov    0x8(%ebp),%eax
  104a94:	89 10                	mov    %edx,(%eax)
  104a96:	83 ec 0c             	sub    $0xc,%esp
  104a99:	6a 05                	push   $0x5
  104a9b:	e8 5f fd ff ff       	call   1047ff <leave_spinlock>
  104aa0:	83 c4 10             	add    $0x10,%esp
  104aa3:	c9                   	leave  
  104aa4:	c3                   	ret    

00104aa5 <get_system_event>:
  104aa5:	55                   	push   %ebp
  104aa6:	89 e5                	mov    %esp,%ebp
  104aa8:	83 ec 08             	sub    $0x8,%esp
  104aab:	83 ec 0c             	sub    $0xc,%esp
  104aae:	6a 05                	push   $0x5
  104ab0:	e8 9f fc ff ff       	call   104754 <enter_spinlock>
  104ab5:	83 c4 10             	add    $0x10,%esp
  104ab8:	a1 d4 d8 10 00       	mov    0x10d8d4,%eax
  104abd:	8b 10                	mov    (%eax),%edx
  104abf:	8b 45 08             	mov    0x8(%ebp),%eax
  104ac2:	89 10                	mov    %edx,(%eax)
  104ac4:	a1 d4 d8 10 00       	mov    0x10d8d4,%eax
  104ac9:	8b 50 04             	mov    0x4(%eax),%edx
  104acc:	8b 45 08             	mov    0x8(%ebp),%eax
  104acf:	89 50 04             	mov    %edx,0x4(%eax)
  104ad2:	a1 d4 d8 10 00       	mov    0x10d8d4,%eax
  104ad7:	8b 50 08             	mov    0x8(%eax),%edx
  104ada:	8b 45 08             	mov    0x8(%ebp),%eax
  104add:	89 50 08             	mov    %edx,0x8(%eax)
  104ae0:	a1 d4 d8 10 00       	mov    0x10d8d4,%eax
  104ae5:	83 c0 0c             	add    $0xc,%eax
  104ae8:	a3 d4 d8 10 00       	mov    %eax,0x10d8d4
  104aed:	a1 cc d8 10 00       	mov    0x10d8cc,%eax
  104af2:	48                   	dec    %eax
  104af3:	a3 cc d8 10 00       	mov    %eax,0x10d8cc
  104af8:	83 ec 0c             	sub    $0xc,%esp
  104afb:	6a 05                	push   $0x5
  104afd:	e8 fd fc ff ff       	call   1047ff <leave_spinlock>
  104b02:	83 c4 10             	add    $0x10,%esp
  104b05:	c9                   	leave  
  104b06:	c3                   	ret    
	...

00104b08 <readSector>:
  104b08:	55                   	push   %ebp
  104b09:	89 e5                	mov    %esp,%ebp
  104b0b:	83 ec 18             	sub    $0x18,%esp
  104b0e:	8b 45 0c             	mov    0xc(%ebp),%eax
  104b11:	88 45 ec             	mov    %al,-0x14(%ebp)
  104b14:	c7 45 fc 00 10 00 00 	movl   $0x1000,-0x4(%ebp)
  104b1b:	8b 45 fc             	mov    -0x4(%ebp),%eax
  104b1e:	83 ec 0c             	sub    $0xc,%esp
  104b21:	50                   	push   %eax
  104b22:	e8 66 d8 ff ff       	call   10238d <malloc>
  104b27:	83 c4 10             	add    $0x10,%esp
  104b2a:	89 45 f8             	mov    %eax,-0x8(%ebp)
  104b2d:	80 7d ec 03          	cmpb   $0x3,-0x14(%ebp)
  104b31:	77 44                	ja     104b77 <readSector+0x6f>
  104b33:	8b 45 f8             	mov    -0x8(%ebp),%eax
  104b36:	0f b6 55 ec          	movzbl -0x14(%ebp),%edx
  104b3a:	68 f0 03 00 00       	push   $0x3f0
  104b3f:	50                   	push   %eax
  104b40:	52                   	push   %edx
  104b41:	ff 75 10             	pushl  0x10(%ebp)
  104b44:	e8 ae ea ff ff       	call   1035f7 <floppy_read_sector>
  104b49:	83 c4 10             	add    $0x10,%esp
  104b4c:	83 f8 ff             	cmp    $0xffffffff,%eax
  104b4f:	75 16                	jne    104b67 <readSector+0x5f>
  104b51:	8b 45 f8             	mov    -0x8(%ebp),%eax
  104b54:	83 ec 0c             	sub    $0xc,%esp
  104b57:	50                   	push   %eax
  104b58:	e8 bc da ff ff       	call   102619 <free>
  104b5d:	83 c4 10             	add    $0x10,%esp
  104b60:	c7 45 fc 00 00 00 00 	movl   $0x0,-0x4(%ebp)
  104b67:	8b 45 f8             	mov    -0x8(%ebp),%eax
  104b6a:	8b 55 fc             	mov    -0x4(%ebp),%edx
  104b6d:	8b 4d 08             	mov    0x8(%ebp),%ecx
  104b70:	89 01                	mov    %eax,(%ecx)
  104b72:	89 51 04             	mov    %edx,0x4(%ecx)
  104b75:	eb 24                	jmp    104b9b <readSector+0x93>
  104b77:	8b 45 f8             	mov    -0x8(%ebp),%eax
  104b7a:	83 ec 0c             	sub    $0xc,%esp
  104b7d:	50                   	push   %eax
  104b7e:	e8 96 da ff ff       	call   102619 <free>
  104b83:	83 c4 10             	add    $0x10,%esp
  104b86:	c7 45 fc 00 00 00 00 	movl   $0x0,-0x4(%ebp)
  104b8d:	8b 45 f8             	mov    -0x8(%ebp),%eax
  104b90:	8b 55 fc             	mov    -0x4(%ebp),%edx
  104b93:	8b 4d 08             	mov    0x8(%ebp),%ecx
  104b96:	89 01                	mov    %eax,(%ecx)
  104b98:	89 51 04             	mov    %edx,0x4(%ecx)
  104b9b:	8b 45 08             	mov    0x8(%ebp),%eax
  104b9e:	c9                   	leave  
  104b9f:	c2 04 00             	ret    $0x4

00104ba2 <execute_drive_diagnostic>:
  104ba2:	55                   	push   %ebp
  104ba3:	89 e5                	mov    %esp,%ebp
  104ba5:	83 ec 08             	sub    $0x8,%esp
  104ba8:	8b 45 08             	mov    0x8(%ebp),%eax
  104bab:	05 06 02 00 00       	add    $0x206,%eax
  104bb0:	83 ec 08             	sub    $0x8,%esp
  104bb3:	50                   	push   %eax
  104bb4:	68 90 00 00 00       	push   $0x90
  104bb9:	e8 34 b5 ff ff       	call   1000f2 <outportb>
  104bbe:	83 c4 10             	add    $0x10,%esp
  104bc1:	8b 45 08             	mov    0x8(%ebp),%eax
  104bc4:	40                   	inc    %eax
  104bc5:	83 ec 0c             	sub    $0xc,%esp
  104bc8:	50                   	push   %eax
  104bc9:	e8 1c b5 ff ff       	call   1000ea <inportb>
  104bce:	83 c4 10             	add    $0x10,%esp
  104bd1:	c9                   	leave  
  104bd2:	c3                   	ret    

00104bd3 <examine_ide>:
  104bd3:	55                   	push   %ebp
  104bd4:	89 e5                	mov    %esp,%ebp
  104bd6:	83 ec 18             	sub    $0x18,%esp
  104bd9:	c7 45 fc 00 00 00 00 	movl   $0x0,-0x4(%ebp)
  104be0:	83 ec 08             	sub    $0x8,%esp
  104be3:	68 f3 01 00 00       	push   $0x1f3
  104be8:	68 88 00 00 00       	push   $0x88
  104bed:	e8 00 b5 ff ff       	call   1000f2 <outportb>
  104bf2:	83 c4 10             	add    $0x10,%esp
  104bf5:	83 ec 0c             	sub    $0xc,%esp
  104bf8:	68 f3 01 00 00       	push   $0x1f3
  104bfd:	e8 e8 b4 ff ff       	call   1000ea <inportb>
  104c02:	83 c4 10             	add    $0x10,%esp
  104c05:	3d 88 00 00 00       	cmp    $0x88,%eax
  104c0a:	75 7e                	jne    104c8a <examine_ide+0xb7>
  104c0c:	83 4d fc 01          	orl    $0x1,-0x4(%ebp)
  104c10:	83 ec 08             	sub    $0x8,%esp
  104c13:	68 f6 01 00 00       	push   $0x1f6
  104c18:	68 a0 00 00 00       	push   $0xa0
  104c1d:	e8 d0 b4 ff ff       	call   1000f2 <outportb>
  104c22:	83 c4 10             	add    $0x10,%esp
  104c25:	83 ec 0c             	sub    $0xc,%esp
  104c28:	6a 04                	push   $0x4
  104c2a:	e8 db b8 ff ff       	call   10050a <Delay>
  104c2f:	83 c4 10             	add    $0x10,%esp
  104c32:	83 ec 0c             	sub    $0xc,%esp
  104c35:	68 f7 01 00 00       	push   $0x1f7
  104c3a:	e8 ab b4 ff ff       	call   1000ea <inportb>
  104c3f:	83 c4 10             	add    $0x10,%esp
  104c42:	83 e0 40             	and    $0x40,%eax
  104c45:	85 c0                	test   %eax,%eax
  104c47:	74 04                	je     104c4d <examine_ide+0x7a>
  104c49:	83 4d fc 02          	orl    $0x2,-0x4(%ebp)
  104c4d:	83 ec 08             	sub    $0x8,%esp
  104c50:	68 f6 01 00 00       	push   $0x1f6
  104c55:	68 b0 00 00 00       	push   $0xb0
  104c5a:	e8 93 b4 ff ff       	call   1000f2 <outportb>
  104c5f:	83 c4 10             	add    $0x10,%esp
  104c62:	83 ec 0c             	sub    $0xc,%esp
  104c65:	6a 04                	push   $0x4
  104c67:	e8 9e b8 ff ff       	call   10050a <Delay>
  104c6c:	83 c4 10             	add    $0x10,%esp
  104c6f:	83 ec 0c             	sub    $0xc,%esp
  104c72:	68 f7 01 00 00       	push   $0x1f7
  104c77:	e8 6e b4 ff ff       	call   1000ea <inportb>
  104c7c:	83 c4 10             	add    $0x10,%esp
  104c7f:	83 e0 40             	and    $0x40,%eax
  104c82:	85 c0                	test   %eax,%eax
  104c84:	74 04                	je     104c8a <examine_ide+0xb7>
  104c86:	83 4d fc 04          	orl    $0x4,-0x4(%ebp)
  104c8a:	83 ec 08             	sub    $0x8,%esp
  104c8d:	68 73 01 00 00       	push   $0x173
  104c92:	68 88 00 00 00       	push   $0x88
  104c97:	e8 56 b4 ff ff       	call   1000f2 <outportb>
  104c9c:	83 c4 10             	add    $0x10,%esp
  104c9f:	83 ec 0c             	sub    $0xc,%esp
  104ca2:	68 73 01 00 00       	push   $0x173
  104ca7:	e8 3e b4 ff ff       	call   1000ea <inportb>
  104cac:	83 c4 10             	add    $0x10,%esp
  104caf:	3d 88 00 00 00       	cmp    $0x88,%eax
  104cb4:	75 7e                	jne    104d34 <examine_ide+0x161>
  104cb6:	83 4d fc 08          	orl    $0x8,-0x4(%ebp)
  104cba:	83 ec 08             	sub    $0x8,%esp
  104cbd:	68 76 01 00 00       	push   $0x176
  104cc2:	68 a0 00 00 00       	push   $0xa0
  104cc7:	e8 26 b4 ff ff       	call   1000f2 <outportb>
  104ccc:	83 c4 10             	add    $0x10,%esp
  104ccf:	83 ec 0c             	sub    $0xc,%esp
  104cd2:	6a 04                	push   $0x4
  104cd4:	e8 31 b8 ff ff       	call   10050a <Delay>
  104cd9:	83 c4 10             	add    $0x10,%esp
  104cdc:	83 ec 0c             	sub    $0xc,%esp
  104cdf:	68 77 01 00 00       	push   $0x177
  104ce4:	e8 01 b4 ff ff       	call   1000ea <inportb>
  104ce9:	83 c4 10             	add    $0x10,%esp
  104cec:	83 e0 40             	and    $0x40,%eax
  104cef:	85 c0                	test   %eax,%eax
  104cf1:	74 04                	je     104cf7 <examine_ide+0x124>
  104cf3:	83 4d fc 10          	orl    $0x10,-0x4(%ebp)
  104cf7:	83 ec 08             	sub    $0x8,%esp
  104cfa:	68 76 01 00 00       	push   $0x176
  104cff:	68 b0 00 00 00       	push   $0xb0
  104d04:	e8 e9 b3 ff ff       	call   1000f2 <outportb>
  104d09:	83 c4 10             	add    $0x10,%esp
  104d0c:	83 ec 0c             	sub    $0xc,%esp
  104d0f:	6a 04                	push   $0x4
  104d11:	e8 f4 b7 ff ff       	call   10050a <Delay>
  104d16:	83 c4 10             	add    $0x10,%esp
  104d19:	83 ec 0c             	sub    $0xc,%esp
  104d1c:	68 77 01 00 00       	push   $0x177
  104d21:	e8 c4 b3 ff ff       	call   1000ea <inportb>
  104d26:	83 c4 10             	add    $0x10,%esp
  104d29:	83 e0 40             	and    $0x40,%eax
  104d2c:	85 c0                	test   %eax,%eax
  104d2e:	74 04                	je     104d34 <examine_ide+0x161>
  104d30:	83 4d fc 20          	orl    $0x20,-0x4(%ebp)
  104d34:	8b 45 fc             	mov    -0x4(%ebp),%eax
  104d37:	83 e0 01             	and    $0x1,%eax
  104d3a:	84 c0                	test   %al,%al
  104d3c:	0f 84 85 00 00 00    	je     104dc7 <examine_ide+0x1f4>
  104d42:	83 ec 0c             	sub    $0xc,%esp
  104d45:	68 20 8b 10 00       	push   $0x108b20
  104d4a:	e8 d1 c6 ff ff       	call   101420 <display>
  104d4f:	83 c4 10             	add    $0x10,%esp
  104d52:	83 ec 0c             	sub    $0xc,%esp
  104d55:	68 f0 01 00 00       	push   $0x1f0
  104d5a:	e8 43 fe ff ff       	call   104ba2 <execute_drive_diagnostic>
  104d5f:	83 c4 10             	add    $0x10,%esp
  104d62:	89 45 f8             	mov    %eax,-0x8(%ebp)
  104d65:	83 ec 0c             	sub    $0xc,%esp
  104d68:	68 4c 8b 10 00       	push   $0x108b4c
  104d6d:	e8 ae c6 ff ff       	call   101420 <display>
  104d72:	83 c4 10             	add    $0x10,%esp
  104d75:	83 ec 0c             	sub    $0xc,%esp
  104d78:	ff 75 f8             	pushl  -0x8(%ebp)
  104d7b:	e8 f0 c6 ff ff       	call   101470 <PrintNumber>
  104d80:	83 c4 10             	add    $0x10,%esp
  104d83:	83 ec 0c             	sub    $0xc,%esp
  104d86:	68 75 8b 10 00       	push   $0x108b75
  104d8b:	e8 90 c6 ff ff       	call   101420 <display>
  104d90:	83 c4 10             	add    $0x10,%esp
  104d93:	8b 45 fc             	mov    -0x4(%ebp),%eax
  104d96:	83 e0 02             	and    $0x2,%eax
  104d99:	85 c0                	test   %eax,%eax
  104d9b:	74 10                	je     104dad <examine_ide+0x1da>
  104d9d:	83 ec 0c             	sub    $0xc,%esp
  104da0:	68 77 8b 10 00       	push   $0x108b77
  104da5:	e8 76 c6 ff ff       	call   101420 <display>
  104daa:	83 c4 10             	add    $0x10,%esp
  104dad:	8b 45 fc             	mov    -0x4(%ebp),%eax
  104db0:	83 e0 04             	and    $0x4,%eax
  104db3:	85 c0                	test   %eax,%eax
  104db5:	74 10                	je     104dc7 <examine_ide+0x1f4>
  104db7:	83 ec 0c             	sub    $0xc,%esp
  104dba:	68 8f 8b 10 00       	push   $0x108b8f
  104dbf:	e8 5c c6 ff ff       	call   101420 <display>
  104dc4:	83 c4 10             	add    $0x10,%esp
  104dc7:	8b 45 fc             	mov    -0x4(%ebp),%eax
  104dca:	83 e0 08             	and    $0x8,%eax
  104dcd:	85 c0                	test   %eax,%eax
  104dcf:	0f 84 85 00 00 00    	je     104e5a <examine_ide+0x287>
  104dd5:	83 ec 0c             	sub    $0xc,%esp
  104dd8:	68 a8 8b 10 00       	push   $0x108ba8
  104ddd:	e8 3e c6 ff ff       	call   101420 <display>
  104de2:	83 c4 10             	add    $0x10,%esp
  104de5:	83 ec 0c             	sub    $0xc,%esp
  104de8:	68 70 01 00 00       	push   $0x170
  104ded:	e8 b0 fd ff ff       	call   104ba2 <execute_drive_diagnostic>
  104df2:	83 c4 10             	add    $0x10,%esp
  104df5:	89 45 f8             	mov    %eax,-0x8(%ebp)
  104df8:	83 ec 0c             	sub    $0xc,%esp
  104dfb:	68 d8 8b 10 00       	push   $0x108bd8
  104e00:	e8 1b c6 ff ff       	call   101420 <display>
  104e05:	83 c4 10             	add    $0x10,%esp
  104e08:	83 ec 0c             	sub    $0xc,%esp
  104e0b:	ff 75 f8             	pushl  -0x8(%ebp)
  104e0e:	e8 5d c6 ff ff       	call   101470 <PrintNumber>
  104e13:	83 c4 10             	add    $0x10,%esp
  104e16:	83 ec 0c             	sub    $0xc,%esp
  104e19:	68 75 8b 10 00       	push   $0x108b75
  104e1e:	e8 fd c5 ff ff       	call   101420 <display>
  104e23:	83 c4 10             	add    $0x10,%esp
  104e26:	8b 45 fc             	mov    -0x4(%ebp),%eax
  104e29:	83 e0 10             	and    $0x10,%eax
  104e2c:	85 c0                	test   %eax,%eax
  104e2e:	74 10                	je     104e40 <examine_ide+0x26d>
  104e30:	83 ec 0c             	sub    $0xc,%esp
  104e33:	68 03 8c 10 00       	push   $0x108c03
  104e38:	e8 e3 c5 ff ff       	call   101420 <display>
  104e3d:	83 c4 10             	add    $0x10,%esp
  104e40:	8b 45 fc             	mov    -0x4(%ebp),%eax
  104e43:	83 e0 20             	and    $0x20,%eax
  104e46:	85 c0                	test   %eax,%eax
  104e48:	74 10                	je     104e5a <examine_ide+0x287>
  104e4a:	83 ec 0c             	sub    $0xc,%esp
  104e4d:	68 1d 8c 10 00       	push   $0x108c1d
  104e52:	e8 c9 c5 ff ff       	call   101420 <display>
  104e57:	83 c4 10             	add    $0x10,%esp
  104e5a:	c9                   	leave  
  104e5b:	c3                   	ret    

00104e5c <load_boot_sector>:
  104e5c:	55                   	push   %ebp
  104e5d:	89 e5                	mov    %esp,%ebp
  104e5f:	83 ec 28             	sub    $0x28,%esp
  104e62:	8b 45 10             	mov    0x10(%ebp),%eax
  104e65:	83 c0 03             	add    $0x3,%eax
  104e68:	8b 55 0c             	mov    0xc(%ebp),%edx
  104e6b:	83 ec 04             	sub    $0x4,%esp
  104e6e:	6a 08                	push   $0x8
  104e70:	50                   	push   %eax
  104e71:	52                   	push   %edx
  104e72:	e8 74 d9 ff ff       	call   1027eb <memcopy>
  104e77:	83 c4 10             	add    $0x10,%esp
  104e7a:	8b 45 0c             	mov    0xc(%ebp),%eax
  104e7d:	c6 40 08 00          	movb   $0x0,0x8(%eax)
  104e81:	8b 45 10             	mov    0x10(%ebp),%eax
  104e84:	83 c0 0c             	add    $0xc,%eax
  104e87:	8a 00                	mov    (%eax),%al
  104e89:	0f b6 c0             	movzbl %al,%eax
  104e8c:	89 c2                	mov    %eax,%edx
  104e8e:	c1 e2 08             	shl    $0x8,%edx
  104e91:	8b 45 10             	mov    0x10(%ebp),%eax
  104e94:	83 c0 0b             	add    $0xb,%eax
  104e97:	8a 00                	mov    (%eax),%al
  104e99:	0f b6 c0             	movzbl %al,%eax
  104e9c:	8d 04 02             	lea    (%edx,%eax,1),%eax
  104e9f:	89 c2                	mov    %eax,%edx
  104ea1:	8b 45 0c             	mov    0xc(%ebp),%eax
  104ea4:	89 50 0c             	mov    %edx,0xc(%eax)
  104ea7:	8b 45 0c             	mov    0xc(%ebp),%eax
  104eaa:	8b 40 0c             	mov    0xc(%eax),%eax
  104ead:	89 45 e4             	mov    %eax,-0x1c(%ebp)
  104eb0:	81 7d e4 00 04 00 00 	cmpl   $0x400,-0x1c(%ebp)
  104eb7:	74 28                	je     104ee1 <load_boot_sector+0x85>
  104eb9:	81 7d e4 00 04 00 00 	cmpl   $0x400,-0x1c(%ebp)
  104ec0:	77 0b                	ja     104ecd <load_boot_sector+0x71>
  104ec2:	81 7d e4 00 02 00 00 	cmpl   $0x200,-0x1c(%ebp)
  104ec9:	74 16                	je     104ee1 <load_boot_sector+0x85>
  104ecb:	eb 7a                	jmp    104f47 <load_boot_sector+0xeb>
  104ecd:	81 7d e4 00 08 00 00 	cmpl   $0x800,-0x1c(%ebp)
  104ed4:	74 0b                	je     104ee1 <load_boot_sector+0x85>
  104ed6:	81 7d e4 00 10 00 00 	cmpl   $0x1000,-0x1c(%ebp)
  104edd:	74 02                	je     104ee1 <load_boot_sector+0x85>
  104edf:	eb 66                	jmp    104f47 <load_boot_sector+0xeb>
  104ee1:	8b 45 10             	mov    0x10(%ebp),%eax
  104ee4:	83 c0 0d             	add    $0xd,%eax
  104ee7:	8a 10                	mov    (%eax),%dl
  104ee9:	8b 45 0c             	mov    0xc(%ebp),%eax
  104eec:	88 50 10             	mov    %dl,0x10(%eax)
  104eef:	8b 45 0c             	mov    0xc(%ebp),%eax
  104ef2:	8a 40 10             	mov    0x10(%eax),%al
  104ef5:	0f b6 c0             	movzbl %al,%eax
  104ef8:	89 45 ec             	mov    %eax,-0x14(%ebp)
  104efb:	83 7d ec 08          	cmpl   $0x8,-0x14(%ebp)
  104eff:	74 74                	je     104f75 <load_boot_sector+0x119>
  104f01:	83 7d ec 08          	cmpl   $0x8,-0x14(%ebp)
  104f05:	7f 1b                	jg     104f22 <load_boot_sector+0xc6>
  104f07:	83 7d ec 01          	cmpl   $0x1,-0x14(%ebp)
  104f0b:	0f 8c 96 00 00 00    	jl     104fa7 <load_boot_sector+0x14b>
  104f11:	83 7d ec 02          	cmpl   $0x2,-0x14(%ebp)
  104f15:	7e 5e                	jle    104f75 <load_boot_sector+0x119>
  104f17:	83 7d ec 04          	cmpl   $0x4,-0x14(%ebp)
  104f1b:	74 58                	je     104f75 <load_boot_sector+0x119>
  104f1d:	e9 85 00 00 00       	jmp    104fa7 <load_boot_sector+0x14b>
  104f22:	83 7d ec 20          	cmpl   $0x20,-0x14(%ebp)
  104f26:	74 4d                	je     104f75 <load_boot_sector+0x119>
  104f28:	83 7d ec 20          	cmpl   $0x20,-0x14(%ebp)
  104f2c:	7f 08                	jg     104f36 <load_boot_sector+0xda>
  104f2e:	83 7d ec 10          	cmpl   $0x10,-0x14(%ebp)
  104f32:	74 41                	je     104f75 <load_boot_sector+0x119>
  104f34:	eb 71                	jmp    104fa7 <load_boot_sector+0x14b>
  104f36:	83 7d ec 40          	cmpl   $0x40,-0x14(%ebp)
  104f3a:	74 39                	je     104f75 <load_boot_sector+0x119>
  104f3c:	81 7d ec 80 00 00 00 	cmpl   $0x80,-0x14(%ebp)
  104f43:	74 30                	je     104f75 <load_boot_sector+0x119>
  104f45:	eb 60                	jmp    104fa7 <load_boot_sector+0x14b>
  104f47:	8b 45 0c             	mov    0xc(%ebp),%eax
  104f4a:	8b 40 0c             	mov    0xc(%eax),%eax
  104f4d:	83 ec 0c             	sub    $0xc,%esp
  104f50:	50                   	push   %eax
  104f51:	e8 1a c5 ff ff       	call   101470 <PrintNumber>
  104f56:	83 c4 10             	add    $0x10,%esp
  104f59:	83 ec 0c             	sub    $0xc,%esp
  104f5c:	68 38 8c 10 00       	push   $0x108c38
  104f61:	e8 ba c4 ff ff       	call   101420 <display>
  104f66:	83 c4 10             	add    $0x10,%esp
  104f69:	c7 45 e8 ff ff ff ff 	movl   $0xffffffff,-0x18(%ebp)
  104f70:	e9 55 07 00 00       	jmp    1056ca <load_boot_sector+0x86e>
  104f75:	8b 45 10             	mov    0x10(%ebp),%eax
  104f78:	83 c0 0f             	add    $0xf,%eax
  104f7b:	8a 00                	mov    (%eax),%al
  104f7d:	0f b6 c0             	movzbl %al,%eax
  104f80:	c1 e0 08             	shl    $0x8,%eax
  104f83:	89 c2                	mov    %eax,%edx
  104f85:	8b 45 10             	mov    0x10(%ebp),%eax
  104f88:	83 c0 0e             	add    $0xe,%eax
  104f8b:	8a 00                	mov    (%eax),%al
  104f8d:	0f b6 c0             	movzbl %al,%eax
  104f90:	01 c2                	add    %eax,%edx
  104f92:	8b 45 0c             	mov    0xc(%ebp),%eax
  104f95:	66 89 50 12          	mov    %dx,0x12(%eax)
  104f99:	8b 45 0c             	mov    0xc(%ebp),%eax
  104f9c:	66 8b 40 12          	mov    0x12(%eax),%ax
  104fa0:	66 85 c0             	test   %ax,%ax
  104fa3:	74 33                	je     104fd8 <load_boot_sector+0x17c>
  104fa5:	eb 4d                	jmp    104ff4 <load_boot_sector+0x198>
  104fa7:	8b 45 0c             	mov    0xc(%ebp),%eax
  104faa:	8a 40 10             	mov    0x10(%eax),%al
  104fad:	0f b6 c0             	movzbl %al,%eax
  104fb0:	83 ec 0c             	sub    $0xc,%esp
  104fb3:	50                   	push   %eax
  104fb4:	e8 b7 c4 ff ff       	call   101470 <PrintNumber>
  104fb9:	83 c4 10             	add    $0x10,%esp
  104fbc:	83 ec 0c             	sub    $0xc,%esp
  104fbf:	68 64 8c 10 00       	push   $0x108c64
  104fc4:	e8 57 c4 ff ff       	call   101420 <display>
  104fc9:	83 c4 10             	add    $0x10,%esp
  104fcc:	c7 45 e8 ff ff ff ff 	movl   $0xffffffff,-0x18(%ebp)
  104fd3:	e9 f2 06 00 00       	jmp    1056ca <load_boot_sector+0x86e>
  104fd8:	83 ec 0c             	sub    $0xc,%esp
  104fdb:	68 94 8c 10 00       	push   $0x108c94
  104fe0:	e8 3b c4 ff ff       	call   101420 <display>
  104fe5:	83 c4 10             	add    $0x10,%esp
  104fe8:	c7 45 e8 ff ff ff ff 	movl   $0xffffffff,-0x18(%ebp)
  104fef:	e9 d6 06 00 00       	jmp    1056ca <load_boot_sector+0x86e>
  104ff4:	8b 45 10             	mov    0x10(%ebp),%eax
  104ff7:	83 c0 10             	add    $0x10,%eax
  104ffa:	8a 10                	mov    (%eax),%dl
  104ffc:	8b 45 0c             	mov    0xc(%ebp),%eax
  104fff:	88 50 14             	mov    %dl,0x14(%eax)
  105002:	8b 45 0c             	mov    0xc(%ebp),%eax
  105005:	8a 40 14             	mov    0x14(%eax),%al
  105008:	84 c0                	test   %al,%al
  10500a:	75 1c                	jne    105028 <load_boot_sector+0x1cc>
  10500c:	83 ec 0c             	sub    $0xc,%esp
  10500f:	68 c4 8c 10 00       	push   $0x108cc4
  105014:	e8 07 c4 ff ff       	call   101420 <display>
  105019:	83 c4 10             	add    $0x10,%esp
  10501c:	c7 45 e8 ff ff ff ff 	movl   $0xffffffff,-0x18(%ebp)
  105023:	e9 a2 06 00 00       	jmp    1056ca <load_boot_sector+0x86e>
  105028:	8b 45 10             	mov    0x10(%ebp),%eax
  10502b:	83 c0 12             	add    $0x12,%eax
  10502e:	8a 00                	mov    (%eax),%al
  105030:	0f b6 c0             	movzbl %al,%eax
  105033:	c1 e0 08             	shl    $0x8,%eax
  105036:	89 c2                	mov    %eax,%edx
  105038:	8b 45 10             	mov    0x10(%ebp),%eax
  10503b:	83 c0 11             	add    $0x11,%eax
  10503e:	8a 00                	mov    (%eax),%al
  105040:	0f b6 c0             	movzbl %al,%eax
  105043:	01 c2                	add    %eax,%edx
  105045:	8b 45 0c             	mov    0xc(%ebp),%eax
  105048:	66 89 50 16          	mov    %dx,0x16(%eax)
  10504c:	8b 45 10             	mov    0x10(%ebp),%eax
  10504f:	83 c0 14             	add    $0x14,%eax
  105052:	8a 00                	mov    (%eax),%al
  105054:	0f b6 c0             	movzbl %al,%eax
  105057:	c1 e0 08             	shl    $0x8,%eax
  10505a:	89 c2                	mov    %eax,%edx
  10505c:	8b 45 10             	mov    0x10(%ebp),%eax
  10505f:	83 c0 13             	add    $0x13,%eax
  105062:	8a 00                	mov    (%eax),%al
  105064:	0f b6 c0             	movzbl %al,%eax
  105067:	01 c2                	add    %eax,%edx
  105069:	8b 45 0c             	mov    0xc(%ebp),%eax
  10506c:	66 89 50 18          	mov    %dx,0x18(%eax)
  105070:	8b 45 10             	mov    0x10(%ebp),%eax
  105073:	83 c0 15             	add    $0x15,%eax
  105076:	8a 10                	mov    (%eax),%dl
  105078:	8b 45 0c             	mov    0xc(%ebp),%eax
  10507b:	88 50 1a             	mov    %dl,0x1a(%eax)
  10507e:	8b 45 0c             	mov    0xc(%ebp),%eax
  105081:	8a 40 1a             	mov    0x1a(%eax),%al
  105084:	0f b6 c0             	movzbl %al,%eax
  105087:	83 ec 0c             	sub    $0xc,%esp
  10508a:	50                   	push   %eax
  10508b:	e8 e0 c3 ff ff       	call   101470 <PrintNumber>
  105090:	83 c4 10             	add    $0x10,%esp
  105093:	83 ec 0c             	sub    $0xc,%esp
  105096:	68 f3 8c 10 00       	push   $0x108cf3
  10509b:	e8 80 c3 ff ff       	call   101420 <display>
  1050a0:	83 c4 10             	add    $0x10,%esp
  1050a3:	8b 45 10             	mov    0x10(%ebp),%eax
  1050a6:	83 c0 17             	add    $0x17,%eax
  1050a9:	8a 00                	mov    (%eax),%al
  1050ab:	0f b6 c0             	movzbl %al,%eax
  1050ae:	c1 e0 08             	shl    $0x8,%eax
  1050b1:	89 c2                	mov    %eax,%edx
  1050b3:	8b 45 10             	mov    0x10(%ebp),%eax
  1050b6:	83 c0 16             	add    $0x16,%eax
  1050b9:	8a 00                	mov    (%eax),%al
  1050bb:	0f b6 c0             	movzbl %al,%eax
  1050be:	01 c2                	add    %eax,%edx
  1050c0:	8b 45 0c             	mov    0xc(%ebp),%eax
  1050c3:	66 89 50 1c          	mov    %dx,0x1c(%eax)
  1050c7:	8b 45 10             	mov    0x10(%ebp),%eax
  1050ca:	83 c0 19             	add    $0x19,%eax
  1050cd:	8a 00                	mov    (%eax),%al
  1050cf:	0f b6 c0             	movzbl %al,%eax
  1050d2:	c1 e0 08             	shl    $0x8,%eax
  1050d5:	89 c2                	mov    %eax,%edx
  1050d7:	8b 45 10             	mov    0x10(%ebp),%eax
  1050da:	83 c0 18             	add    $0x18,%eax
  1050dd:	8a 00                	mov    (%eax),%al
  1050df:	0f b6 c0             	movzbl %al,%eax
  1050e2:	01 c2                	add    %eax,%edx
  1050e4:	8b 45 0c             	mov    0xc(%ebp),%eax
  1050e7:	66 89 50 1e          	mov    %dx,0x1e(%eax)
  1050eb:	8b 45 10             	mov    0x10(%ebp),%eax
  1050ee:	83 c0 1b             	add    $0x1b,%eax
  1050f1:	8a 00                	mov    (%eax),%al
  1050f3:	0f b6 c0             	movzbl %al,%eax
  1050f6:	c1 e0 08             	shl    $0x8,%eax
  1050f9:	89 c2                	mov    %eax,%edx
  1050fb:	8b 45 10             	mov    0x10(%ebp),%eax
  1050fe:	83 c0 1a             	add    $0x1a,%eax
  105101:	8a 00                	mov    (%eax),%al
  105103:	0f b6 c0             	movzbl %al,%eax
  105106:	01 c2                	add    %eax,%edx
  105108:	8b 45 0c             	mov    0xc(%ebp),%eax
  10510b:	66 89 50 20          	mov    %dx,0x20(%eax)
  10510f:	8b 45 10             	mov    0x10(%ebp),%eax
  105112:	83 c0 1f             	add    $0x1f,%eax
  105115:	8a 00                	mov    (%eax),%al
  105117:	0f b6 d0             	movzbl %al,%edx
  10511a:	8b 45 10             	mov    0x10(%ebp),%eax
  10511d:	83 c0 1e             	add    $0x1e,%eax
  105120:	8a 00                	mov    (%eax),%al
  105122:	0f b6 c0             	movzbl %al,%eax
  105125:	8d 04 02             	lea    (%edx,%eax,1),%eax
  105128:	89 c2                	mov    %eax,%edx
  10512a:	c1 e2 08             	shl    $0x8,%edx
  10512d:	8b 45 10             	mov    0x10(%ebp),%eax
  105130:	83 c0 1d             	add    $0x1d,%eax
  105133:	8a 00                	mov    (%eax),%al
  105135:	0f b6 c0             	movzbl %al,%eax
  105138:	8d 04 02             	lea    (%edx,%eax,1),%eax
  10513b:	89 c2                	mov    %eax,%edx
  10513d:	c1 e2 08             	shl    $0x8,%edx
  105140:	8b 45 10             	mov    0x10(%ebp),%eax
  105143:	83 c0 1c             	add    $0x1c,%eax
  105146:	8a 00                	mov    (%eax),%al
  105148:	0f b6 c0             	movzbl %al,%eax
  10514b:	8d 04 02             	lea    (%edx,%eax,1),%eax
  10514e:	89 c2                	mov    %eax,%edx
  105150:	8b 45 0c             	mov    0xc(%ebp),%eax
  105153:	89 50 24             	mov    %edx,0x24(%eax)
  105156:	8b 45 10             	mov    0x10(%ebp),%eax
  105159:	83 c0 23             	add    $0x23,%eax
  10515c:	8a 00                	mov    (%eax),%al
  10515e:	0f b6 d0             	movzbl %al,%edx
  105161:	8b 45 10             	mov    0x10(%ebp),%eax
  105164:	83 c0 22             	add    $0x22,%eax
  105167:	8a 00                	mov    (%eax),%al
  105169:	0f b6 c0             	movzbl %al,%eax
  10516c:	8d 04 02             	lea    (%edx,%eax,1),%eax
  10516f:	89 c2                	mov    %eax,%edx
  105171:	c1 e2 08             	shl    $0x8,%edx
  105174:	8b 45 10             	mov    0x10(%ebp),%eax
  105177:	83 c0 21             	add    $0x21,%eax
  10517a:	8a 00                	mov    (%eax),%al
  10517c:	0f b6 c0             	movzbl %al,%eax
  10517f:	8d 04 02             	lea    (%edx,%eax,1),%eax
  105182:	89 c2                	mov    %eax,%edx
  105184:	c1 e2 08             	shl    $0x8,%edx
  105187:	8b 45 10             	mov    0x10(%ebp),%eax
  10518a:	83 c0 20             	add    $0x20,%eax
  10518d:	8a 00                	mov    (%eax),%al
  10518f:	0f b6 c0             	movzbl %al,%eax
  105192:	8d 04 02             	lea    (%edx,%eax,1),%eax
  105195:	89 c2                	mov    %eax,%edx
  105197:	8b 45 0c             	mov    0xc(%ebp),%eax
  10519a:	89 50 28             	mov    %edx,0x28(%eax)
  10519d:	8b 45 0c             	mov    0xc(%ebp),%eax
  1051a0:	66 8b 40 16          	mov    0x16(%eax),%ax
  1051a4:	0f b7 c0             	movzwl %ax,%eax
  1051a7:	c1 e0 05             	shl    $0x5,%eax
  1051aa:	89 c2                	mov    %eax,%edx
  1051ac:	8b 45 0c             	mov    0xc(%ebp),%eax
  1051af:	8b 40 0c             	mov    0xc(%eax),%eax
  1051b2:	8d 04 02             	lea    (%edx,%eax,1),%eax
  1051b5:	8d 50 ff             	lea    -0x1(%eax),%edx
  1051b8:	8b 45 0c             	mov    0xc(%ebp),%eax
  1051bb:	89 50 5c             	mov    %edx,0x5c(%eax)
  1051be:	8b 45 0c             	mov    0xc(%ebp),%eax
  1051c1:	8b 50 5c             	mov    0x5c(%eax),%edx
  1051c4:	8b 45 0c             	mov    0xc(%ebp),%eax
  1051c7:	8b 40 0c             	mov    0xc(%eax),%eax
  1051ca:	89 45 dc             	mov    %eax,-0x24(%ebp)
  1051cd:	89 d0                	mov    %edx,%eax
  1051cf:	ba 00 00 00 00       	mov    $0x0,%edx
  1051d4:	f7 75 dc             	divl   -0x24(%ebp)
  1051d7:	89 d0                	mov    %edx,%eax
  1051d9:	85 c0                	test   %eax,%eax
  1051db:	74 2a                	je     105207 <load_boot_sector+0x3ab>
  1051dd:	8b 45 0c             	mov    0xc(%ebp),%eax
  1051e0:	8b 50 5c             	mov    0x5c(%eax),%edx
  1051e3:	8b 45 0c             	mov    0xc(%ebp),%eax
  1051e6:	8b 40 0c             	mov    0xc(%eax),%eax
  1051e9:	89 45 dc             	mov    %eax,-0x24(%ebp)
  1051ec:	89 d0                	mov    %edx,%eax
  1051ee:	ba 00 00 00 00       	mov    $0x0,%edx
  1051f3:	f7 75 dc             	divl   -0x24(%ebp)
  1051f6:	89 45 dc             	mov    %eax,-0x24(%ebp)
  1051f9:	8b 45 dc             	mov    -0x24(%ebp),%eax
  1051fc:	8d 50 01             	lea    0x1(%eax),%edx
  1051ff:	8b 45 0c             	mov    0xc(%ebp),%eax
  105202:	89 50 5c             	mov    %edx,0x5c(%eax)
  105205:	eb 25                	jmp    10522c <load_boot_sector+0x3d0>
  105207:	8b 45 0c             	mov    0xc(%ebp),%eax
  10520a:	8b 50 5c             	mov    0x5c(%eax),%edx
  10520d:	8b 45 0c             	mov    0xc(%ebp),%eax
  105210:	8b 40 0c             	mov    0xc(%eax),%eax
  105213:	89 45 dc             	mov    %eax,-0x24(%ebp)
  105216:	89 d0                	mov    %edx,%eax
  105218:	ba 00 00 00 00       	mov    $0x0,%edx
  10521d:	f7 75 dc             	divl   -0x24(%ebp)
  105220:	89 45 dc             	mov    %eax,-0x24(%ebp)
  105223:	8b 55 dc             	mov    -0x24(%ebp),%edx
  105226:	8b 45 0c             	mov    0xc(%ebp),%eax
  105229:	89 50 5c             	mov    %edx,0x5c(%eax)
  10522c:	8b 45 0c             	mov    0xc(%ebp),%eax
  10522f:	8b 40 1c             	mov    0x1c(%eax),%eax
  105232:	66 85 c0             	test   %ax,%ax
  105235:	75 0b                	jne    105242 <load_boot_sector+0x3e6>
  105237:	8b 45 0c             	mov    0xc(%ebp),%eax
  10523a:	8b 40 4c             	mov    0x4c(%eax),%eax
  10523d:	89 45 f8             	mov    %eax,-0x8(%ebp)
  105240:	eb 0c                	jmp    10524e <load_boot_sector+0x3f2>
  105242:	8b 45 0c             	mov    0xc(%ebp),%eax
  105245:	8b 40 1c             	mov    0x1c(%eax),%eax
  105248:	0f b7 c0             	movzwl %ax,%eax
  10524b:	89 45 f8             	mov    %eax,-0x8(%ebp)
  10524e:	8b 45 0c             	mov    0xc(%ebp),%eax
  105251:	66 8b 40 12          	mov    0x12(%eax),%ax
  105255:	0f b7 d0             	movzwl %ax,%edx
  105258:	8b 45 0c             	mov    0xc(%ebp),%eax
  10525b:	8a 40 14             	mov    0x14(%eax),%al
  10525e:	0f b6 c0             	movzbl %al,%eax
  105261:	0f af 45 f8          	imul   -0x8(%ebp),%eax
  105265:	01 c2                	add    %eax,%edx
  105267:	8b 45 0c             	mov    0xc(%ebp),%eax
  10526a:	8b 40 5c             	mov    0x5c(%eax),%eax
  10526d:	01 c2                	add    %eax,%edx
  10526f:	8b 45 0c             	mov    0xc(%ebp),%eax
  105272:	89 50 60             	mov    %edx,0x60(%eax)
  105275:	8b 45 0c             	mov    0xc(%ebp),%eax
  105278:	8b 40 18             	mov    0x18(%eax),%eax
  10527b:	66 85 c0             	test   %ax,%ax
  10527e:	75 0b                	jne    10528b <load_boot_sector+0x42f>
  105280:	8b 45 0c             	mov    0xc(%ebp),%eax
  105283:	8b 40 28             	mov    0x28(%eax),%eax
  105286:	89 45 fc             	mov    %eax,-0x4(%ebp)
  105289:	eb 0c                	jmp    105297 <load_boot_sector+0x43b>
  10528b:	8b 45 0c             	mov    0xc(%ebp),%eax
  10528e:	8b 40 18             	mov    0x18(%eax),%eax
  105291:	0f b7 c0             	movzwl %ax,%eax
  105294:	89 45 fc             	mov    %eax,-0x4(%ebp)
  105297:	8b 45 0c             	mov    0xc(%ebp),%eax
  10529a:	66 8b 40 12          	mov    0x12(%eax),%ax
  10529e:	0f b7 d0             	movzwl %ax,%edx
  1052a1:	8b 45 0c             	mov    0xc(%ebp),%eax
  1052a4:	8a 40 14             	mov    0x14(%eax),%al
  1052a7:	0f b6 c0             	movzbl %al,%eax
  1052aa:	0f af 45 f8          	imul   -0x8(%ebp),%eax
  1052ae:	01 c2                	add    %eax,%edx
  1052b0:	8b 45 0c             	mov    0xc(%ebp),%eax
  1052b3:	8b 40 5c             	mov    0x5c(%eax),%eax
  1052b6:	01 c2                	add    %eax,%edx
  1052b8:	8b 45 fc             	mov    -0x4(%ebp),%eax
  1052bb:	89 c1                	mov    %eax,%ecx
  1052bd:	29 d1                	sub    %edx,%ecx
  1052bf:	89 ca                	mov    %ecx,%edx
  1052c1:	8b 45 0c             	mov    0xc(%ebp),%eax
  1052c4:	89 50 64             	mov    %edx,0x64(%eax)
  1052c7:	8b 45 0c             	mov    0xc(%ebp),%eax
  1052ca:	8b 50 64             	mov    0x64(%eax),%edx
  1052cd:	8b 45 0c             	mov    0xc(%ebp),%eax
  1052d0:	8a 40 10             	mov    0x10(%eax),%al
  1052d3:	0f b6 c0             	movzbl %al,%eax
  1052d6:	89 45 dc             	mov    %eax,-0x24(%ebp)
  1052d9:	89 d0                	mov    %edx,%eax
  1052db:	ba 00 00 00 00       	mov    $0x0,%edx
  1052e0:	f7 75 dc             	divl   -0x24(%ebp)
  1052e3:	89 45 dc             	mov    %eax,-0x24(%ebp)
  1052e6:	8b 55 dc             	mov    -0x24(%ebp),%edx
  1052e9:	8b 45 0c             	mov    0xc(%ebp),%eax
  1052ec:	89 50 68             	mov    %edx,0x68(%eax)
  1052ef:	8b 45 0c             	mov    0xc(%ebp),%eax
  1052f2:	8b 40 68             	mov    0x68(%eax),%eax
  1052f5:	3d f4 0f 00 00       	cmp    $0xff4,%eax
  1052fa:	77 12                	ja     10530e <load_boot_sector+0x4b2>
  1052fc:	83 ec 0c             	sub    $0xc,%esp
  1052ff:	68 07 8d 10 00       	push   $0x108d07
  105304:	e8 17 c1 ff ff       	call   101420 <display>
  105309:	83 c4 10             	add    $0x10,%esp
  10530c:	eb 6d                	jmp    10537b <load_boot_sector+0x51f>
  10530e:	8b 45 0c             	mov    0xc(%ebp),%eax
  105311:	8b 40 68             	mov    0x68(%eax),%eax
  105314:	3d f4 ff 00 00       	cmp    $0xfff4,%eax
  105319:	77 12                	ja     10532d <load_boot_sector+0x4d1>
  10531b:	83 ec 0c             	sub    $0xc,%esp
  10531e:	68 1e 8d 10 00       	push   $0x108d1e
  105323:	e8 f8 c0 ff ff       	call   101420 <display>
  105328:	83 c4 10             	add    $0x10,%esp
  10532b:	eb 4e                	jmp    10537b <load_boot_sector+0x51f>
  10532d:	8b 45 10             	mov    0x10(%ebp),%eax
  105330:	83 c0 2b             	add    $0x2b,%eax
  105333:	8a 00                	mov    (%eax),%al
  105335:	0f b6 c0             	movzbl %al,%eax
  105338:	89 c2                	mov    %eax,%edx
  10533a:	c1 e2 08             	shl    $0x8,%edx
  10533d:	8b 45 10             	mov    0x10(%ebp),%eax
  105340:	83 c0 2a             	add    $0x2a,%eax
  105343:	8a 00                	mov    (%eax),%al
  105345:	0f b6 c0             	movzbl %al,%eax
  105348:	8d 04 02             	lea    (%edx,%eax,1),%eax
  10534b:	85 c0                	test   %eax,%eax
  10534d:	74 1c                	je     10536b <load_boot_sector+0x50f>
  10534f:	83 ec 0c             	sub    $0xc,%esp
  105352:	68 38 8d 10 00       	push   $0x108d38
  105357:	e8 c4 c0 ff ff       	call   101420 <display>
  10535c:	83 c4 10             	add    $0x10,%esp
  10535f:	c7 45 e8 ff ff ff ff 	movl   $0xffffffff,-0x18(%ebp)
  105366:	e9 5f 03 00 00       	jmp    1056ca <load_boot_sector+0x86e>
  10536b:	83 ec 0c             	sub    $0xc,%esp
  10536e:	68 57 8d 10 00       	push   $0x108d57
  105373:	e8 a8 c0 ff ff       	call   101420 <display>
  105378:	83 c4 10             	add    $0x10,%esp
  10537b:	8b 45 0c             	mov    0xc(%ebp),%eax
  10537e:	8b 40 68             	mov    0x68(%eax),%eax
  105381:	3d f4 ff 00 00       	cmp    $0xfff4,%eax
  105386:	0f 87 f4 00 00 00    	ja     105480 <load_boot_sector+0x624>
  10538c:	83 ec 0c             	sub    $0xc,%esp
  10538f:	68 70 8d 10 00       	push   $0x108d70
  105394:	e8 87 c0 ff ff       	call   101420 <display>
  105399:	83 c4 10             	add    $0x10,%esp
  10539c:	8b 45 10             	mov    0x10(%ebp),%eax
  10539f:	83 c0 24             	add    $0x24,%eax
  1053a2:	8a 10                	mov    (%eax),%dl
  1053a4:	8b 45 0c             	mov    0xc(%ebp),%eax
  1053a7:	88 50 2c             	mov    %dl,0x2c(%eax)
  1053aa:	8b 45 10             	mov    0x10(%ebp),%eax
  1053ad:	83 c0 25             	add    $0x25,%eax
  1053b0:	8a 10                	mov    (%eax),%dl
  1053b2:	8b 45 0c             	mov    0xc(%ebp),%eax
  1053b5:	88 50 2d             	mov    %dl,0x2d(%eax)
  1053b8:	8b 45 10             	mov    0x10(%ebp),%eax
  1053bb:	83 c0 2a             	add    $0x2a,%eax
  1053be:	8a 00                	mov    (%eax),%al
  1053c0:	0f b6 d0             	movzbl %al,%edx
  1053c3:	8b 45 10             	mov    0x10(%ebp),%eax
  1053c6:	83 c0 29             	add    $0x29,%eax
  1053c9:	8a 00                	mov    (%eax),%al
  1053cb:	0f b6 c0             	movzbl %al,%eax
  1053ce:	8d 04 02             	lea    (%edx,%eax,1),%eax
  1053d1:	89 c2                	mov    %eax,%edx
  1053d3:	c1 e2 08             	shl    $0x8,%edx
  1053d6:	8b 45 10             	mov    0x10(%ebp),%eax
  1053d9:	83 c0 28             	add    $0x28,%eax
  1053dc:	8a 00                	mov    (%eax),%al
  1053de:	0f b6 c0             	movzbl %al,%eax
  1053e1:	8d 04 02             	lea    (%edx,%eax,1),%eax
  1053e4:	89 c2                	mov    %eax,%edx
  1053e6:	c1 e2 08             	shl    $0x8,%edx
  1053e9:	8b 45 10             	mov    0x10(%ebp),%eax
  1053ec:	83 c0 27             	add    $0x27,%eax
  1053ef:	8a 00                	mov    (%eax),%al
  1053f1:	0f b6 c0             	movzbl %al,%eax
  1053f4:	8d 04 02             	lea    (%edx,%eax,1),%eax
  1053f7:	89 c2                	mov    %eax,%edx
  1053f9:	8b 45 0c             	mov    0xc(%ebp),%eax
  1053fc:	89 50 30             	mov    %edx,0x30(%eax)
  1053ff:	8b 45 10             	mov    0x10(%ebp),%eax
  105402:	83 c0 2b             	add    $0x2b,%eax
  105405:	8b 55 0c             	mov    0xc(%ebp),%edx
  105408:	83 c2 34             	add    $0x34,%edx
  10540b:	83 ec 04             	sub    $0x4,%esp
  10540e:	6a 0b                	push   $0xb
  105410:	50                   	push   %eax
  105411:	52                   	push   %edx
  105412:	e8 d4 d3 ff ff       	call   1027eb <memcopy>
  105417:	83 c4 10             	add    $0x10,%esp
  10541a:	8b 45 0c             	mov    0xc(%ebp),%eax
  10541d:	c6 40 40 00          	movb   $0x0,0x40(%eax)
  105421:	8b 45 10             	mov    0x10(%ebp),%eax
  105424:	83 c0 36             	add    $0x36,%eax
  105427:	8b 55 0c             	mov    0xc(%ebp),%edx
  10542a:	83 c2 40             	add    $0x40,%edx
  10542d:	83 ec 04             	sub    $0x4,%esp
  105430:	6a 08                	push   $0x8
  105432:	50                   	push   %eax
  105433:	52                   	push   %edx
  105434:	e8 b2 d3 ff ff       	call   1027eb <memcopy>
  105439:	83 c4 10             	add    $0x10,%esp
  10543c:	8b 45 0c             	mov    0xc(%ebp),%eax
  10543f:	c6 40 4c 00          	movb   $0x0,0x4c(%eax)
  105443:	8b 45 0c             	mov    0xc(%ebp),%eax
  105446:	c7 40 4c 00 00 00 00 	movl   $0x0,0x4c(%eax)
  10544d:	8b 45 0c             	mov    0xc(%ebp),%eax
  105450:	66 c7 40 50 00 00    	movw   $0x0,0x50(%eax)
  105456:	8b 45 0c             	mov    0xc(%ebp),%eax
  105459:	66 c7 40 52 00 00    	movw   $0x0,0x52(%eax)
  10545f:	8b 45 0c             	mov    0xc(%ebp),%eax
  105462:	c7 40 54 00 00 00 00 	movl   $0x0,0x54(%eax)
  105469:	8b 45 0c             	mov    0xc(%ebp),%eax
  10546c:	66 c7 40 58 00 00    	movw   $0x0,0x58(%eax)
  105472:	8b 45 0c             	mov    0xc(%ebp),%eax
  105475:	66 c7 40 5a 00 00    	movw   $0x0,0x5a(%eax)
  10547b:	e9 d5 01 00 00       	jmp    105655 <load_boot_sector+0x7f9>
  105480:	83 ec 0c             	sub    $0xc,%esp
  105483:	68 91 8d 10 00       	push   $0x108d91
  105488:	e8 93 bf ff ff       	call   101420 <display>
  10548d:	83 c4 10             	add    $0x10,%esp
  105490:	8b 45 10             	mov    0x10(%ebp),%eax
  105493:	83 c0 27             	add    $0x27,%eax
  105496:	8a 00                	mov    (%eax),%al
  105498:	0f b6 d0             	movzbl %al,%edx
  10549b:	8b 45 10             	mov    0x10(%ebp),%eax
  10549e:	83 c0 26             	add    $0x26,%eax
  1054a1:	8a 00                	mov    (%eax),%al
  1054a3:	0f b6 c0             	movzbl %al,%eax
  1054a6:	8d 04 02             	lea    (%edx,%eax,1),%eax
  1054a9:	89 c2                	mov    %eax,%edx
  1054ab:	c1 e2 08             	shl    $0x8,%edx
  1054ae:	8b 45 10             	mov    0x10(%ebp),%eax
  1054b1:	83 c0 25             	add    $0x25,%eax
  1054b4:	8a 00                	mov    (%eax),%al
  1054b6:	0f b6 c0             	movzbl %al,%eax
  1054b9:	8d 04 02             	lea    (%edx,%eax,1),%eax
  1054bc:	89 c2                	mov    %eax,%edx
  1054be:	c1 e2 08             	shl    $0x8,%edx
  1054c1:	8b 45 10             	mov    0x10(%ebp),%eax
  1054c4:	83 c0 24             	add    $0x24,%eax
  1054c7:	8a 00                	mov    (%eax),%al
  1054c9:	0f b6 c0             	movzbl %al,%eax
  1054cc:	8d 04 02             	lea    (%edx,%eax,1),%eax
  1054cf:	89 c2                	mov    %eax,%edx
  1054d1:	8b 45 0c             	mov    0xc(%ebp),%eax
  1054d4:	89 50 4c             	mov    %edx,0x4c(%eax)
  1054d7:	8b 45 10             	mov    0x10(%ebp),%eax
  1054da:	83 c0 29             	add    $0x29,%eax
  1054dd:	8a 00                	mov    (%eax),%al
  1054df:	0f b6 c0             	movzbl %al,%eax
  1054e2:	c1 e0 08             	shl    $0x8,%eax
  1054e5:	89 c2                	mov    %eax,%edx
  1054e7:	8b 45 10             	mov    0x10(%ebp),%eax
  1054ea:	83 c0 28             	add    $0x28,%eax
  1054ed:	8a 00                	mov    (%eax),%al
  1054ef:	0f b6 c0             	movzbl %al,%eax
  1054f2:	01 c2                	add    %eax,%edx
  1054f4:	8b 45 0c             	mov    0xc(%ebp),%eax
  1054f7:	66 89 50 50          	mov    %dx,0x50(%eax)
  1054fb:	8b 45 10             	mov    0x10(%ebp),%eax
  1054fe:	83 c0 2b             	add    $0x2b,%eax
  105501:	8a 00                	mov    (%eax),%al
  105503:	0f b6 c0             	movzbl %al,%eax
  105506:	c1 e0 08             	shl    $0x8,%eax
  105509:	89 c2                	mov    %eax,%edx
  10550b:	8b 45 10             	mov    0x10(%ebp),%eax
  10550e:	83 c0 2a             	add    $0x2a,%eax
  105511:	8a 00                	mov    (%eax),%al
  105513:	0f b6 c0             	movzbl %al,%eax
  105516:	01 c2                	add    %eax,%edx
  105518:	8b 45 0c             	mov    0xc(%ebp),%eax
  10551b:	66 89 50 52          	mov    %dx,0x52(%eax)
  10551f:	8b 45 10             	mov    0x10(%ebp),%eax
  105522:	83 c0 2f             	add    $0x2f,%eax
  105525:	8a 00                	mov    (%eax),%al
  105527:	0f b6 d0             	movzbl %al,%edx
  10552a:	8b 45 10             	mov    0x10(%ebp),%eax
  10552d:	83 c0 2e             	add    $0x2e,%eax
  105530:	8a 00                	mov    (%eax),%al
  105532:	0f b6 c0             	movzbl %al,%eax
  105535:	8d 04 02             	lea    (%edx,%eax,1),%eax
  105538:	89 c2                	mov    %eax,%edx
  10553a:	c1 e2 08             	shl    $0x8,%edx
  10553d:	8b 45 10             	mov    0x10(%ebp),%eax
  105540:	83 c0 2d             	add    $0x2d,%eax
  105543:	8a 00                	mov    (%eax),%al
  105545:	0f b6 c0             	movzbl %al,%eax
  105548:	8d 04 02             	lea    (%edx,%eax,1),%eax
  10554b:	89 c2                	mov    %eax,%edx
  10554d:	c1 e2 08             	shl    $0x8,%edx
  105550:	8b 45 10             	mov    0x10(%ebp),%eax
  105553:	83 c0 2c             	add    $0x2c,%eax
  105556:	8a 00                	mov    (%eax),%al
  105558:	0f b6 c0             	movzbl %al,%eax
  10555b:	8d 04 02             	lea    (%edx,%eax,1),%eax
  10555e:	89 c2                	mov    %eax,%edx
  105560:	8b 45 0c             	mov    0xc(%ebp),%eax
  105563:	89 50 54             	mov    %edx,0x54(%eax)
  105566:	8b 45 10             	mov    0x10(%ebp),%eax
  105569:	83 c0 31             	add    $0x31,%eax
  10556c:	8a 00                	mov    (%eax),%al
  10556e:	0f b6 c0             	movzbl %al,%eax
  105571:	c1 e0 08             	shl    $0x8,%eax
  105574:	89 c2                	mov    %eax,%edx
  105576:	8b 45 10             	mov    0x10(%ebp),%eax
  105579:	83 c0 30             	add    $0x30,%eax
  10557c:	8a 00                	mov    (%eax),%al
  10557e:	0f b6 c0             	movzbl %al,%eax
  105581:	01 c2                	add    %eax,%edx
  105583:	8b 45 0c             	mov    0xc(%ebp),%eax
  105586:	66 89 50 58          	mov    %dx,0x58(%eax)
  10558a:	8b 45 10             	mov    0x10(%ebp),%eax
  10558d:	83 c0 33             	add    $0x33,%eax
  105590:	8a 00                	mov    (%eax),%al
  105592:	0f b6 c0             	movzbl %al,%eax
  105595:	c1 e0 08             	shl    $0x8,%eax
  105598:	89 c2                	mov    %eax,%edx
  10559a:	8b 45 10             	mov    0x10(%ebp),%eax
  10559d:	83 c0 32             	add    $0x32,%eax
  1055a0:	8a 00                	mov    (%eax),%al
  1055a2:	0f b6 c0             	movzbl %al,%eax
  1055a5:	01 c2                	add    %eax,%edx
  1055a7:	8b 45 0c             	mov    0xc(%ebp),%eax
  1055aa:	66 89 50 5a          	mov    %dx,0x5a(%eax)
  1055ae:	8b 45 10             	mov    0x10(%ebp),%eax
  1055b1:	83 c0 40             	add    $0x40,%eax
  1055b4:	8a 10                	mov    (%eax),%dl
  1055b6:	8b 45 0c             	mov    0xc(%ebp),%eax
  1055b9:	88 50 2c             	mov    %dl,0x2c(%eax)
  1055bc:	8b 45 10             	mov    0x10(%ebp),%eax
  1055bf:	83 c0 42             	add    $0x42,%eax
  1055c2:	8a 10                	mov    (%eax),%dl
  1055c4:	8b 45 0c             	mov    0xc(%ebp),%eax
  1055c7:	88 50 2d             	mov    %dl,0x2d(%eax)
  1055ca:	8b 45 10             	mov    0x10(%ebp),%eax
  1055cd:	83 c0 46             	add    $0x46,%eax
  1055d0:	8a 00                	mov    (%eax),%al
  1055d2:	0f b6 d0             	movzbl %al,%edx
  1055d5:	8b 45 10             	mov    0x10(%ebp),%eax
  1055d8:	83 c0 45             	add    $0x45,%eax
  1055db:	8a 00                	mov    (%eax),%al
  1055dd:	0f b6 c0             	movzbl %al,%eax
  1055e0:	8d 04 02             	lea    (%edx,%eax,1),%eax
  1055e3:	89 c2                	mov    %eax,%edx
  1055e5:	c1 e2 08             	shl    $0x8,%edx
  1055e8:	8b 45 10             	mov    0x10(%ebp),%eax
  1055eb:	83 c0 44             	add    $0x44,%eax
  1055ee:	8a 00                	mov    (%eax),%al
  1055f0:	0f b6 c0             	movzbl %al,%eax
  1055f3:	8d 04 02             	lea    (%edx,%eax,1),%eax
  1055f6:	89 c2                	mov    %eax,%edx
  1055f8:	c1 e2 08             	shl    $0x8,%edx
  1055fb:	8b 45 10             	mov    0x10(%ebp),%eax
  1055fe:	83 c0 43             	add    $0x43,%eax
  105601:	8a 00                	mov    (%eax),%al
  105603:	0f b6 c0             	movzbl %al,%eax
  105606:	8d 04 02             	lea    (%edx,%eax,1),%eax
  105609:	89 c2                	mov    %eax,%edx
  10560b:	8b 45 0c             	mov    0xc(%ebp),%eax
  10560e:	89 50 30             	mov    %edx,0x30(%eax)
  105611:	8b 45 10             	mov    0x10(%ebp),%eax
  105614:	83 c0 47             	add    $0x47,%eax
  105617:	8b 55 0c             	mov    0xc(%ebp),%edx
  10561a:	83 c2 34             	add    $0x34,%edx
  10561d:	83 ec 04             	sub    $0x4,%esp
  105620:	6a 0b                	push   $0xb
  105622:	50                   	push   %eax
  105623:	52                   	push   %edx
  105624:	e8 c2 d1 ff ff       	call   1027eb <memcopy>
  105629:	83 c4 10             	add    $0x10,%esp
  10562c:	8b 45 0c             	mov    0xc(%ebp),%eax
  10562f:	c6 40 40 00          	movb   $0x0,0x40(%eax)
  105633:	8b 45 10             	mov    0x10(%ebp),%eax
  105636:	83 c0 52             	add    $0x52,%eax
  105639:	8b 55 0c             	mov    0xc(%ebp),%edx
  10563c:	83 c2 40             	add    $0x40,%edx
  10563f:	83 ec 04             	sub    $0x4,%esp
  105642:	6a 08                	push   $0x8
  105644:	50                   	push   %eax
  105645:	52                   	push   %edx
  105646:	e8 a0 d1 ff ff       	call   1027eb <memcopy>
  10564b:	83 c4 10             	add    $0x10,%esp
  10564e:	8b 45 0c             	mov    0xc(%ebp),%eax
  105651:	c6 40 4c 00          	movb   $0x0,0x4c(%eax)
  105655:	83 ec 0c             	sub    $0xc,%esp
  105658:	68 ac 8d 10 00       	push   $0x108dac
  10565d:	e8 be bd ff ff       	call   101420 <display>
  105662:	83 c4 10             	add    $0x10,%esp
  105665:	8b 45 0c             	mov    0xc(%ebp),%eax
  105668:	83 ec 0c             	sub    $0xc,%esp
  10566b:	50                   	push   %eax
  10566c:	e8 af bd ff ff       	call   101420 <display>
  105671:	83 c4 10             	add    $0x10,%esp
  105674:	83 ec 0c             	sub    $0xc,%esp
  105677:	68 b6 8d 10 00       	push   $0x108db6
  10567c:	e8 9f bd ff ff       	call   101420 <display>
  105681:	83 c4 10             	add    $0x10,%esp
  105684:	8b 45 0c             	mov    0xc(%ebp),%eax
  105687:	83 c0 34             	add    $0x34,%eax
  10568a:	83 ec 0c             	sub    $0xc,%esp
  10568d:	50                   	push   %eax
  10568e:	e8 8d bd ff ff       	call   101420 <display>
  105693:	83 c4 10             	add    $0x10,%esp
  105696:	83 ec 0c             	sub    $0xc,%esp
  105699:	68 b6 8d 10 00       	push   $0x108db6
  10569e:	e8 7d bd ff ff       	call   101420 <display>
  1056a3:	83 c4 10             	add    $0x10,%esp
  1056a6:	8b 45 0c             	mov    0xc(%ebp),%eax
  1056a9:	83 c0 40             	add    $0x40,%eax
  1056ac:	83 ec 0c             	sub    $0xc,%esp
  1056af:	50                   	push   %eax
  1056b0:	e8 6b bd ff ff       	call   101420 <display>
  1056b5:	83 c4 10             	add    $0x10,%esp
  1056b8:	83 ec 0c             	sub    $0xc,%esp
  1056bb:	68 b6 8d 10 00       	push   $0x108db6
  1056c0:	e8 5b bd ff ff       	call   101420 <display>
  1056c5:	83 c4 10             	add    $0x10,%esp
  1056c8:	eb 06                	jmp    1056d0 <load_boot_sector+0x874>
  1056ca:	8b 4d e8             	mov    -0x18(%ebp),%ecx
  1056cd:	89 4d e0             	mov    %ecx,-0x20(%ebp)
  1056d0:	8b 45 e0             	mov    -0x20(%ebp),%eax
  1056d3:	c9                   	leave  
  1056d4:	c3                   	ret    

001056d5 <isFat12>:
  1056d5:	55                   	push   %ebp
  1056d6:	89 e5                	mov    %esp,%ebp
  1056d8:	83 ec 04             	sub    $0x4,%esp
  1056db:	8b 45 08             	mov    0x8(%ebp),%eax
  1056de:	8b 40 68             	mov    0x68(%eax),%eax
  1056e1:	3d f4 0f 00 00       	cmp    $0xff4,%eax
  1056e6:	77 09                	ja     1056f1 <isFat12+0x1c>
  1056e8:	c7 45 fc 00 00 00 00 	movl   $0x0,-0x4(%ebp)
  1056ef:	eb 07                	jmp    1056f8 <isFat12+0x23>
  1056f1:	c7 45 fc ff ff ff ff 	movl   $0xffffffff,-0x4(%ebp)
  1056f8:	8b 45 fc             	mov    -0x4(%ebp),%eax
  1056fb:	c9                   	leave  
  1056fc:	c3                   	ret    

001056fd <isFat16>:
  1056fd:	55                   	push   %ebp
  1056fe:	89 e5                	mov    %esp,%ebp
  105700:	83 ec 04             	sub    $0x4,%esp
  105703:	8b 45 08             	mov    0x8(%ebp),%eax
  105706:	8b 40 68             	mov    0x68(%eax),%eax
  105709:	3d f4 0f 00 00       	cmp    $0xff4,%eax
  10570e:	77 09                	ja     105719 <isFat16+0x1c>
  105710:	c7 45 fc ff ff ff ff 	movl   $0xffffffff,-0x4(%ebp)
  105717:	eb 1d                	jmp    105736 <isFat16+0x39>
  105719:	8b 45 08             	mov    0x8(%ebp),%eax
  10571c:	8b 40 68             	mov    0x68(%eax),%eax
  10571f:	3d f4 ff 00 00       	cmp    $0xfff4,%eax
  105724:	77 09                	ja     10572f <isFat16+0x32>
  105726:	c7 45 fc 00 00 00 00 	movl   $0x0,-0x4(%ebp)
  10572d:	eb 07                	jmp    105736 <isFat16+0x39>
  10572f:	c7 45 fc ff ff ff ff 	movl   $0xffffffff,-0x4(%ebp)
  105736:	8b 45 fc             	mov    -0x4(%ebp),%eax
  105739:	c9                   	leave  
  10573a:	c3                   	ret    

0010573b <isFat32>:
  10573b:	55                   	push   %ebp
  10573c:	89 e5                	mov    %esp,%ebp
  10573e:	83 ec 04             	sub    $0x4,%esp
  105741:	8b 45 08             	mov    0x8(%ebp),%eax
  105744:	8b 40 68             	mov    0x68(%eax),%eax
  105747:	3d f4 0f 00 00       	cmp    $0xff4,%eax
  10574c:	77 09                	ja     105757 <isFat32+0x1c>
  10574e:	c7 45 fc ff ff ff ff 	movl   $0xffffffff,-0x4(%ebp)
  105755:	eb 1d                	jmp    105774 <isFat32+0x39>
  105757:	8b 45 08             	mov    0x8(%ebp),%eax
  10575a:	8b 40 68             	mov    0x68(%eax),%eax
  10575d:	3d f4 ff 00 00       	cmp    $0xfff4,%eax
  105762:	77 09                	ja     10576d <isFat32+0x32>
  105764:	c7 45 fc ff ff ff ff 	movl   $0xffffffff,-0x4(%ebp)
  10576b:	eb 07                	jmp    105774 <isFat32+0x39>
  10576d:	c7 45 fc 00 00 00 00 	movl   $0x0,-0x4(%ebp)
  105774:	8b 45 fc             	mov    -0x4(%ebp),%eax
  105777:	c9                   	leave  
  105778:	c3                   	ret    

00105779 <FirstSectorOfCluster>:
  105779:	55                   	push   %ebp
  10577a:	89 e5                	mov    %esp,%ebp
  10577c:	8b 45 08             	mov    0x8(%ebp),%eax
  10577f:	83 e8 02             	sub    $0x2,%eax
  105782:	0f af 45 0c          	imul   0xc(%ebp),%eax
  105786:	03 45 10             	add    0x10(%ebp),%eax
  105789:	c9                   	leave  
  10578a:	c3                   	ret    
	...

0010578c <add_task_next>:
  10578c:	55                   	push   %ebp
  10578d:	89 e5                	mov    %esp,%ebp
  10578f:	83 ec 18             	sub    $0x18,%esp
  105792:	83 ec 0c             	sub    $0xc,%esp
  105795:	6a 0c                	push   $0xc
  105797:	e8 f1 cb ff ff       	call   10238d <malloc>
  10579c:	83 c4 10             	add    $0x10,%esp
  10579f:	89 45 fc             	mov    %eax,-0x4(%ebp)
  1057a2:	83 ec 0c             	sub    $0xc,%esp
  1057a5:	6a 66                	push   $0x66
  1057a7:	e8 e1 cb ff ff       	call   10238d <malloc>
  1057ac:	83 c4 10             	add    $0x10,%esp
  1057af:	89 c2                	mov    %eax,%edx
  1057b1:	8b 45 fc             	mov    -0x4(%ebp),%eax
  1057b4:	89 50 04             	mov    %edx,0x4(%eax)
  1057b7:	8b 55 fc             	mov    -0x4(%ebp),%edx
  1057ba:	8b 45 0c             	mov    0xc(%ebp),%eax
  1057bd:	89 02                	mov    %eax,(%edx)
  1057bf:	8b 45 0c             	mov    0xc(%ebp),%eax
  1057c2:	8b 50 08             	mov    0x8(%eax),%edx
  1057c5:	8b 45 fc             	mov    -0x4(%ebp),%eax
  1057c8:	89 50 08             	mov    %edx,0x8(%eax)
  1057cb:	8b 55 0c             	mov    0xc(%ebp),%edx
  1057ce:	8b 45 fc             	mov    -0x4(%ebp),%eax
  1057d1:	89 42 08             	mov    %eax,0x8(%edx)
  1057d4:	8b 45 0c             	mov    0xc(%ebp),%eax
  1057d7:	8b 50 08             	mov    0x8(%eax),%edx
  1057da:	8b 45 fc             	mov    -0x4(%ebp),%eax
  1057dd:	89 02                	mov    %eax,(%edx)
  1057df:	8b 45 fc             	mov    -0x4(%ebp),%eax
  1057e2:	8b 40 04             	mov    0x4(%eax),%eax
  1057e5:	8b 55 08             	mov    0x8(%ebp),%edx
  1057e8:	89 c1                	mov    %eax,%ecx
  1057ea:	b8 66 00 00 00       	mov    $0x66,%eax
  1057ef:	83 ec 04             	sub    $0x4,%esp
  1057f2:	50                   	push   %eax
  1057f3:	52                   	push   %edx
  1057f4:	51                   	push   %ecx
  1057f5:	e8 26 d0 ff ff       	call   102820 <memcpy>
  1057fa:	83 c4 10             	add    $0x10,%esp
  1057fd:	b8 00 00 00 00       	mov    $0x0,%eax
  105802:	c9                   	leave  
  105803:	c3                   	ret    

00105804 <add_task_before>:
  105804:	55                   	push   %ebp
  105805:	89 e5                	mov    %esp,%ebp
  105807:	83 ec 18             	sub    $0x18,%esp
  10580a:	83 ec 0c             	sub    $0xc,%esp
  10580d:	6a 0c                	push   $0xc
  10580f:	e8 79 cb ff ff       	call   10238d <malloc>
  105814:	83 c4 10             	add    $0x10,%esp
  105817:	89 45 fc             	mov    %eax,-0x4(%ebp)
  10581a:	83 ec 0c             	sub    $0xc,%esp
  10581d:	6a 66                	push   $0x66
  10581f:	e8 69 cb ff ff       	call   10238d <malloc>
  105824:	83 c4 10             	add    $0x10,%esp
  105827:	89 c2                	mov    %eax,%edx
  105829:	8b 45 fc             	mov    -0x4(%ebp),%eax
  10582c:	89 50 04             	mov    %edx,0x4(%eax)
  10582f:	83 ec 0c             	sub    $0xc,%esp
  105832:	68 b8 8d 10 00       	push   $0x108db8
  105837:	e8 e4 bb ff ff       	call   101420 <display>
  10583c:	83 c4 10             	add    $0x10,%esp
  10583f:	83 ec 0c             	sub    $0xc,%esp
  105842:	ff 75 fc             	pushl  -0x4(%ebp)
  105845:	e8 26 bc ff ff       	call   101470 <PrintNumber>
  10584a:	83 c4 10             	add    $0x10,%esp
  10584d:	83 ec 0c             	sub    $0xc,%esp
  105850:	68 d6 8d 10 00       	push   $0x108dd6
  105855:	e8 c6 bb ff ff       	call   101420 <display>
  10585a:	83 c4 10             	add    $0x10,%esp
  10585d:	8b 45 fc             	mov    -0x4(%ebp),%eax
  105860:	8b 40 04             	mov    0x4(%eax),%eax
  105863:	83 ec 0c             	sub    $0xc,%esp
  105866:	50                   	push   %eax
  105867:	e8 04 bc ff ff       	call   101470 <PrintNumber>
  10586c:	83 c4 10             	add    $0x10,%esp
  10586f:	83 ec 0c             	sub    $0xc,%esp
  105872:	68 ed 8d 10 00       	push   $0x108ded
  105877:	e8 a4 bb ff ff       	call   101420 <display>
  10587c:	83 c4 10             	add    $0x10,%esp
  10587f:	8b 55 fc             	mov    -0x4(%ebp),%edx
  105882:	8b 45 0c             	mov    0xc(%ebp),%eax
  105885:	89 42 08             	mov    %eax,0x8(%edx)
  105888:	8b 45 0c             	mov    0xc(%ebp),%eax
  10588b:	8b 10                	mov    (%eax),%edx
  10588d:	8b 45 fc             	mov    -0x4(%ebp),%eax
  105890:	89 10                	mov    %edx,(%eax)
  105892:	8b 45 0c             	mov    0xc(%ebp),%eax
  105895:	8b 10                	mov    (%eax),%edx
  105897:	8b 45 fc             	mov    -0x4(%ebp),%eax
  10589a:	89 42 08             	mov    %eax,0x8(%edx)
  10589d:	8b 55 0c             	mov    0xc(%ebp),%edx
  1058a0:	8b 45 fc             	mov    -0x4(%ebp),%eax
  1058a3:	89 02                	mov    %eax,(%edx)
  1058a5:	8b 45 0c             	mov    0xc(%ebp),%eax
  1058a8:	8b 40 08             	mov    0x8(%eax),%eax
  1058ab:	3b 45 0c             	cmp    0xc(%ebp),%eax
  1058ae:	75 09                	jne    1058b9 <add_task_before+0xb5>
  1058b0:	8b 55 0c             	mov    0xc(%ebp),%edx
  1058b3:	8b 45 fc             	mov    -0x4(%ebp),%eax
  1058b6:	89 42 08             	mov    %eax,0x8(%edx)
  1058b9:	8b 45 fc             	mov    -0x4(%ebp),%eax
  1058bc:	8b 40 04             	mov    0x4(%eax),%eax
  1058bf:	83 ec 04             	sub    $0x4,%esp
  1058c2:	6a 66                	push   $0x66
  1058c4:	ff 75 08             	pushl  0x8(%ebp)
  1058c7:	50                   	push   %eax
  1058c8:	e8 1e cf ff ff       	call   1027eb <memcopy>
  1058cd:	83 c4 10             	add    $0x10,%esp
  1058d0:	8b 45 0c             	mov    0xc(%ebp),%eax
  1058d3:	8b 00                	mov    (%eax),%eax
  1058d5:	8b 00                	mov    (%eax),%eax
  1058d7:	83 ec 0c             	sub    $0xc,%esp
  1058da:	50                   	push   %eax
  1058db:	e8 90 bb ff ff       	call   101470 <PrintNumber>
  1058e0:	83 c4 10             	add    $0x10,%esp
  1058e3:	83 ec 0c             	sub    $0xc,%esp
  1058e6:	68 ef 8d 10 00       	push   $0x108def
  1058eb:	e8 30 bb ff ff       	call   101420 <display>
  1058f0:	83 c4 10             	add    $0x10,%esp
  1058f3:	8b 45 0c             	mov    0xc(%ebp),%eax
  1058f6:	8b 00                	mov    (%eax),%eax
  1058f8:	83 ec 0c             	sub    $0xc,%esp
  1058fb:	50                   	push   %eax
  1058fc:	e8 6f bb ff ff       	call   101470 <PrintNumber>
  105901:	83 c4 10             	add    $0x10,%esp
  105904:	83 ec 0c             	sub    $0xc,%esp
  105907:	68 ef 8d 10 00       	push   $0x108def
  10590c:	e8 0f bb ff ff       	call   101420 <display>
  105911:	83 c4 10             	add    $0x10,%esp
  105914:	83 ec 0c             	sub    $0xc,%esp
  105917:	ff 75 0c             	pushl  0xc(%ebp)
  10591a:	e8 51 bb ff ff       	call   101470 <PrintNumber>
  10591f:	83 c4 10             	add    $0x10,%esp
  105922:	83 ec 0c             	sub    $0xc,%esp
  105925:	68 ef 8d 10 00       	push   $0x108def
  10592a:	e8 f1 ba ff ff       	call   101420 <display>
  10592f:	83 c4 10             	add    $0x10,%esp
  105932:	8b 45 0c             	mov    0xc(%ebp),%eax
  105935:	8b 40 08             	mov    0x8(%eax),%eax
  105938:	83 ec 0c             	sub    $0xc,%esp
  10593b:	50                   	push   %eax
  10593c:	e8 2f bb ff ff       	call   101470 <PrintNumber>
  105941:	83 c4 10             	add    $0x10,%esp
  105944:	83 ec 0c             	sub    $0xc,%esp
  105947:	68 ef 8d 10 00       	push   $0x108def
  10594c:	e8 cf ba ff ff       	call   101420 <display>
  105951:	83 c4 10             	add    $0x10,%esp
  105954:	8b 45 0c             	mov    0xc(%ebp),%eax
  105957:	8b 40 08             	mov    0x8(%eax),%eax
  10595a:	8b 40 08             	mov    0x8(%eax),%eax
  10595d:	83 ec 0c             	sub    $0xc,%esp
  105960:	50                   	push   %eax
  105961:	e8 0a bb ff ff       	call   101470 <PrintNumber>
  105966:	83 c4 10             	add    $0x10,%esp
  105969:	83 ec 0c             	sub    $0xc,%esp
  10596c:	68 ed 8d 10 00       	push   $0x108ded
  105971:	e8 aa ba ff ff       	call   101420 <display>
  105976:	83 c4 10             	add    $0x10,%esp
  105979:	b8 00 00 00 00       	mov    $0x0,%eax
  10597e:	c9                   	leave  
  10597f:	c3                   	ret    

00105980 <remove_current_task>:
  105980:	55                   	push   %ebp
  105981:	89 e5                	mov    %esp,%ebp
  105983:	83 ec 18             	sub    $0x18,%esp
  105986:	8b 45 08             	mov    0x8(%ebp),%eax
  105989:	8b 10                	mov    (%eax),%edx
  10598b:	8b 45 08             	mov    0x8(%ebp),%eax
  10598e:	8b 40 08             	mov    0x8(%eax),%eax
  105991:	89 42 08             	mov    %eax,0x8(%edx)
  105994:	8b 45 08             	mov    0x8(%ebp),%eax
  105997:	8b 50 08             	mov    0x8(%eax),%edx
  10599a:	8b 45 08             	mov    0x8(%ebp),%eax
  10599d:	8b 00                	mov    (%eax),%eax
  10599f:	89 02                	mov    %eax,(%edx)
  1059a1:	8b 45 08             	mov    0x8(%ebp),%eax
  1059a4:	89 45 fc             	mov    %eax,-0x4(%ebp)
  1059a7:	8b 45 08             	mov    0x8(%ebp),%eax
  1059aa:	8b 40 08             	mov    0x8(%eax),%eax
  1059ad:	89 45 08             	mov    %eax,0x8(%ebp)
  1059b0:	8b 45 fc             	mov    -0x4(%ebp),%eax
  1059b3:	8b 40 04             	mov    0x4(%eax),%eax
  1059b6:	83 ec 0c             	sub    $0xc,%esp
  1059b9:	50                   	push   %eax
  1059ba:	e8 5a cc ff ff       	call   102619 <free>
  1059bf:	83 c4 10             	add    $0x10,%esp
  1059c2:	83 ec 0c             	sub    $0xc,%esp
  1059c5:	ff 75 fc             	pushl  -0x4(%ebp)
  1059c8:	e8 4c cc ff ff       	call   102619 <free>
  1059cd:	83 c4 10             	add    $0x10,%esp
  1059d0:	8b 45 08             	mov    0x8(%ebp),%eax
  1059d3:	c9                   	leave  
  1059d4:	c3                   	ret    

001059d5 <remove_next_task>:
  1059d5:	55                   	push   %ebp
  1059d6:	89 e5                	mov    %esp,%ebp
  1059d8:	83 ec 18             	sub    $0x18,%esp
  1059db:	8b 45 08             	mov    0x8(%ebp),%eax
  1059de:	8b 40 08             	mov    0x8(%eax),%eax
  1059e1:	89 45 fc             	mov    %eax,-0x4(%ebp)
  1059e4:	8b 45 08             	mov    0x8(%ebp),%eax
  1059e7:	8b 40 08             	mov    0x8(%eax),%eax
  1059ea:	8b 50 08             	mov    0x8(%eax),%edx
  1059ed:	8b 45 08             	mov    0x8(%ebp),%eax
  1059f0:	89 50 08             	mov    %edx,0x8(%eax)
  1059f3:	8b 45 08             	mov    0x8(%ebp),%eax
  1059f6:	8b 50 08             	mov    0x8(%eax),%edx
  1059f9:	8b 45 08             	mov    0x8(%ebp),%eax
  1059fc:	89 02                	mov    %eax,(%edx)
  1059fe:	8b 45 fc             	mov    -0x4(%ebp),%eax
  105a01:	8b 40 04             	mov    0x4(%eax),%eax
  105a04:	83 ec 0c             	sub    $0xc,%esp
  105a07:	50                   	push   %eax
  105a08:	e8 0c cc ff ff       	call   102619 <free>
  105a0d:	83 c4 10             	add    $0x10,%esp
  105a10:	83 ec 0c             	sub    $0xc,%esp
  105a13:	ff 75 fc             	pushl  -0x4(%ebp)
  105a16:	e8 fe cb ff ff       	call   102619 <free>
  105a1b:	83 c4 10             	add    $0x10,%esp
  105a1e:	b8 00 00 00 00       	mov    $0x0,%eax
  105a23:	c9                   	leave  
  105a24:	c3                   	ret    

00105a25 <remove_previous_task>:
  105a25:	55                   	push   %ebp
  105a26:	89 e5                	mov    %esp,%ebp
  105a28:	83 ec 18             	sub    $0x18,%esp
  105a2b:	8b 45 08             	mov    0x8(%ebp),%eax
  105a2e:	8b 00                	mov    (%eax),%eax
  105a30:	89 45 fc             	mov    %eax,-0x4(%ebp)
  105a33:	8b 45 08             	mov    0x8(%ebp),%eax
  105a36:	8b 00                	mov    (%eax),%eax
  105a38:	8b 10                	mov    (%eax),%edx
  105a3a:	8b 45 08             	mov    0x8(%ebp),%eax
  105a3d:	89 10                	mov    %edx,(%eax)
  105a3f:	8b 45 08             	mov    0x8(%ebp),%eax
  105a42:	8b 10                	mov    (%eax),%edx
  105a44:	8b 45 08             	mov    0x8(%ebp),%eax
  105a47:	89 42 08             	mov    %eax,0x8(%edx)
  105a4a:	8b 45 fc             	mov    -0x4(%ebp),%eax
  105a4d:	8b 40 04             	mov    0x4(%eax),%eax
  105a50:	83 ec 0c             	sub    $0xc,%esp
  105a53:	50                   	push   %eax
  105a54:	e8 c0 cb ff ff       	call   102619 <free>
  105a59:	83 c4 10             	add    $0x10,%esp
  105a5c:	83 ec 0c             	sub    $0xc,%esp
  105a5f:	ff 75 fc             	pushl  -0x4(%ebp)
  105a62:	e8 b2 cb ff ff       	call   102619 <free>
  105a67:	83 c4 10             	add    $0x10,%esp
  105a6a:	b8 00 00 00 00       	mov    $0x0,%eax
  105a6f:	c9                   	leave  
  105a70:	c3                   	ret    

00105a71 <init_first_task>:
  105a71:	55                   	push   %ebp
  105a72:	89 e5                	mov    %esp,%ebp
  105a74:	53                   	push   %ebx
  105a75:	83 ec 04             	sub    $0x4,%esp
  105a78:	8b 55 08             	mov    0x8(%ebp),%edx
  105a7b:	8b 45 08             	mov    0x8(%ebp),%eax
  105a7e:	89 42 08             	mov    %eax,0x8(%edx)
  105a81:	8b 55 08             	mov    0x8(%ebp),%edx
  105a84:	8b 45 08             	mov    0x8(%ebp),%eax
  105a87:	89 02                	mov    %eax,(%edx)
  105a89:	83 ec 0c             	sub    $0xc,%esp
  105a8c:	6a 66                	push   $0x66
  105a8e:	e8 fa c8 ff ff       	call   10238d <malloc>
  105a93:	83 c4 10             	add    $0x10,%esp
  105a96:	89 c2                	mov    %eax,%edx
  105a98:	8b 45 08             	mov    0x8(%ebp),%eax
  105a9b:	89 50 04             	mov    %edx,0x4(%eax)
  105a9e:	83 ec 0c             	sub    $0xc,%esp
  105aa1:	68 b8 8d 10 00       	push   $0x108db8
  105aa6:	e8 75 b9 ff ff       	call   101420 <display>
  105aab:	83 c4 10             	add    $0x10,%esp
  105aae:	83 ec 0c             	sub    $0xc,%esp
  105ab1:	ff 75 08             	pushl  0x8(%ebp)
  105ab4:	e8 b7 b9 ff ff       	call   101470 <PrintNumber>
  105ab9:	83 c4 10             	add    $0x10,%esp
  105abc:	83 ec 0c             	sub    $0xc,%esp
  105abf:	68 d6 8d 10 00       	push   $0x108dd6
  105ac4:	e8 57 b9 ff ff       	call   101420 <display>
  105ac9:	83 c4 10             	add    $0x10,%esp
  105acc:	8b 45 08             	mov    0x8(%ebp),%eax
  105acf:	8b 40 04             	mov    0x4(%eax),%eax
  105ad2:	83 ec 0c             	sub    $0xc,%esp
  105ad5:	50                   	push   %eax
  105ad6:	e8 95 b9 ff ff       	call   101470 <PrintNumber>
  105adb:	83 c4 10             	add    $0x10,%esp
  105ade:	83 ec 0c             	sub    $0xc,%esp
  105ae1:	68 ed 8d 10 00       	push   $0x108ded
  105ae6:	e8 35 b9 ff ff       	call   101420 <display>
  105aeb:	83 c4 10             	add    $0x10,%esp
  105aee:	8b 45 08             	mov    0x8(%ebp),%eax
  105af1:	8b 40 04             	mov    0x4(%eax),%eax
  105af4:	66 c7 40 4c 08 00    	movw   $0x8,0x4c(%eax)
  105afa:	8b 45 08             	mov    0x8(%ebp),%eax
  105afd:	8b 40 04             	mov    0x4(%eax),%eax
  105b00:	66 c7 40 54 10 00    	movw   $0x10,0x54(%eax)
  105b06:	8b 45 08             	mov    0x8(%ebp),%eax
  105b09:	8b 40 04             	mov    0x4(%eax),%eax
  105b0c:	66 c7 40 48 10 00    	movw   $0x10,0x48(%eax)
  105b12:	8b 45 08             	mov    0x8(%ebp),%eax
  105b15:	8b 40 04             	mov    0x4(%eax),%eax
  105b18:	66 c7 40 58 10 00    	movw   $0x10,0x58(%eax)
  105b1e:	8b 45 08             	mov    0x8(%ebp),%eax
  105b21:	8b 40 04             	mov    0x4(%eax),%eax
  105b24:	66 c7 40 5c 10 00    	movw   $0x10,0x5c(%eax)
  105b2a:	8b 45 08             	mov    0x8(%ebp),%eax
  105b2d:	8b 40 04             	mov    0x4(%eax),%eax
  105b30:	66 c7 40 50 10 00    	movw   $0x10,0x50(%eax)
  105b36:	8b 45 08             	mov    0x8(%ebp),%eax
  105b39:	8b 58 04             	mov    0x4(%eax),%ebx
  105b3c:	e8 1c a7 ff ff       	call   10025d <getCR3>
  105b41:	89 43 1c             	mov    %eax,0x1c(%ebx)
  105b44:	8b 45 08             	mov    0x8(%ebp),%eax
  105b47:	8b 40 04             	mov    0x4(%eax),%eax
  105b4a:	66 c7 40 60 00 00    	movw   $0x0,0x60(%eax)
  105b50:	8b 45 08             	mov    0x8(%ebp),%eax
  105b53:	8b 58 04             	mov    0x4(%eax),%ebx
  105b56:	e8 be a8 ff ff       	call   100419 <get_current_tss>
  105b5b:	83 ec 04             	sub    $0x4,%esp
  105b5e:	6a 66                	push   $0x66
  105b60:	53                   	push   %ebx
  105b61:	50                   	push   %eax
  105b62:	e8 84 cc ff ff       	call   1027eb <memcopy>
  105b67:	83 c4 10             	add    $0x10,%esp
  105b6a:	8b 5d fc             	mov    -0x4(%ebp),%ebx
  105b6d:	c9                   	leave  
  105b6e:	c3                   	ret    

00105b6f <next_state>:
  105b6f:	55                   	push   %ebp
  105b70:	89 e5                	mov    %esp,%ebp
  105b72:	83 ec 08             	sub    $0x8,%esp
  105b75:	83 7d 08 01          	cmpl   $0x1,0x8(%ebp)
  105b79:	75 1b                	jne    105b96 <next_state+0x27>
  105b7b:	8b 45 0c             	mov    0xc(%ebp),%eax
  105b7e:	8b 00                	mov    (%eax),%eax
  105b80:	8b 40 04             	mov    0x4(%eax),%eax
  105b83:	83 ec 04             	sub    $0x4,%esp
  105b86:	6a 66                	push   $0x66
  105b88:	ff 75 14             	pushl  0x14(%ebp)
  105b8b:	50                   	push   %eax
  105b8c:	e8 5a cc ff ff       	call   1027eb <memcopy>
  105b91:	83 c4 10             	add    $0x10,%esp
  105b94:	eb 10                	jmp    105ba6 <next_state+0x37>
  105b96:	83 ec 0c             	sub    $0xc,%esp
  105b99:	68 ed 8d 10 00       	push   $0x108ded
  105b9e:	e8 7d b8 ff ff       	call   101420 <display>
  105ba3:	83 c4 10             	add    $0x10,%esp
  105ba6:	8b 45 0c             	mov    0xc(%ebp),%eax
  105ba9:	8b 40 08             	mov    0x8(%eax),%eax
  105bac:	8b 40 04             	mov    0x4(%eax),%eax
  105baf:	83 ec 04             	sub    $0x4,%esp
  105bb2:	6a 66                	push   $0x66
  105bb4:	50                   	push   %eax
  105bb5:	ff 75 14             	pushl  0x14(%ebp)
  105bb8:	e8 2e cc ff ff       	call   1027eb <memcopy>
  105bbd:	83 c4 10             	add    $0x10,%esp
  105bc0:	8b 45 0c             	mov    0xc(%ebp),%eax
  105bc3:	8b 40 08             	mov    0x8(%eax),%eax
  105bc6:	c9                   	leave  
  105bc7:	c3                   	ret    

00105bc8 <get_sys_tasks>:
  105bc8:	55                   	push   %ebp
  105bc9:	89 e5                	mov    %esp,%ebp
  105bcb:	b8 00 d0 10 00       	mov    $0x10d000,%eax
  105bd0:	c9                   	leave  
  105bd1:	c3                   	ret    

00105bd2 <secondary_task>:
  105bd2:	55                   	push   %ebp
  105bd3:	89 e5                	mov    %esp,%ebp
  105bd5:	83 ec 18             	sub    $0x18,%esp
  105bd8:	ff 45 fc             	incl   -0x4(%ebp)
  105bdb:	81 7d fc 00 00 01 00 	cmpl   $0x10000,-0x4(%ebp)
  105be2:	75 f4                	jne    105bd8 <secondary_task+0x6>
  105be4:	83 ec 0c             	sub    $0xc,%esp
  105be7:	68 f2 8d 10 00       	push   $0x108df2
  105bec:	e8 2f b8 ff ff       	call   101420 <display>
  105bf1:	83 c4 10             	add    $0x10,%esp
  105bf4:	c7 45 fc 00 00 00 00 	movl   $0x0,-0x4(%ebp)
  105bfb:	eb db                	jmp    105bd8 <secondary_task+0x6>
  105bfd:	00 00                	add    %al,(%eax)
	...

00105c00 <_puts_r>:
  105c00:	55                   	push   %ebp
  105c01:	89 e5                	mov    %esp,%ebp
  105c03:	56                   	push   %esi
  105c04:	53                   	push   %ebx
  105c05:	83 ec 2c             	sub    $0x2c,%esp
  105c08:	8b 75 08             	mov    0x8(%ebp),%esi
  105c0b:	8b 5d 0c             	mov    0xc(%ebp),%ebx
  105c0e:	53                   	push   %ebx
  105c0f:	e8 60 00 00 00       	call   105c74 <strlen>
  105c14:	89 5d dc             	mov    %ebx,-0x24(%ebp)
  105c17:	89 45 e0             	mov    %eax,-0x20(%ebp)
  105c1a:	c7 45 e4 00 a0 10 00 	movl   $0x10a000,-0x1c(%ebp)
  105c21:	c7 45 e8 01 00 00 00 	movl   $0x1,-0x18(%ebp)
  105c28:	40                   	inc    %eax
  105c29:	89 45 f4             	mov    %eax,-0xc(%ebp)
  105c2c:	8d 45 dc             	lea    -0x24(%ebp),%eax
  105c2f:	89 45 ec             	mov    %eax,-0x14(%ebp)
  105c32:	c7 45 f0 02 00 00 00 	movl   $0x2,-0x10(%ebp)
  105c39:	83 c4 0c             	add    $0xc,%esp
  105c3c:	8d 45 ec             	lea    -0x14(%ebp),%eax
  105c3f:	50                   	push   %eax
  105c40:	ff 76 08             	pushl  0x8(%esi)
  105c43:	56                   	push   %esi
  105c44:	e8 4b 00 00 00       	call   105c94 <__sfvwrite_r>
  105c49:	83 c4 10             	add    $0x10,%esp
  105c4c:	83 f8 01             	cmp    $0x1,%eax
  105c4f:	19 c0                	sbb    %eax,%eax
  105c51:	83 e0 0b             	and    $0xb,%eax
  105c54:	48                   	dec    %eax
  105c55:	8d 65 f8             	lea    -0x8(%ebp),%esp
  105c58:	5b                   	pop    %ebx
  105c59:	5e                   	pop    %esi
  105c5a:	c9                   	leave  
  105c5b:	c3                   	ret    

00105c5c <puts>:
  105c5c:	55                   	push   %ebp
  105c5d:	89 e5                	mov    %esp,%ebp
  105c5f:	83 ec 10             	sub    $0x10,%esp
  105c62:	ff 75 08             	pushl  0x8(%ebp)
  105c65:	ff 35 e0 91 10 00    	pushl  0x1091e0
  105c6b:	e8 90 ff ff ff       	call   105c00 <_puts_r>
  105c70:	c9                   	leave  
  105c71:	c3                   	ret    
	...

00105c74 <strlen>:
  105c74:	55                   	push   %ebp
  105c75:	89 e5                	mov    %esp,%ebp
  105c77:	57                   	push   %edi
  105c78:	8b 55 08             	mov    0x8(%ebp),%edx
  105c7b:	fc                   	cld    
  105c7c:	89 d7                	mov    %edx,%edi
  105c7e:	b9 ff ff ff ff       	mov    $0xffffffff,%ecx
  105c83:	31 c0                	xor    %eax,%eax
  105c85:	f2 ae                	repnz scas %es:(%edi),%al
  105c87:	29 d7                	sub    %edx,%edi
  105c89:	8d 47 ff             	lea    -0x1(%edi),%eax
  105c8c:	8d 65 fc             	lea    -0x4(%ebp),%esp
  105c8f:	5f                   	pop    %edi
  105c90:	c9                   	leave  
  105c91:	c3                   	ret    
	...

00105c94 <__sfvwrite_r>:
  105c94:	55                   	push   %ebp
  105c95:	89 e5                	mov    %esp,%ebp
  105c97:	57                   	push   %edi
  105c98:	56                   	push   %esi
  105c99:	53                   	push   %ebx
  105c9a:	83 ec 1c             	sub    $0x1c,%esp
  105c9d:	8b 45 10             	mov    0x10(%ebp),%eax
  105ca0:	8b 48 08             	mov    0x8(%eax),%ecx
  105ca3:	85 c9                	test   %ecx,%ecx
  105ca5:	74 7c                	je     105d23 <__sfvwrite_r+0x8f>
  105ca7:	8b 55 0c             	mov    0xc(%ebp),%edx
  105caa:	0f bf 42 0c          	movswl 0xc(%edx),%eax
  105cae:	a8 08                	test   $0x8,%al
  105cb0:	74 7b                	je     105d2d <__sfvwrite_r+0x99>
  105cb2:	8b 52 10             	mov    0x10(%edx),%edx
  105cb5:	85 d2                	test   %edx,%edx
  105cb7:	74 74                	je     105d2d <__sfvwrite_r+0x99>
  105cb9:	8b 55 10             	mov    0x10(%ebp),%edx
  105cbc:	8b 12                	mov    (%edx),%edx
  105cbe:	89 55 dc             	mov    %edx,-0x24(%ebp)
  105cc1:	a8 02                	test   $0x2,%al
  105cc3:	0f 84 91 00 00 00    	je     105d5a <__sfvwrite_r+0xc6>
  105cc9:	31 db                	xor    %ebx,%ebx
  105ccb:	31 f6                	xor    %esi,%esi
  105ccd:	8d 76 00             	lea    0x0(%esi),%esi
  105cd0:	85 db                	test   %ebx,%ebx
  105cd2:	74 3f                	je     105d13 <__sfvwrite_r+0x7f>
  105cd4:	50                   	push   %eax
  105cd5:	89 d8                	mov    %ebx,%eax
  105cd7:	81 fb 00 04 00 00    	cmp    $0x400,%ebx
  105cdd:	76 05                	jbe    105ce4 <__sfvwrite_r+0x50>
  105cdf:	b8 00 04 00 00       	mov    $0x400,%eax
  105ce4:	50                   	push   %eax
  105ce5:	56                   	push   %esi
  105ce6:	8b 45 0c             	mov    0xc(%ebp),%eax
  105ce9:	ff 70 1c             	pushl  0x1c(%eax)
  105cec:	ff 50 24             	call   *0x24(%eax)
  105cef:	89 c2                	mov    %eax,%edx
  105cf1:	83 c4 10             	add    $0x10,%esp
  105cf4:	85 c0                	test   %eax,%eax
  105cf6:	0f 8e 63 01 00 00    	jle    105e5f <__sfvwrite_r+0x1cb>
  105cfc:	8b 4d 10             	mov    0x10(%ebp),%ecx
  105cff:	8b 41 08             	mov    0x8(%ecx),%eax
  105d02:	29 d0                	sub    %edx,%eax
  105d04:	89 41 08             	mov    %eax,0x8(%ecx)
  105d07:	85 c0                	test   %eax,%eax
  105d09:	74 18                	je     105d23 <__sfvwrite_r+0x8f>
  105d0b:	01 d6                	add    %edx,%esi
  105d0d:	29 d3                	sub    %edx,%ebx
  105d0f:	85 db                	test   %ebx,%ebx
  105d11:	75 c1                	jne    105cd4 <__sfvwrite_r+0x40>
  105d13:	8b 4d dc             	mov    -0x24(%ebp),%ecx
  105d16:	8b 31                	mov    (%ecx),%esi
  105d18:	8b 59 04             	mov    0x4(%ecx),%ebx
  105d1b:	83 c1 08             	add    $0x8,%ecx
  105d1e:	89 4d dc             	mov    %ecx,-0x24(%ebp)
  105d21:	eb ad                	jmp    105cd0 <__sfvwrite_r+0x3c>
  105d23:	31 c0                	xor    %eax,%eax
  105d25:	8d 65 f4             	lea    -0xc(%ebp),%esp
  105d28:	5b                   	pop    %ebx
  105d29:	5e                   	pop    %esi
  105d2a:	5f                   	pop    %edi
  105d2b:	c9                   	leave  
  105d2c:	c3                   	ret    
  105d2d:	83 ec 0c             	sub    $0xc,%esp
  105d30:	ff 75 0c             	pushl  0xc(%ebp)
  105d33:	e8 a4 09 00 00       	call   1066dc <__swsetup>
  105d38:	83 c4 10             	add    $0x10,%esp
  105d3b:	85 c0                	test   %eax,%eax
  105d3d:	0f 85 20 03 00 00    	jne    106063 <__sfvwrite_r+0x3cf>
  105d43:	8b 4d 0c             	mov    0xc(%ebp),%ecx
  105d46:	0f bf 41 0c          	movswl 0xc(%ecx),%eax
  105d4a:	8b 55 10             	mov    0x10(%ebp),%edx
  105d4d:	8b 12                	mov    (%edx),%edx
  105d4f:	89 55 dc             	mov    %edx,-0x24(%ebp)
  105d52:	a8 02                	test   $0x2,%al
  105d54:	0f 85 6f ff ff ff    	jne    105cc9 <__sfvwrite_r+0x35>
  105d5a:	a8 01                	test   $0x1,%al
  105d5c:	0f 85 12 01 00 00    	jne    105e74 <__sfvwrite_r+0x1e0>
  105d62:	31 ff                	xor    %edi,%edi
  105d64:	c7 45 ec 00 00 00 00 	movl   $0x0,-0x14(%ebp)
  105d6b:	90                   	nop    
  105d6c:	85 ff                	test   %edi,%edi
  105d6e:	0f 84 bb 00 00 00    	je     105e2f <__sfvwrite_r+0x19b>
  105d74:	8b 4d 0c             	mov    0xc(%ebp),%ecx
  105d77:	8b 59 08             	mov    0x8(%ecx),%ebx
  105d7a:	f6 c4 02             	test   $0x2,%ah
  105d7d:	0f 84 a9 01 00 00    	je     105f2c <__sfvwrite_r+0x298>
  105d83:	89 da                	mov    %ebx,%edx
  105d85:	39 df                	cmp    %ebx,%edi
  105d87:	72 57                	jb     105de0 <__sfvwrite_r+0x14c>
  105d89:	84 c0                	test   %al,%al
  105d8b:	79 57                	jns    105de4 <__sfvwrite_r+0x150>
  105d8d:	8b 75 0c             	mov    0xc(%ebp),%esi
  105d90:	8b 4e 10             	mov    0x10(%esi),%ecx
  105d93:	89 f0                	mov    %esi,%eax
  105d95:	8b 36                	mov    (%esi),%esi
  105d97:	29 ce                	sub    %ecx,%esi
  105d99:	8b 40 14             	mov    0x14(%eax),%eax
  105d9c:	8d 04 40             	lea    (%eax,%eax,2),%eax
  105d9f:	89 c2                	mov    %eax,%edx
  105da1:	c1 ea 1f             	shr    $0x1f,%edx
  105da4:	8d 1c 02             	lea    (%edx,%eax,1),%ebx
  105da7:	d1 fb                	sar    %ebx
  105da9:	89 da                	mov    %ebx,%edx
  105dab:	8d 44 37 01          	lea    0x1(%edi,%esi,1),%eax
  105daf:	39 c3                	cmp    %eax,%ebx
  105db1:	73 04                	jae    105db7 <__sfvwrite_r+0x123>
  105db3:	89 c3                	mov    %eax,%ebx
  105db5:	89 c2                	mov    %eax,%edx
  105db7:	50                   	push   %eax
  105db8:	52                   	push   %edx
  105db9:	51                   	push   %ecx
  105dba:	ff 35 e0 91 10 00    	pushl  0x1091e0
  105dc0:	e8 7b 03 00 00       	call   106140 <_realloc_r>
  105dc5:	83 c4 10             	add    $0x10,%esp
  105dc8:	85 c0                	test   %eax,%eax
  105dca:	74 7c                	je     105e48 <__sfvwrite_r+0x1b4>
  105dcc:	8b 55 0c             	mov    0xc(%ebp),%edx
  105dcf:	89 42 10             	mov    %eax,0x10(%edx)
  105dd2:	01 f0                	add    %esi,%eax
  105dd4:	89 02                	mov    %eax,(%edx)
  105dd6:	89 5a 14             	mov    %ebx,0x14(%edx)
  105dd9:	29 f3                	sub    %esi,%ebx
  105ddb:	89 5a 08             	mov    %ebx,0x8(%edx)
  105dde:	66 90                	xchg   %ax,%ax
  105de0:	89 fa                	mov    %edi,%edx
  105de2:	89 fb                	mov    %edi,%ebx
  105de4:	56                   	push   %esi
  105de5:	52                   	push   %edx
  105de6:	ff 75 ec             	pushl  -0x14(%ebp)
  105de9:	8b 4d 0c             	mov    0xc(%ebp),%ecx
  105dec:	ff 31                	pushl  (%ecx)
  105dee:	e8 bd 02 00 00       	call   1060b0 <memmove>
  105df3:	8b 75 0c             	mov    0xc(%ebp),%esi
  105df6:	29 5e 08             	sub    %ebx,0x8(%esi)
  105df9:	01 1e                	add    %ebx,(%esi)
  105dfb:	89 fe                	mov    %edi,%esi
  105dfd:	89 7d e8             	mov    %edi,-0x18(%ebp)
  105e00:	89 fb                	mov    %edi,%ebx
  105e02:	83 c4 10             	add    $0x10,%esp
  105e05:	8b 55 10             	mov    0x10(%ebp),%edx
  105e08:	8b 42 08             	mov    0x8(%edx),%eax
  105e0b:	29 d8                	sub    %ebx,%eax
  105e0d:	89 42 08             	mov    %eax,0x8(%edx)
  105e10:	85 c0                	test   %eax,%eax
  105e12:	0f 84 0b ff ff ff    	je     105d23 <__sfvwrite_r+0x8f>
  105e18:	8b 4d e8             	mov    -0x18(%ebp),%ecx
  105e1b:	01 4d ec             	add    %ecx,-0x14(%ebp)
  105e1e:	29 f7                	sub    %esi,%edi
  105e20:	8b 75 0c             	mov    0xc(%ebp),%esi
  105e23:	0f bf 46 0c          	movswl 0xc(%esi),%eax
  105e27:	85 ff                	test   %edi,%edi
  105e29:	0f 85 45 ff ff ff    	jne    105d74 <__sfvwrite_r+0xe0>
  105e2f:	8b 75 dc             	mov    -0x24(%ebp),%esi
  105e32:	8b 36                	mov    (%esi),%esi
  105e34:	89 75 ec             	mov    %esi,-0x14(%ebp)
  105e37:	8b 55 dc             	mov    -0x24(%ebp),%edx
  105e3a:	8b 7a 04             	mov    0x4(%edx),%edi
  105e3d:	83 c2 08             	add    $0x8,%edx
  105e40:	89 55 dc             	mov    %edx,-0x24(%ebp)
  105e43:	e9 24 ff ff ff       	jmp    105d6c <__sfvwrite_r+0xd8>
  105e48:	83 ec 08             	sub    $0x8,%esp
  105e4b:	8b 4d 0c             	mov    0xc(%ebp),%ecx
  105e4e:	ff 71 10             	pushl  0x10(%ecx)
  105e51:	ff 35 e0 91 10 00    	pushl  0x1091e0
  105e57:	e8 48 0e 00 00       	call   106ca4 <_free_r>
  105e5c:	83 c4 10             	add    $0x10,%esp
  105e5f:	8b 4d 0c             	mov    0xc(%ebp),%ecx
  105e62:	66 83 49 0c 40       	orw    $0x40,0xc(%ecx)
  105e67:	b8 ff ff ff ff       	mov    $0xffffffff,%eax
  105e6c:	8d 65 f4             	lea    -0xc(%ebp),%esp
  105e6f:	5b                   	pop    %ebx
  105e70:	5e                   	pop    %esi
  105e71:	5f                   	pop    %edi
  105e72:	c9                   	leave  
  105e73:	c3                   	ret    
  105e74:	31 ff                	xor    %edi,%edi
  105e76:	c7 45 f0 00 00 00 00 	movl   $0x0,-0x10(%ebp)
  105e7d:	c7 45 e0 00 00 00 00 	movl   $0x0,-0x20(%ebp)
  105e84:	c7 45 e4 00 00 00 00 	movl   $0x0,-0x1c(%ebp)
  105e8b:	90                   	nop    
  105e8c:	85 ff                	test   %edi,%edi
  105e8e:	74 7b                	je     105f0b <__sfvwrite_r+0x277>
  105e90:	8b 45 e0             	mov    -0x20(%ebp),%eax
  105e93:	85 c0                	test   %eax,%eax
  105e95:	0f 84 19 01 00 00    	je     105fb4 <__sfvwrite_r+0x320>
  105e9b:	8b 5d e4             	mov    -0x1c(%ebp),%ebx
  105e9e:	39 fb                	cmp    %edi,%ebx
  105ea0:	76 02                	jbe    105ea4 <__sfvwrite_r+0x210>
  105ea2:	89 fb                	mov    %edi,%ebx
  105ea4:	8b 55 0c             	mov    0xc(%ebp),%edx
  105ea7:	8b 42 08             	mov    0x8(%edx),%eax
  105eaa:	89 d1                	mov    %edx,%ecx
  105eac:	8b 52 14             	mov    0x14(%edx),%edx
  105eaf:	89 ce                	mov    %ecx,%esi
  105eb1:	8b 09                	mov    (%ecx),%ecx
  105eb3:	3b 4e 10             	cmp    0x10(%esi),%ecx
  105eb6:	76 0b                	jbe    105ec3 <__sfvwrite_r+0x22f>
  105eb8:	8d 34 02             	lea    (%edx,%eax,1),%esi
  105ebb:	39 f3                	cmp    %esi,%ebx
  105ebd:	0f 8f 3f 01 00 00    	jg     106002 <__sfvwrite_r+0x36e>
  105ec3:	39 d3                	cmp    %edx,%ebx
  105ec5:	0f 8c a5 00 00 00    	jl     105f70 <__sfvwrite_r+0x2dc>
  105ecb:	51                   	push   %ecx
  105ecc:	52                   	push   %edx
  105ecd:	ff 75 f0             	pushl  -0x10(%ebp)
  105ed0:	8b 55 0c             	mov    0xc(%ebp),%edx
  105ed3:	ff 72 1c             	pushl  0x1c(%edx)
  105ed6:	ff 52 24             	call   *0x24(%edx)
  105ed9:	89 c6                	mov    %eax,%esi
  105edb:	83 c4 10             	add    $0x10,%esp
  105ede:	85 c0                	test   %eax,%eax
  105ee0:	0f 8e 79 ff ff ff    	jle    105e5f <__sfvwrite_r+0x1cb>
  105ee6:	29 75 e4             	sub    %esi,-0x1c(%ebp)
  105ee9:	0f 84 a2 00 00 00    	je     105f91 <__sfvwrite_r+0x2fd>
  105eef:	8b 55 10             	mov    0x10(%ebp),%edx
  105ef2:	8b 42 08             	mov    0x8(%edx),%eax
  105ef5:	29 f0                	sub    %esi,%eax
  105ef7:	89 42 08             	mov    %eax,0x8(%edx)
  105efa:	85 c0                	test   %eax,%eax
  105efc:	0f 84 21 fe ff ff    	je     105d23 <__sfvwrite_r+0x8f>
  105f02:	01 75 f0             	add    %esi,-0x10(%ebp)
  105f05:	29 f7                	sub    %esi,%edi
  105f07:	85 ff                	test   %edi,%edi
  105f09:	75 85                	jne    105e90 <__sfvwrite_r+0x1fc>
  105f0b:	8b 45 dc             	mov    -0x24(%ebp),%eax
  105f0e:	8b 00                	mov    (%eax),%eax
  105f10:	89 45 f0             	mov    %eax,-0x10(%ebp)
  105f13:	8b 55 dc             	mov    -0x24(%ebp),%edx
  105f16:	8b 7a 04             	mov    0x4(%edx),%edi
  105f19:	83 c2 08             	add    $0x8,%edx
  105f1c:	89 55 dc             	mov    %edx,-0x24(%ebp)
  105f1f:	c7 45 e0 00 00 00 00 	movl   $0x0,-0x20(%ebp)
  105f26:	e9 61 ff ff ff       	jmp    105e8c <__sfvwrite_r+0x1f8>
  105f2b:	90                   	nop    
  105f2c:	8b 45 0c             	mov    0xc(%ebp),%eax
  105f2f:	8b 10                	mov    (%eax),%edx
  105f31:	3b 50 10             	cmp    0x10(%eax),%edx
  105f34:	76 0a                	jbe    105f40 <__sfvwrite_r+0x2ac>
  105f36:	89 de                	mov    %ebx,%esi
  105f38:	39 df                	cmp    %ebx,%edi
  105f3a:	0f 87 ec 00 00 00    	ja     10602c <__sfvwrite_r+0x398>
  105f40:	8b 4d 0c             	mov    0xc(%ebp),%ecx
  105f43:	8b 41 14             	mov    0x14(%ecx),%eax
  105f46:	39 c7                	cmp    %eax,%edi
  105f48:	0f 82 92 00 00 00    	jb     105fe0 <__sfvwrite_r+0x34c>
  105f4e:	52                   	push   %edx
  105f4f:	50                   	push   %eax
  105f50:	ff 75 ec             	pushl  -0x14(%ebp)
  105f53:	ff 71 1c             	pushl  0x1c(%ecx)
  105f56:	ff 51 24             	call   *0x24(%ecx)
  105f59:	89 c3                	mov    %eax,%ebx
  105f5b:	83 c4 10             	add    $0x10,%esp
  105f5e:	85 c0                	test   %eax,%eax
  105f60:	0f 8e f9 fe ff ff    	jle    105e5f <__sfvwrite_r+0x1cb>
  105f66:	89 c6                	mov    %eax,%esi
  105f68:	89 45 e8             	mov    %eax,-0x18(%ebp)
  105f6b:	e9 95 fe ff ff       	jmp    105e05 <__sfvwrite_r+0x171>
  105f70:	50                   	push   %eax
  105f71:	53                   	push   %ebx
  105f72:	ff 75 f0             	pushl  -0x10(%ebp)
  105f75:	51                   	push   %ecx
  105f76:	e8 35 01 00 00       	call   1060b0 <memmove>
  105f7b:	8b 4d 0c             	mov    0xc(%ebp),%ecx
  105f7e:	29 59 08             	sub    %ebx,0x8(%ecx)
  105f81:	01 19                	add    %ebx,(%ecx)
  105f83:	89 de                	mov    %ebx,%esi
  105f85:	83 c4 10             	add    $0x10,%esp
  105f88:	29 75 e4             	sub    %esi,-0x1c(%ebp)
  105f8b:	0f 85 5e ff ff ff    	jne    105eef <__sfvwrite_r+0x25b>
  105f91:	83 ec 0c             	sub    $0xc,%esp
  105f94:	ff 75 0c             	pushl  0xc(%ebp)
  105f97:	e8 30 08 00 00       	call   1067cc <fflush>
  105f9c:	83 c4 10             	add    $0x10,%esp
  105f9f:	85 c0                	test   %eax,%eax
  105fa1:	0f 85 b8 fe ff ff    	jne    105e5f <__sfvwrite_r+0x1cb>
  105fa7:	c7 45 e0 00 00 00 00 	movl   $0x0,-0x20(%ebp)
  105fae:	e9 3c ff ff ff       	jmp    105eef <__sfvwrite_r+0x25b>
  105fb3:	90                   	nop    
  105fb4:	56                   	push   %esi
  105fb5:	57                   	push   %edi
  105fb6:	6a 0a                	push   $0xa
  105fb8:	ff 75 f0             	pushl  -0x10(%ebp)
  105fbb:	e8 c0 00 00 00       	call   106080 <memchr>
  105fc0:	83 c4 10             	add    $0x10,%esp
  105fc3:	85 c0                	test   %eax,%eax
  105fc5:	0f 84 8d 00 00 00    	je     106058 <__sfvwrite_r+0x3c4>
  105fcb:	40                   	inc    %eax
  105fcc:	8b 4d f0             	mov    -0x10(%ebp),%ecx
  105fcf:	29 c8                	sub    %ecx,%eax
  105fd1:	89 45 e4             	mov    %eax,-0x1c(%ebp)
  105fd4:	c7 45 e0 01 00 00 00 	movl   $0x1,-0x20(%ebp)
  105fdb:	e9 bb fe ff ff       	jmp    105e9b <__sfvwrite_r+0x207>
  105fe0:	89 fb                	mov    %edi,%ebx
  105fe2:	50                   	push   %eax
  105fe3:	57                   	push   %edi
  105fe4:	ff 75 ec             	pushl  -0x14(%ebp)
  105fe7:	52                   	push   %edx
  105fe8:	e8 c3 00 00 00       	call   1060b0 <memmove>
  105fed:	8b 75 0c             	mov    0xc(%ebp),%esi
  105ff0:	29 7e 08             	sub    %edi,0x8(%esi)
  105ff3:	01 3e                	add    %edi,(%esi)
  105ff5:	89 7d e8             	mov    %edi,-0x18(%ebp)
  105ff8:	89 fe                	mov    %edi,%esi
  105ffa:	83 c4 10             	add    $0x10,%esp
  105ffd:	e9 03 fe ff ff       	jmp    105e05 <__sfvwrite_r+0x171>
  106002:	53                   	push   %ebx
  106003:	56                   	push   %esi
  106004:	ff 75 f0             	pushl  -0x10(%ebp)
  106007:	51                   	push   %ecx
  106008:	e8 a3 00 00 00       	call   1060b0 <memmove>
  10600d:	8b 45 0c             	mov    0xc(%ebp),%eax
  106010:	01 30                	add    %esi,(%eax)
  106012:	89 04 24             	mov    %eax,(%esp)
  106015:	e8 b2 07 00 00       	call   1067cc <fflush>
  10601a:	83 c4 10             	add    $0x10,%esp
  10601d:	85 c0                	test   %eax,%eax
  10601f:	0f 84 c1 fe ff ff    	je     105ee6 <__sfvwrite_r+0x252>
  106025:	e9 35 fe ff ff       	jmp    105e5f <__sfvwrite_r+0x1cb>
  10602a:	66 90                	xchg   %ax,%ax
  10602c:	51                   	push   %ecx
  10602d:	53                   	push   %ebx
  10602e:	ff 75 ec             	pushl  -0x14(%ebp)
  106031:	52                   	push   %edx
  106032:	e8 79 00 00 00       	call   1060b0 <memmove>
  106037:	89 5d e8             	mov    %ebx,-0x18(%ebp)
  10603a:	8b 55 0c             	mov    0xc(%ebp),%edx
  10603d:	01 1a                	add    %ebx,(%edx)
  10603f:	89 14 24             	mov    %edx,(%esp)
  106042:	e8 85 07 00 00       	call   1067cc <fflush>
  106047:	83 c4 10             	add    $0x10,%esp
  10604a:	85 c0                	test   %eax,%eax
  10604c:	0f 84 b3 fd ff ff    	je     105e05 <__sfvwrite_r+0x171>
  106052:	e9 08 fe ff ff       	jmp    105e5f <__sfvwrite_r+0x1cb>
  106057:	90                   	nop    
  106058:	8d 77 01             	lea    0x1(%edi),%esi
  10605b:	89 75 e4             	mov    %esi,-0x1c(%ebp)
  10605e:	e9 71 ff ff ff       	jmp    105fd4 <__sfvwrite_r+0x340>
  106063:	8b 75 0c             	mov    0xc(%ebp),%esi
  106066:	66 83 4e 0c 40       	orw    $0x40,0xc(%esi)
  10606b:	8b 45 08             	mov    0x8(%ebp),%eax
  10606e:	c7 00 09 00 00 00    	movl   $0x9,(%eax)
  106074:	b8 ff ff ff ff       	mov    $0xffffffff,%eax
  106079:	e9 a7 fc ff ff       	jmp    105d25 <__sfvwrite_r+0x91>
	...

00106080 <memchr>:
  106080:	55                   	push   %ebp
  106081:	89 e5                	mov    %esp,%ebp
  106083:	57                   	push   %edi
  106084:	8b 45 0c             	mov    0xc(%ebp),%eax
  106087:	8b 4d 10             	mov    0x10(%ebp),%ecx
  10608a:	8b 7d 08             	mov    0x8(%ebp),%edi
  10608d:	31 d2                	xor    %edx,%edx
  10608f:	85 c9                	test   %ecx,%ecx
  106091:	74 0a                	je     10609d <L1>
  106093:	fc                   	cld    
  106094:	f2 ae                	repnz scas %es:(%edi),%al
  106096:	0f 95 c2             	setne  %dl
  106099:	4f                   	dec    %edi
  10609a:	4a                   	dec    %edx
  10609b:	21 fa                	and    %edi,%edx

0010609d <L1>:
  10609d:	89 d0                	mov    %edx,%eax
  10609f:	8d 65 fc             	lea    -0x4(%ebp),%esp
  1060a2:	5f                   	pop    %edi
  1060a3:	c9                   	leave  
  1060a4:	c3                   	ret    
	...

001060b0 <memmove>:
  1060b0:	55                   	push   %ebp
  1060b1:	89 e5                	mov    %esp,%ebp
  1060b3:	56                   	push   %esi
  1060b4:	57                   	push   %edi
  1060b5:	53                   	push   %ebx
  1060b6:	8b 7d 08             	mov    0x8(%ebp),%edi
  1060b9:	8b 4d 10             	mov    0x10(%ebp),%ecx
  1060bc:	8b 75 0c             	mov    0xc(%ebp),%esi
  1060bf:	fc                   	cld    
  1060c0:	39 fe                	cmp    %edi,%esi
  1060c2:	73 43                	jae    106107 <memmove+0x57>
  1060c4:	8d 5c 31 ff          	lea    -0x1(%ecx,%esi,1),%ebx
  1060c8:	39 df                	cmp    %ebx,%edi
  1060ca:	77 3b                	ja     106107 <memmove+0x57>
  1060cc:	01 ce                	add    %ecx,%esi
  1060ce:	01 cf                	add    %ecx,%edi
  1060d0:	fd                   	std    
  1060d1:	83 f9 08             	cmp    $0x8,%ecx
  1060d4:	76 2b                	jbe    106101 <memmove+0x51>
  1060d6:	89 fa                	mov    %edi,%edx
  1060d8:	89 cb                	mov    %ecx,%ebx
  1060da:	83 e2 03             	and    $0x3,%edx
  1060dd:	74 0c                	je     1060eb <memmove+0x3b>
  1060df:	89 d1                	mov    %edx,%ecx
  1060e1:	4e                   	dec    %esi
  1060e2:	4f                   	dec    %edi
  1060e3:	29 cb                	sub    %ecx,%ebx
  1060e5:	f3 a4                	rep movsb %ds:(%esi),%es:(%edi)
  1060e7:	89 d9                	mov    %ebx,%ecx
  1060e9:	46                   	inc    %esi
  1060ea:	47                   	inc    %edi
  1060eb:	c1 e9 02             	shr    $0x2,%ecx
  1060ee:	83 ee 04             	sub    $0x4,%esi
  1060f1:	83 ef 04             	sub    $0x4,%edi
  1060f4:	f3 a5                	rep movsl %ds:(%esi),%es:(%edi)
  1060f6:	83 c6 04             	add    $0x4,%esi
  1060f9:	83 c7 04             	add    $0x4,%edi
  1060fc:	89 d9                	mov    %ebx,%ecx
  1060fe:	83 e1 03             	and    $0x3,%ecx
  106101:	4e                   	dec    %esi
  106102:	4f                   	dec    %edi
  106103:	f3 a4                	rep movsb %ds:(%esi),%es:(%edi)
  106105:	eb 2a                	jmp    106131 <memmove+0x81>
  106107:	83 f9 08             	cmp    $0x8,%ecx
  10610a:	76 23                	jbe    10612f <memmove+0x7f>
  10610c:	89 fa                	mov    %edi,%edx
  10610e:	89 cb                	mov    %ecx,%ebx
  106110:	83 e2 03             	and    $0x3,%edx
  106113:	74 10                	je     106125 <memmove+0x75>
  106115:	b9 04 00 00 00       	mov    $0x4,%ecx
  10611a:	29 d1                	sub    %edx,%ecx
  10611c:	83 e1 03             	and    $0x3,%ecx
  10611f:	29 cb                	sub    %ecx,%ebx
  106121:	f3 a4                	rep movsb %ds:(%esi),%es:(%edi)
  106123:	89 d9                	mov    %ebx,%ecx
  106125:	c1 e9 02             	shr    $0x2,%ecx
  106128:	f3 a5                	rep movsl %ds:(%esi),%es:(%edi)
  10612a:	89 d9                	mov    %ebx,%ecx
  10612c:	83 e1 03             	and    $0x3,%ecx
  10612f:	f3 a4                	rep movsb %ds:(%esi),%es:(%edi)
  106131:	8b 45 08             	mov    0x8(%ebp),%eax
  106134:	fc                   	cld    
  106135:	8d 65 f4             	lea    -0xc(%ebp),%esp
  106138:	5b                   	pop    %ebx
  106139:	5f                   	pop    %edi
  10613a:	5e                   	pop    %esi
  10613b:	c9                   	leave  
  10613c:	c3                   	ret    
  10613d:	00 00                	add    %al,(%eax)
	...

00106140 <_realloc_r>:
  106140:	55                   	push   %ebp
  106141:	89 e5                	mov    %esp,%ebp
  106143:	57                   	push   %edi
  106144:	56                   	push   %esi
  106145:	53                   	push   %ebx
  106146:	83 ec 3c             	sub    $0x3c,%esp
  106149:	8b 45 08             	mov    0x8(%ebp),%eax
  10614c:	89 45 c4             	mov    %eax,-0x3c(%ebp)
  10614f:	8b 7d 0c             	mov    0xc(%ebp),%edi
  106152:	8b 5d 10             	mov    0x10(%ebp),%ebx
  106155:	85 ff                	test   %edi,%edi
  106157:	0f 84 03 03 00 00    	je     106460 <_realloc_r+0x320>
  10615d:	83 ec 0c             	sub    $0xc,%esp
  106160:	ff 75 c4             	pushl  -0x3c(%ebp)
  106163:	e8 8c 17 00 00       	call   1078f4 <__malloc_lock>
  106168:	8d 77 f8             	lea    -0x8(%edi),%esi
  10616b:	8b 56 04             	mov    0x4(%esi),%edx
  10616e:	89 55 c8             	mov    %edx,-0x38(%ebp)
  106171:	8d 43 0b             	lea    0xb(%ebx),%eax
  106174:	83 c4 10             	add    $0x10,%esp
  106177:	83 f8 16             	cmp    $0x16,%eax
  10617a:	77 6c                	ja     1061e8 <_realloc_r+0xa8>
  10617c:	c7 45 e0 10 00 00 00 	movl   $0x10,-0x20(%ebp)
  106183:	c7 45 cc 10 00 00 00 	movl   $0x10,-0x34(%ebp)
  10618a:	3b 5d e0             	cmp    -0x20(%ebp),%ebx
  10618d:	77 69                	ja     1061f8 <_realloc_r+0xb8>
  10618f:	8b 45 c8             	mov    -0x38(%ebp),%eax
  106192:	83 e0 fc             	and    $0xfffffffc,%eax
  106195:	89 45 e4             	mov    %eax,-0x1c(%ebp)
  106198:	8b 55 cc             	mov    -0x34(%ebp),%edx
  10619b:	39 d0                	cmp    %edx,%eax
  10619d:	7c 71                	jl     106210 <_realloc_r+0xd0>
  10619f:	89 f3                	mov    %esi,%ebx
  1061a1:	8b 55 e4             	mov    -0x1c(%ebp),%edx
  1061a4:	89 55 e8             	mov    %edx,-0x18(%ebp)
  1061a7:	8b 4d e8             	mov    -0x18(%ebp),%ecx
  1061aa:	2b 4d e0             	sub    -0x20(%ebp),%ecx
  1061ad:	83 f9 0f             	cmp    $0xf,%ecx
  1061b0:	0f 87 b9 02 00 00    	ja     10646f <_realloc_r+0x32f>
  1061b6:	8b 43 04             	mov    0x4(%ebx),%eax
  1061b9:	83 e0 01             	and    $0x1,%eax
  1061bc:	0b 45 e8             	or     -0x18(%ebp),%eax
  1061bf:	89 43 04             	mov    %eax,0x4(%ebx)
  1061c2:	8b 4d e8             	mov    -0x18(%ebp),%ecx
  1061c5:	83 4c 19 04 01       	orl    $0x1,0x4(%ecx,%ebx,1)
  1061ca:	83 ec 0c             	sub    $0xc,%esp
  1061cd:	ff 75 c4             	pushl  -0x3c(%ebp)
  1061d0:	e8 27 17 00 00       	call   1078fc <__malloc_unlock>
  1061d5:	83 c3 08             	add    $0x8,%ebx
  1061d8:	83 c4 10             	add    $0x10,%esp
  1061db:	89 d8                	mov    %ebx,%eax
  1061dd:	8d 65 f4             	lea    -0xc(%ebp),%esp
  1061e0:	5b                   	pop    %ebx
  1061e1:	5e                   	pop    %esi
  1061e2:	5f                   	pop    %edi
  1061e3:	c9                   	leave  
  1061e4:	c3                   	ret    
  1061e5:	8d 76 00             	lea    0x0(%esi),%esi
  1061e8:	83 e0 f8             	and    $0xfffffff8,%eax
  1061eb:	89 45 e0             	mov    %eax,-0x20(%ebp)
  1061ee:	89 45 cc             	mov    %eax,-0x34(%ebp)
  1061f1:	85 c0                	test   %eax,%eax
  1061f3:	79 95                	jns    10618a <_realloc_r+0x4a>
  1061f5:	8d 76 00             	lea    0x0(%esi),%esi
  1061f8:	8b 4d c4             	mov    -0x3c(%ebp),%ecx
  1061fb:	c7 01 0c 00 00 00    	movl   $0xc,(%ecx)
  106201:	31 db                	xor    %ebx,%ebx
  106203:	89 d8                	mov    %ebx,%eax
  106205:	8d 65 f4             	lea    -0xc(%ebp),%esp
  106208:	5b                   	pop    %ebx
  106209:	5e                   	pop    %esi
  10620a:	5f                   	pop    %edi
  10620b:	c9                   	leave  
  10620c:	c3                   	ret    
  10620d:	8d 76 00             	lea    0x0(%esi),%esi
  106210:	01 f0                	add    %esi,%eax
  106212:	89 45 d0             	mov    %eax,-0x30(%ebp)
  106215:	89 c1                	mov    %eax,%ecx
  106217:	a1 08 96 10 00       	mov    0x109608,%eax
  10621c:	89 45 f0             	mov    %eax,-0x10(%ebp)
  10621f:	39 c8                	cmp    %ecx,%eax
  106221:	0f 84 b6 02 00 00    	je     1064dd <_realloc_r+0x39d>
  106227:	8b 51 04             	mov    0x4(%ecx),%edx
  10622a:	89 d0                	mov    %edx,%eax
  10622c:	83 e0 fe             	and    $0xfffffffe,%eax
  10622f:	f6 44 01 04 01       	testb  $0x1,0x4(%ecx,%eax,1)
  106234:	0f 85 6e 02 00 00    	jne    1064a8 <_realloc_r+0x368>
  10623a:	83 e2 fc             	and    $0xfffffffc,%edx
  10623d:	89 55 bc             	mov    %edx,-0x44(%ebp)
  106240:	8b 45 e4             	mov    -0x1c(%ebp),%eax
  106243:	01 d0                	add    %edx,%eax
  106245:	89 45 e8             	mov    %eax,-0x18(%ebp)
  106248:	8b 55 cc             	mov    -0x34(%ebp),%edx
  10624b:	39 d0                	cmp    %edx,%eax
  10624d:	0f 8d 63 02 00 00    	jge    1064b6 <_realloc_r+0x376>
  106253:	90                   	nop    
  106254:	f6 45 c8 01          	testb  $0x1,-0x38(%ebp)
  106258:	0f 85 5e 01 00 00    	jne    1063bc <_realloc_r+0x27c>
  10625e:	89 f0                	mov    %esi,%eax
  106260:	2b 06                	sub    (%esi),%eax
  106262:	89 45 d8             	mov    %eax,-0x28(%ebp)
  106265:	8b 50 04             	mov    0x4(%eax),%edx
  106268:	83 e2 fc             	and    $0xfffffffc,%edx
  10626b:	89 55 c0             	mov    %edx,-0x40(%ebp)
  10626e:	85 c9                	test   %ecx,%ecx
  106270:	0f 84 ae 00 00 00    	je     106324 <_realloc_r+0x1e4>
  106276:	3b 4d f0             	cmp    -0x10(%ebp),%ecx
  106279:	0f 84 b7 02 00 00    	je     106536 <_realloc_r+0x3f6>
  10627f:	8b 55 c0             	mov    -0x40(%ebp),%edx
  106282:	03 55 e4             	add    -0x1c(%ebp),%edx
  106285:	89 55 ec             	mov    %edx,-0x14(%ebp)
  106288:	8b 45 bc             	mov    -0x44(%ebp),%eax
  10628b:	01 d0                	add    %edx,%eax
  10628d:	89 45 e8             	mov    %eax,-0x18(%ebp)
  106290:	8b 55 cc             	mov    -0x34(%ebp),%edx
  106293:	39 d0                	cmp    %edx,%eax
  106295:	0f 8c 92 00 00 00    	jl     10632d <_realloc_r+0x1ed>
  10629b:	8b 51 0c             	mov    0xc(%ecx),%edx
  10629e:	8b 41 08             	mov    0x8(%ecx),%eax
  1062a1:	89 50 0c             	mov    %edx,0xc(%eax)
  1062a4:	89 42 08             	mov    %eax,0x8(%edx)
  1062a7:	8b 4d d8             	mov    -0x28(%ebp),%ecx
  1062aa:	8b 51 0c             	mov    0xc(%ecx),%edx
  1062ad:	8b 41 08             	mov    0x8(%ecx),%eax
  1062b0:	89 50 0c             	mov    %edx,0xc(%eax)
  1062b3:	89 42 08             	mov    %eax,0x8(%edx)
  1062b6:	89 c8                	mov    %ecx,%eax
  1062b8:	83 c0 08             	add    $0x8,%eax
  1062bb:	8b 5d e4             	mov    -0x1c(%ebp),%ebx
  1062be:	83 eb 04             	sub    $0x4,%ebx
  1062c1:	83 fb 24             	cmp    $0x24,%ebx
  1062c4:	0f 87 55 03 00 00    	ja     10661f <_realloc_r+0x4df>
  1062ca:	89 fa                	mov    %edi,%edx
  1062cc:	89 c1                	mov    %eax,%ecx
  1062ce:	83 fb 13             	cmp    $0x13,%ebx
  1062d1:	76 39                	jbe    10630c <_realloc_r+0x1cc>
  1062d3:	8b 07                	mov    (%edi),%eax
  1062d5:	8b 55 d8             	mov    -0x28(%ebp),%edx
  1062d8:	89 42 08             	mov    %eax,0x8(%edx)
  1062db:	8b 47 04             	mov    0x4(%edi),%eax
  1062de:	89 42 0c             	mov    %eax,0xc(%edx)
  1062e1:	89 d1                	mov    %edx,%ecx
  1062e3:	83 c1 10             	add    $0x10,%ecx
  1062e6:	8d 57 08             	lea    0x8(%edi),%edx
  1062e9:	83 fb 1b             	cmp    $0x1b,%ebx
  1062ec:	76 1e                	jbe    10630c <_realloc_r+0x1cc>
  1062ee:	8b 47 08             	mov    0x8(%edi),%eax
  1062f1:	8b 4d d8             	mov    -0x28(%ebp),%ecx
  1062f4:	89 41 10             	mov    %eax,0x10(%ecx)
  1062f7:	8b 47 0c             	mov    0xc(%edi),%eax
  1062fa:	89 41 14             	mov    %eax,0x14(%ecx)
  1062fd:	83 c1 18             	add    $0x18,%ecx
  106300:	8d 57 10             	lea    0x10(%edi),%edx
  106303:	83 fb 24             	cmp    $0x24,%ebx
  106306:	0f 84 69 03 00 00    	je     106675 <_realloc_r+0x535>
  10630c:	8b 02                	mov    (%edx),%eax
  10630e:	89 01                	mov    %eax,(%ecx)
  106310:	8b 42 04             	mov    0x4(%edx),%eax
  106313:	89 41 04             	mov    %eax,0x4(%ecx)
  106316:	8b 42 08             	mov    0x8(%edx),%eax
  106319:	89 41 08             	mov    %eax,0x8(%ecx)
  10631c:	8b 5d d8             	mov    -0x28(%ebp),%ebx
  10631f:	e9 83 fe ff ff       	jmp    1061a7 <_realloc_r+0x67>
  106324:	8b 4d c0             	mov    -0x40(%ebp),%ecx
  106327:	03 4d e4             	add    -0x1c(%ebp),%ecx
  10632a:	89 4d ec             	mov    %ecx,-0x14(%ebp)
  10632d:	8b 45 cc             	mov    -0x34(%ebp),%eax
  106330:	39 45 ec             	cmp    %eax,-0x14(%ebp)
  106333:	0f 8c 83 00 00 00    	jl     1063bc <_realloc_r+0x27c>
  106339:	8b 4d d8             	mov    -0x28(%ebp),%ecx
  10633c:	8b 51 0c             	mov    0xc(%ecx),%edx
  10633f:	8b 41 08             	mov    0x8(%ecx),%eax
  106342:	89 50 0c             	mov    %edx,0xc(%eax)
  106345:	89 42 08             	mov    %eax,0x8(%edx)
  106348:	89 c8                	mov    %ecx,%eax
  10634a:	83 c0 08             	add    $0x8,%eax
  10634d:	8b 5d e4             	mov    -0x1c(%ebp),%ebx
  106350:	83 eb 04             	sub    $0x4,%ebx
  106353:	83 fb 24             	cmp    $0x24,%ebx
  106356:	0f 87 d7 02 00 00    	ja     106633 <_realloc_r+0x4f3>
  10635c:	89 fa                	mov    %edi,%edx
  10635e:	89 c1                	mov    %eax,%ecx
  106360:	83 fb 13             	cmp    $0x13,%ebx
  106363:	76 39                	jbe    10639e <_realloc_r+0x25e>
  106365:	8b 07                	mov    (%edi),%eax
  106367:	8b 55 d8             	mov    -0x28(%ebp),%edx
  10636a:	89 42 08             	mov    %eax,0x8(%edx)
  10636d:	8b 47 04             	mov    0x4(%edi),%eax
  106370:	89 42 0c             	mov    %eax,0xc(%edx)
  106373:	89 d1                	mov    %edx,%ecx
  106375:	83 c1 10             	add    $0x10,%ecx
  106378:	8d 57 08             	lea    0x8(%edi),%edx
  10637b:	83 fb 1b             	cmp    $0x1b,%ebx
  10637e:	76 1e                	jbe    10639e <_realloc_r+0x25e>
  106380:	8b 47 08             	mov    0x8(%edi),%eax
  106383:	8b 4d d8             	mov    -0x28(%ebp),%ecx
  106386:	89 41 10             	mov    %eax,0x10(%ecx)
  106389:	8b 47 0c             	mov    0xc(%edi),%eax
  10638c:	89 41 14             	mov    %eax,0x14(%ecx)
  10638f:	83 c1 18             	add    $0x18,%ecx
  106392:	8d 57 10             	lea    0x10(%edi),%edx
  106395:	83 fb 24             	cmp    $0x24,%ebx
  106398:	0f 84 f3 02 00 00    	je     106691 <_realloc_r+0x551>
  10639e:	8b 02                	mov    (%edx),%eax
  1063a0:	89 01                	mov    %eax,(%ecx)
  1063a2:	8b 42 04             	mov    0x4(%edx),%eax
  1063a5:	89 41 04             	mov    %eax,0x4(%ecx)
  1063a8:	8b 42 08             	mov    0x8(%edx),%eax
  1063ab:	89 41 08             	mov    %eax,0x8(%ecx)
  1063ae:	8b 5d d8             	mov    -0x28(%ebp),%ebx
  1063b1:	8b 4d ec             	mov    -0x14(%ebp),%ecx
  1063b4:	89 4d e8             	mov    %ecx,-0x18(%ebp)
  1063b7:	e9 eb fd ff ff       	jmp    1061a7 <_realloc_r+0x67>
  1063bc:	83 ec 08             	sub    $0x8,%esp
  1063bf:	53                   	push   %ebx
  1063c0:	ff 75 c4             	pushl  -0x3c(%ebp)
  1063c3:	e8 a8 0d 00 00       	call   107170 <_malloc_r>
  1063c8:	89 c3                	mov    %eax,%ebx
  1063ca:	83 c4 10             	add    $0x10,%esp
  1063cd:	85 c0                	test   %eax,%eax
  1063cf:	0f 84 d8 02 00 00    	je     1066ad <_realloc_r+0x56d>
  1063d5:	8d 50 f8             	lea    -0x8(%eax),%edx
  1063d8:	8b 46 04             	mov    0x4(%esi),%eax
  1063db:	83 e0 fe             	and    $0xfffffffe,%eax
  1063de:	8d 04 06             	lea    (%esi,%eax,1),%eax
  1063e1:	39 c2                	cmp    %eax,%edx
  1063e3:	0f 84 23 02 00 00    	je     10660c <_realloc_r+0x4cc>
  1063e9:	8b 75 e4             	mov    -0x1c(%ebp),%esi
  1063ec:	83 ee 04             	sub    $0x4,%esi
  1063ef:	83 fe 24             	cmp    $0x24,%esi
  1063f2:	0f 87 d4 00 00 00    	ja     1064cc <_realloc_r+0x38c>
  1063f8:	89 fa                	mov    %edi,%edx
  1063fa:	89 d9                	mov    %ebx,%ecx
  1063fc:	83 fe 13             	cmp    $0x13,%esi
  1063ff:	76 30                	jbe    106431 <_realloc_r+0x2f1>
  106401:	8b 07                	mov    (%edi),%eax
  106403:	89 03                	mov    %eax,(%ebx)
  106405:	8b 47 04             	mov    0x4(%edi),%eax
  106408:	89 43 04             	mov    %eax,0x4(%ebx)
  10640b:	8d 4b 08             	lea    0x8(%ebx),%ecx
  10640e:	8d 57 08             	lea    0x8(%edi),%edx
  106411:	83 fe 1b             	cmp    $0x1b,%esi
  106414:	76 1b                	jbe    106431 <_realloc_r+0x2f1>
  106416:	8b 47 08             	mov    0x8(%edi),%eax
  106419:	89 43 08             	mov    %eax,0x8(%ebx)
  10641c:	8b 47 0c             	mov    0xc(%edi),%eax
  10641f:	89 43 0c             	mov    %eax,0xc(%ebx)
  106422:	8d 4b 10             	lea    0x10(%ebx),%ecx
  106425:	8d 57 10             	lea    0x10(%edi),%edx
  106428:	83 fe 24             	cmp    $0x24,%esi
  10642b:	0f 84 1c 02 00 00    	je     10664d <_realloc_r+0x50d>
  106431:	8b 02                	mov    (%edx),%eax
  106433:	89 01                	mov    %eax,(%ecx)
  106435:	8b 42 04             	mov    0x4(%edx),%eax
  106438:	89 41 04             	mov    %eax,0x4(%ecx)
  10643b:	8b 42 08             	mov    0x8(%edx),%eax
  10643e:	89 41 08             	mov    %eax,0x8(%ecx)
  106441:	83 ec 08             	sub    $0x8,%esp
  106444:	57                   	push   %edi
  106445:	ff 75 c4             	pushl  -0x3c(%ebp)
  106448:	e8 57 08 00 00       	call   106ca4 <_free_r>
  10644d:	58                   	pop    %eax
  10644e:	ff 75 c4             	pushl  -0x3c(%ebp)
  106451:	e8 a6 14 00 00       	call   1078fc <__malloc_unlock>
  106456:	83 c4 10             	add    $0x10,%esp
  106459:	e9 a5 fd ff ff       	jmp    106203 <_realloc_r+0xc3>
  10645e:	66 90                	xchg   %ax,%ax
  106460:	89 5d 0c             	mov    %ebx,0xc(%ebp)
  106463:	8d 65 f4             	lea    -0xc(%ebp),%esp
  106466:	5b                   	pop    %ebx
  106467:	5e                   	pop    %esi
  106468:	5f                   	pop    %edi
  106469:	c9                   	leave  
  10646a:	e9 01 0d 00 00       	jmp    107170 <_malloc_r>
  10646f:	8b 55 e0             	mov    -0x20(%ebp),%edx
  106472:	8d 04 13             	lea    (%ebx,%edx,1),%eax
  106475:	8b 53 04             	mov    0x4(%ebx),%edx
  106478:	83 e2 01             	and    $0x1,%edx
  10647b:	09 55 e0             	or     %edx,-0x20(%ebp)
  10647e:	8b 55 e0             	mov    -0x20(%ebp),%edx
  106481:	89 53 04             	mov    %edx,0x4(%ebx)
  106484:	89 ca                	mov    %ecx,%edx
  106486:	83 ca 01             	or     $0x1,%edx
  106489:	89 50 04             	mov    %edx,0x4(%eax)
  10648c:	83 4c 08 04 01       	orl    $0x1,0x4(%eax,%ecx,1)
  106491:	83 ec 08             	sub    $0x8,%esp
  106494:	83 c0 08             	add    $0x8,%eax
  106497:	50                   	push   %eax
  106498:	ff 75 c4             	pushl  -0x3c(%ebp)
  10649b:	e8 04 08 00 00       	call   106ca4 <_free_r>
  1064a0:	83 c4 10             	add    $0x10,%esp
  1064a3:	e9 22 fd ff ff       	jmp    1061ca <_realloc_r+0x8a>
  1064a8:	31 c9                	xor    %ecx,%ecx
  1064aa:	c7 45 bc 00 00 00 00 	movl   $0x0,-0x44(%ebp)
  1064b1:	e9 9e fd ff ff       	jmp    106254 <_realloc_r+0x114>
  1064b6:	8b 45 d0             	mov    -0x30(%ebp),%eax
  1064b9:	8b 50 0c             	mov    0xc(%eax),%edx
  1064bc:	8b 40 08             	mov    0x8(%eax),%eax
  1064bf:	89 50 0c             	mov    %edx,0xc(%eax)
  1064c2:	89 42 08             	mov    %eax,0x8(%edx)
  1064c5:	89 f3                	mov    %esi,%ebx
  1064c7:	e9 db fc ff ff       	jmp    1061a7 <_realloc_r+0x67>
  1064cc:	52                   	push   %edx
  1064cd:	56                   	push   %esi
  1064ce:	57                   	push   %edi
  1064cf:	53                   	push   %ebx
  1064d0:	e8 db fb ff ff       	call   1060b0 <memmove>
  1064d5:	83 c4 10             	add    $0x10,%esp
  1064d8:	e9 64 ff ff ff       	jmp    106441 <_realloc_r+0x301>
  1064dd:	8b 51 04             	mov    0x4(%ecx),%edx
  1064e0:	83 e2 fc             	and    $0xfffffffc,%edx
  1064e3:	89 55 bc             	mov    %edx,-0x44(%ebp)
  1064e6:	8b 45 e4             	mov    -0x1c(%ebp),%eax
  1064e9:	01 d0                	add    %edx,%eax
  1064eb:	89 45 d4             	mov    %eax,-0x2c(%ebp)
  1064ee:	8b 45 e0             	mov    -0x20(%ebp),%eax
  1064f1:	83 c0 10             	add    $0x10,%eax
  1064f4:	39 45 d4             	cmp    %eax,-0x2c(%ebp)
  1064f7:	0f 8c 57 fd ff ff    	jl     106254 <_realloc_r+0x114>
  1064fd:	8b 55 e0             	mov    -0x20(%ebp),%edx
  106500:	8d 04 16             	lea    (%esi,%edx,1),%eax
  106503:	a3 08 96 10 00       	mov    %eax,0x109608
  106508:	29 55 d4             	sub    %edx,-0x2c(%ebp)
  10650b:	83 4d d4 01          	orl    $0x1,-0x2c(%ebp)
  10650f:	8b 4d d4             	mov    -0x2c(%ebp),%ecx
  106512:	89 48 04             	mov    %ecx,0x4(%eax)
  106515:	8b 46 04             	mov    0x4(%esi),%eax
  106518:	83 e0 01             	and    $0x1,%eax
  10651b:	09 c2                	or     %eax,%edx
  10651d:	89 56 04             	mov    %edx,0x4(%esi)
  106520:	83 ec 0c             	sub    $0xc,%esp
  106523:	ff 75 c4             	pushl  -0x3c(%ebp)
  106526:	e8 d1 13 00 00       	call   1078fc <__malloc_unlock>
  10652b:	8d 5e 08             	lea    0x8(%esi),%ebx
  10652e:	83 c4 10             	add    $0x10,%esp
  106531:	e9 cd fc ff ff       	jmp    106203 <_realloc_r+0xc3>
  106536:	03 55 e4             	add    -0x1c(%ebp),%edx
  106539:	89 55 ec             	mov    %edx,-0x14(%ebp)
  10653c:	8b 4d bc             	mov    -0x44(%ebp),%ecx
  10653f:	01 d1                	add    %edx,%ecx
  106541:	89 4d dc             	mov    %ecx,-0x24(%ebp)
  106544:	8b 45 e0             	mov    -0x20(%ebp),%eax
  106547:	83 c0 10             	add    $0x10,%eax
  10654a:	39 c1                	cmp    %eax,%ecx
  10654c:	0f 8c db fd ff ff    	jl     10632d <_realloc_r+0x1ed>
  106552:	8b 45 d8             	mov    -0x28(%ebp),%eax
  106555:	8b 50 0c             	mov    0xc(%eax),%edx
  106558:	89 c1                	mov    %eax,%ecx
  10655a:	8b 40 08             	mov    0x8(%eax),%eax
  10655d:	89 50 0c             	mov    %edx,0xc(%eax)
  106560:	89 42 08             	mov    %eax,0x8(%edx)
  106563:	89 cb                	mov    %ecx,%ebx
  106565:	83 c3 08             	add    $0x8,%ebx
  106568:	8b 75 e4             	mov    -0x1c(%ebp),%esi
  10656b:	83 ee 04             	sub    $0x4,%esi
  10656e:	83 fe 24             	cmp    $0x24,%esi
  106571:	0f 87 ed 00 00 00    	ja     106664 <_realloc_r+0x524>
  106577:	89 fa                	mov    %edi,%edx
  106579:	89 d9                	mov    %ebx,%ecx
  10657b:	83 fe 13             	cmp    $0x13,%esi
  10657e:	76 39                	jbe    1065b9 <_realloc_r+0x479>
  106580:	8b 07                	mov    (%edi),%eax
  106582:	8b 55 d8             	mov    -0x28(%ebp),%edx
  106585:	89 42 08             	mov    %eax,0x8(%edx)
  106588:	8b 47 04             	mov    0x4(%edi),%eax
  10658b:	89 42 0c             	mov    %eax,0xc(%edx)
  10658e:	89 d1                	mov    %edx,%ecx
  106590:	83 c1 10             	add    $0x10,%ecx
  106593:	8d 57 08             	lea    0x8(%edi),%edx
  106596:	83 fe 1b             	cmp    $0x1b,%esi
  106599:	76 1e                	jbe    1065b9 <_realloc_r+0x479>
  10659b:	8b 47 08             	mov    0x8(%edi),%eax
  10659e:	8b 4d d8             	mov    -0x28(%ebp),%ecx
  1065a1:	89 41 10             	mov    %eax,0x10(%ecx)
  1065a4:	8b 47 0c             	mov    0xc(%edi),%eax
  1065a7:	89 41 14             	mov    %eax,0x14(%ecx)
  1065aa:	83 c1 18             	add    $0x18,%ecx
  1065ad:	8d 57 10             	lea    0x10(%edi),%edx
  1065b0:	83 fe 24             	cmp    $0x24,%esi
  1065b3:	0f 84 07 01 00 00    	je     1066c0 <_realloc_r+0x580>
  1065b9:	8b 02                	mov    (%edx),%eax
  1065bb:	89 01                	mov    %eax,(%ecx)
  1065bd:	8b 42 04             	mov    0x4(%edx),%eax
  1065c0:	89 41 04             	mov    %eax,0x4(%ecx)
  1065c3:	8b 42 08             	mov    0x8(%edx),%eax
  1065c6:	89 41 08             	mov    %eax,0x8(%ecx)
  1065c9:	8b 45 d8             	mov    -0x28(%ebp),%eax
  1065cc:	03 45 e0             	add    -0x20(%ebp),%eax
  1065cf:	ba 00 96 10 00       	mov    $0x109600,%edx
  1065d4:	89 42 08             	mov    %eax,0x8(%edx)
  1065d7:	8b 4d e0             	mov    -0x20(%ebp),%ecx
  1065da:	29 4d dc             	sub    %ecx,-0x24(%ebp)
  1065dd:	83 4d dc 01          	orl    $0x1,-0x24(%ebp)
  1065e1:	8b 55 dc             	mov    -0x24(%ebp),%edx
  1065e4:	89 50 04             	mov    %edx,0x4(%eax)
  1065e7:	8b 4d d8             	mov    -0x28(%ebp),%ecx
  1065ea:	8b 41 04             	mov    0x4(%ecx),%eax
  1065ed:	83 e0 01             	and    $0x1,%eax
  1065f0:	09 45 e0             	or     %eax,-0x20(%ebp)
  1065f3:	8b 45 e0             	mov    -0x20(%ebp),%eax
  1065f6:	89 41 04             	mov    %eax,0x4(%ecx)
  1065f9:	83 ec 0c             	sub    $0xc,%esp
  1065fc:	ff 75 c4             	pushl  -0x3c(%ebp)
  1065ff:	e8 f8 12 00 00       	call   1078fc <__malloc_unlock>
  106604:	83 c4 10             	add    $0x10,%esp
  106607:	e9 f7 fb ff ff       	jmp    106203 <_realloc_r+0xc3>
  10660c:	8b 42 04             	mov    0x4(%edx),%eax
  10660f:	83 e0 fc             	and    $0xfffffffc,%eax
  106612:	03 45 e4             	add    -0x1c(%ebp),%eax
  106615:	89 45 e8             	mov    %eax,-0x18(%ebp)
  106618:	89 f3                	mov    %esi,%ebx
  10661a:	e9 88 fb ff ff       	jmp    1061a7 <_realloc_r+0x67>
  10661f:	56                   	push   %esi
  106620:	53                   	push   %ebx
  106621:	57                   	push   %edi
  106622:	50                   	push   %eax
  106623:	e8 88 fa ff ff       	call   1060b0 <memmove>
  106628:	8b 5d d8             	mov    -0x28(%ebp),%ebx
  10662b:	83 c4 10             	add    $0x10,%esp
  10662e:	e9 74 fb ff ff       	jmp    1061a7 <_realloc_r+0x67>
  106633:	51                   	push   %ecx
  106634:	53                   	push   %ebx
  106635:	57                   	push   %edi
  106636:	50                   	push   %eax
  106637:	e8 74 fa ff ff       	call   1060b0 <memmove>
  10663c:	8b 5d d8             	mov    -0x28(%ebp),%ebx
  10663f:	8b 45 ec             	mov    -0x14(%ebp),%eax
  106642:	89 45 e8             	mov    %eax,-0x18(%ebp)
  106645:	83 c4 10             	add    $0x10,%esp
  106648:	e9 5a fb ff ff       	jmp    1061a7 <_realloc_r+0x67>
  10664d:	8b 47 10             	mov    0x10(%edi),%eax
  106650:	89 43 10             	mov    %eax,0x10(%ebx)
  106653:	8b 47 14             	mov    0x14(%edi),%eax
  106656:	89 43 14             	mov    %eax,0x14(%ebx)
  106659:	8d 4b 18             	lea    0x18(%ebx),%ecx
  10665c:	8d 57 18             	lea    0x18(%edi),%edx
  10665f:	e9 cd fd ff ff       	jmp    106431 <_realloc_r+0x2f1>
  106664:	50                   	push   %eax
  106665:	56                   	push   %esi
  106666:	57                   	push   %edi
  106667:	53                   	push   %ebx
  106668:	e8 43 fa ff ff       	call   1060b0 <memmove>
  10666d:	83 c4 10             	add    $0x10,%esp
  106670:	e9 54 ff ff ff       	jmp    1065c9 <_realloc_r+0x489>
  106675:	8b 47 10             	mov    0x10(%edi),%eax
  106678:	8b 55 d8             	mov    -0x28(%ebp),%edx
  10667b:	89 42 18             	mov    %eax,0x18(%edx)
  10667e:	8b 47 14             	mov    0x14(%edi),%eax
  106681:	89 42 1c             	mov    %eax,0x1c(%edx)
  106684:	89 d1                	mov    %edx,%ecx
  106686:	83 c1 20             	add    $0x20,%ecx
  106689:	8d 57 18             	lea    0x18(%edi),%edx
  10668c:	e9 7b fc ff ff       	jmp    10630c <_realloc_r+0x1cc>
  106691:	8b 47 10             	mov    0x10(%edi),%eax
  106694:	8b 55 d8             	mov    -0x28(%ebp),%edx
  106697:	89 42 18             	mov    %eax,0x18(%edx)
  10669a:	8b 47 14             	mov    0x14(%edi),%eax
  10669d:	89 42 1c             	mov    %eax,0x1c(%edx)
  1066a0:	89 d1                	mov    %edx,%ecx
  1066a2:	83 c1 20             	add    $0x20,%ecx
  1066a5:	8d 57 18             	lea    0x18(%edi),%edx
  1066a8:	e9 f1 fc ff ff       	jmp    10639e <_realloc_r+0x25e>
  1066ad:	83 ec 0c             	sub    $0xc,%esp
  1066b0:	ff 75 c4             	pushl  -0x3c(%ebp)
  1066b3:	e8 44 12 00 00       	call   1078fc <__malloc_unlock>
  1066b8:	83 c4 10             	add    $0x10,%esp
  1066bb:	e9 43 fb ff ff       	jmp    106203 <_realloc_r+0xc3>
  1066c0:	8b 47 10             	mov    0x10(%edi),%eax
  1066c3:	8b 55 d8             	mov    -0x28(%ebp),%edx
  1066c6:	89 42 18             	mov    %eax,0x18(%edx)
  1066c9:	8b 47 14             	mov    0x14(%edi),%eax
  1066cc:	89 42 1c             	mov    %eax,0x1c(%edx)
  1066cf:	89 d1                	mov    %edx,%ecx
  1066d1:	83 c1 20             	add    $0x20,%ecx
  1066d4:	8d 57 18             	lea    0x18(%edi),%edx
  1066d7:	e9 dd fe ff ff       	jmp    1065b9 <_realloc_r+0x479>

001066dc <__swsetup>:
  1066dc:	55                   	push   %ebp
  1066dd:	89 e5                	mov    %esp,%ebp
  1066df:	53                   	push   %ebx
  1066e0:	83 ec 04             	sub    $0x4,%esp
  1066e3:	8b 5d 08             	mov    0x8(%ebp),%ebx
  1066e6:	a1 e0 91 10 00       	mov    0x1091e0,%eax
  1066eb:	85 c0                	test   %eax,%eax
  1066ed:	74 07                	je     1066f6 <__swsetup+0x1a>
  1066ef:	8b 50 38             	mov    0x38(%eax),%edx
  1066f2:	85 d2                	test   %edx,%edx
  1066f4:	74 46                	je     10673c <__swsetup+0x60>
  1066f6:	0f bf 53 0c          	movswl 0xc(%ebx),%edx
  1066fa:	f6 c2 08             	test   $0x8,%dl
  1066fd:	74 6d                	je     10676c <__swsetup+0x90>
  1066ff:	8b 43 10             	mov    0x10(%ebx),%eax
  106702:	85 c0                	test   %eax,%eax
  106704:	74 46                	je     10674c <__swsetup+0x70>
  106706:	f6 c2 01             	test   $0x1,%dl
  106709:	75 11                	jne    10671c <__swsetup+0x40>
  10670b:	83 e2 02             	and    $0x2,%edx
  10670e:	74 24                	je     106734 <__swsetup+0x58>
  106710:	31 c0                	xor    %eax,%eax
  106712:	89 43 08             	mov    %eax,0x8(%ebx)
  106715:	31 c0                	xor    %eax,%eax
  106717:	8b 5d fc             	mov    -0x4(%ebp),%ebx
  10671a:	c9                   	leave  
  10671b:	c3                   	ret    
  10671c:	c7 43 08 00 00 00 00 	movl   $0x0,0x8(%ebx)
  106723:	8b 43 14             	mov    0x14(%ebx),%eax
  106726:	f7 d8                	neg    %eax
  106728:	89 43 18             	mov    %eax,0x18(%ebx)
  10672b:	31 c0                	xor    %eax,%eax
  10672d:	8b 5d fc             	mov    -0x4(%ebp),%ebx
  106730:	c9                   	leave  
  106731:	c3                   	ret    
  106732:	66 90                	xchg   %ax,%ax
  106734:	8b 43 14             	mov    0x14(%ebx),%eax
  106737:	eb d9                	jmp    106712 <__swsetup+0x36>
  106739:	8d 76 00             	lea    0x0(%esi),%esi
  10673c:	83 ec 0c             	sub    $0xc,%esp
  10673f:	50                   	push   %eax
  106740:	e8 57 02 00 00       	call   10699c <__sinit>
  106745:	83 c4 10             	add    $0x10,%esp
  106748:	eb ac                	jmp    1066f6 <__swsetup+0x1a>
  10674a:	66 90                	xchg   %ax,%ax
  10674c:	89 d0                	mov    %edx,%eax
  10674e:	25 80 02 00 00       	and    $0x280,%eax
  106753:	3d 00 02 00 00       	cmp    $0x200,%eax
  106758:	74 ac                	je     106706 <__swsetup+0x2a>
  10675a:	83 ec 0c             	sub    $0xc,%esp
  10675d:	53                   	push   %ebx
  10675e:	e8 e9 08 00 00       	call   10704c <__smakebuf>
  106763:	83 c4 10             	add    $0x10,%esp
  106766:	0f bf 53 0c          	movswl 0xc(%ebx),%edx
  10676a:	eb 9a                	jmp    106706 <__swsetup+0x2a>
  10676c:	f6 c2 10             	test   $0x10,%dl
  10676f:	74 4f                	je     1067c0 <__swsetup+0xe4>
  106771:	83 e2 04             	and    $0x4,%edx
  106774:	74 38                	je     1067ae <__swsetup+0xd2>
  106776:	8b 53 30             	mov    0x30(%ebx),%edx
  106779:	85 d2                	test   %edx,%edx
  10677b:	74 20                	je     10679d <__swsetup+0xc1>
  10677d:	8d 43 40             	lea    0x40(%ebx),%eax
  106780:	39 c2                	cmp    %eax,%edx
  106782:	74 12                	je     106796 <__swsetup+0xba>
  106784:	83 ec 08             	sub    $0x8,%esp
  106787:	52                   	push   %edx
  106788:	ff 35 e0 91 10 00    	pushl  0x1091e0
  10678e:	e8 11 05 00 00       	call   106ca4 <_free_r>
  106793:	83 c4 10             	add    $0x10,%esp
  106796:	c7 43 30 00 00 00 00 	movl   $0x0,0x30(%ebx)
  10679d:	66 83 63 0c db       	andw   $0xffffffdb,0xc(%ebx)
  1067a2:	c7 43 04 00 00 00 00 	movl   $0x0,0x4(%ebx)
  1067a9:	8b 43 10             	mov    0x10(%ebx),%eax
  1067ac:	89 03                	mov    %eax,(%ebx)
  1067ae:	8b 43 0c             	mov    0xc(%ebx),%eax
  1067b1:	83 c8 08             	or     $0x8,%eax
  1067b4:	66 89 43 0c          	mov    %ax,0xc(%ebx)
  1067b8:	0f bf d0             	movswl %ax,%edx
  1067bb:	e9 3f ff ff ff       	jmp    1066ff <__swsetup+0x23>
  1067c0:	b8 ff ff ff ff       	mov    $0xffffffff,%eax
  1067c5:	e9 4d ff ff ff       	jmp    106717 <__swsetup+0x3b>
	...

001067cc <fflush>:
  1067cc:	55                   	push   %ebp
  1067cd:	89 e5                	mov    %esp,%ebp
  1067cf:	57                   	push   %edi
  1067d0:	56                   	push   %esi
  1067d1:	53                   	push   %ebx
  1067d2:	83 ec 0c             	sub    $0xc,%esp
  1067d5:	8b 7d 08             	mov    0x8(%ebp),%edi
  1067d8:	85 ff                	test   %edi,%edi
  1067da:	0f 84 29 01 00 00    	je     106909 <fflush+0x13d>
  1067e0:	a1 e0 91 10 00       	mov    0x1091e0,%eax
  1067e5:	85 c0                	test   %eax,%eax
  1067e7:	74 0b                	je     1067f4 <fflush+0x28>
  1067e9:	8b 48 38             	mov    0x38(%eax),%ecx
  1067ec:	85 c9                	test   %ecx,%ecx
  1067ee:	0f 84 de 00 00 00    	je     1068d2 <fflush+0x106>
  1067f4:	8b 47 0c             	mov    0xc(%edi),%eax
  1067f7:	0f bf d0             	movswl %ax,%edx
  1067fa:	f6 c2 08             	test   $0x8,%dl
  1067fd:	74 59                	je     106858 <fflush+0x8c>
  1067ff:	8b 77 10             	mov    0x10(%edi),%esi
  106802:	85 f6                	test   %esi,%esi
  106804:	0f 84 be 00 00 00    	je     1068c8 <fflush+0xfc>
  10680a:	8b 1f                	mov    (%edi),%ebx
  10680c:	29 f3                	sub    %esi,%ebx
  10680e:	89 37                	mov    %esi,(%edi)
  106810:	83 e2 03             	and    $0x3,%edx
  106813:	0f 84 ca 00 00 00    	je     1068e3 <fflush+0x117>
  106819:	31 c0                	xor    %eax,%eax
  10681b:	89 47 08             	mov    %eax,0x8(%edi)
  10681e:	85 db                	test   %ebx,%ebx
  106820:	7f 12                	jg     106834 <fflush+0x68>
  106822:	e9 a1 00 00 00       	jmp    1068c8 <fflush+0xfc>
  106827:	90                   	nop    
  106828:	29 c3                	sub    %eax,%ebx
  10682a:	85 db                	test   %ebx,%ebx
  10682c:	0f 8e 96 00 00 00    	jle    1068c8 <fflush+0xfc>
  106832:	01 c6                	add    %eax,%esi
  106834:	50                   	push   %eax
  106835:	53                   	push   %ebx
  106836:	56                   	push   %esi
  106837:	ff 77 1c             	pushl  0x1c(%edi)
  10683a:	ff 57 24             	call   *0x24(%edi)
  10683d:	83 c4 10             	add    $0x10,%esp
  106840:	85 c0                	test   %eax,%eax
  106842:	7f e4                	jg     106828 <fflush+0x5c>
  106844:	66 83 4f 0c 40       	orw    $0x40,0xc(%edi)
  106849:	b8 ff ff ff ff       	mov    $0xffffffff,%eax
  10684e:	8d 65 f4             	lea    -0xc(%ebp),%esp
  106851:	5b                   	pop    %ebx
  106852:	5e                   	pop    %esi
  106853:	5f                   	pop    %edi
  106854:	c9                   	leave  
  106855:	c3                   	ret    
  106856:	66 90                	xchg   %ax,%ax
  106858:	80 cc 08             	or     $0x8,%ah
  10685b:	66 89 47 0c          	mov    %ax,0xc(%edi)
  10685f:	8b 57 04             	mov    0x4(%edi),%edx
  106862:	85 d2                	test   %edx,%edx
  106864:	0f 8e 90 00 00 00    	jle    1068fa <fflush+0x12e>
  10686a:	8b 77 28             	mov    0x28(%edi),%esi
  10686d:	85 f6                	test   %esi,%esi
  10686f:	74 57                	je     1068c8 <fflush+0xfc>
  106871:	f6 c4 10             	test   $0x10,%ah
  106874:	74 3d                	je     1068b3 <fflush+0xe7>
  106876:	8b 5f 50             	mov    0x50(%edi),%ebx
  106879:	f6 47 0c 04          	testb  $0x4,0xc(%edi)
  10687d:	75 6c                	jne    1068eb <fflush+0x11f>
  10687f:	52                   	push   %edx
  106880:	6a 00                	push   $0x0
  106882:	53                   	push   %ebx
  106883:	ff 77 1c             	pushl  0x1c(%edi)
  106886:	ff d6                	call   *%esi
  106888:	83 c4 10             	add    $0x10,%esp
  10688b:	40                   	inc    %eax
  10688c:	74 3a                	je     1068c8 <fflush+0xfc>
  10688e:	66 81 67 0c ff f7    	andw   $0xf7ff,0xc(%edi)
  106894:	c7 47 04 00 00 00 00 	movl   $0x0,0x4(%edi)
  10689b:	8b 47 10             	mov    0x10(%edi),%eax
  10689e:	89 07                	mov    %eax,(%edi)
  1068a0:	f6 47 0d 10          	testb  $0x10,0xd(%edi)
  1068a4:	74 22                	je     1068c8 <fflush+0xfc>
  1068a6:	89 5f 50             	mov    %ebx,0x50(%edi)
  1068a9:	31 c0                	xor    %eax,%eax
  1068ab:	8d 65 f4             	lea    -0xc(%ebp),%esp
  1068ae:	5b                   	pop    %ebx
  1068af:	5e                   	pop    %esi
  1068b0:	5f                   	pop    %edi
  1068b1:	c9                   	leave  
  1068b2:	c3                   	ret    
  1068b3:	53                   	push   %ebx
  1068b4:	6a 01                	push   $0x1
  1068b6:	6a 00                	push   $0x0
  1068b8:	ff 77 1c             	pushl  0x1c(%edi)
  1068bb:	ff d6                	call   *%esi
  1068bd:	89 c3                	mov    %eax,%ebx
  1068bf:	83 c4 10             	add    $0x10,%esp
  1068c2:	83 f8 ff             	cmp    $0xffffffff,%eax
  1068c5:	75 b2                	jne    106879 <fflush+0xad>
  1068c7:	90                   	nop    
  1068c8:	31 c0                	xor    %eax,%eax
  1068ca:	8d 65 f4             	lea    -0xc(%ebp),%esp
  1068cd:	5b                   	pop    %ebx
  1068ce:	5e                   	pop    %esi
  1068cf:	5f                   	pop    %edi
  1068d0:	c9                   	leave  
  1068d1:	c3                   	ret    
  1068d2:	83 ec 0c             	sub    $0xc,%esp
  1068d5:	50                   	push   %eax
  1068d6:	e8 c1 00 00 00       	call   10699c <__sinit>
  1068db:	83 c4 10             	add    $0x10,%esp
  1068de:	e9 11 ff ff ff       	jmp    1067f4 <fflush+0x28>
  1068e3:	8b 47 14             	mov    0x14(%edi),%eax
  1068e6:	e9 30 ff ff ff       	jmp    10681b <fflush+0x4f>
  1068eb:	2b 5f 04             	sub    0x4(%edi),%ebx
  1068ee:	8b 4f 30             	mov    0x30(%edi),%ecx
  1068f1:	85 c9                	test   %ecx,%ecx
  1068f3:	74 8a                	je     10687f <fflush+0xb3>
  1068f5:	2b 5f 3c             	sub    0x3c(%edi),%ebx
  1068f8:	eb 85                	jmp    10687f <fflush+0xb3>
  1068fa:	8b 77 3c             	mov    0x3c(%edi),%esi
  1068fd:	85 f6                	test   %esi,%esi
  1068ff:	0f 8f 65 ff ff ff    	jg     10686a <fflush+0x9e>
  106905:	31 c0                	xor    %eax,%eax
  106907:	eb c1                	jmp    1068ca <fflush+0xfe>
  106909:	83 ec 08             	sub    $0x8,%esp
  10690c:	68 cc 67 10 00       	push   $0x1067cc
  106911:	ff 35 fc 8d 10 00    	pushl  0x108dfc
  106917:	e8 a4 06 00 00       	call   106fc0 <_fwalk>
  10691c:	83 c4 10             	add    $0x10,%esp
  10691f:	eb 8a                	jmp    1068ab <fflush+0xdf>
  106921:	00 00                	add    %al,(%eax)
	...

00106924 <std>:
  106924:	55                   	push   %ebp
  106925:	89 e5                	mov    %esp,%ebp
  106927:	c7 00 00 00 00 00    	movl   $0x0,(%eax)
  10692d:	c7 40 04 00 00 00 00 	movl   $0x0,0x4(%eax)
  106934:	c7 40 08 00 00 00 00 	movl   $0x0,0x8(%eax)
  10693b:	66 89 50 0c          	mov    %dx,0xc(%eax)
  10693f:	66 89 48 0e          	mov    %cx,0xe(%eax)
  106943:	c7 40 10 00 00 00 00 	movl   $0x0,0x10(%eax)
  10694a:	c7 40 14 00 00 00 00 	movl   $0x0,0x14(%eax)
  106951:	c7 40 18 00 00 00 00 	movl   $0x0,0x18(%eax)
  106958:	89 40 1c             	mov    %eax,0x1c(%eax)
  10695b:	c7 40 20 e4 79 10 00 	movl   $0x1079e4,0x20(%eax)
  106962:	c7 40 24 9c 79 10 00 	movl   $0x10799c,0x24(%eax)
  106969:	c7 40 28 58 79 10 00 	movl   $0x107958,0x28(%eax)
  106970:	c7 40 2c 3c 79 10 00 	movl   $0x10793c,0x2c(%eax)
  106977:	c9                   	leave  
  106978:	c3                   	ret    
  106979:	8d 76 00             	lea    0x0(%esi),%esi

0010697c <__sfp_lock_acquire>:
  10697c:	55                   	push   %ebp
  10697d:	89 e5                	mov    %esp,%ebp
  10697f:	c9                   	leave  
  106980:	c3                   	ret    
  106981:	8d 76 00             	lea    0x0(%esi),%esi

00106984 <__sfp_lock_release>:
  106984:	55                   	push   %ebp
  106985:	89 e5                	mov    %esp,%ebp
  106987:	c9                   	leave  
  106988:	c3                   	ret    
  106989:	8d 76 00             	lea    0x0(%esi),%esi

0010698c <__sinit_lock_acquire>:
  10698c:	55                   	push   %ebp
  10698d:	89 e5                	mov    %esp,%ebp
  10698f:	c9                   	leave  
  106990:	c3                   	ret    
  106991:	8d 76 00             	lea    0x0(%esi),%esi

00106994 <__sinit_lock_release>:
  106994:	55                   	push   %ebp
  106995:	89 e5                	mov    %esp,%ebp
  106997:	c9                   	leave  
  106998:	c3                   	ret    
  106999:	8d 76 00             	lea    0x0(%esi),%esi

0010699c <__sinit>:
  10699c:	55                   	push   %ebp
  10699d:	89 e5                	mov    %esp,%ebp
  10699f:	53                   	push   %ebx
  1069a0:	8b 5d 08             	mov    0x8(%ebp),%ebx
  1069a3:	8b 4b 38             	mov    0x38(%ebx),%ecx
  1069a6:	85 c9                	test   %ecx,%ecx
  1069a8:	74 06                	je     1069b0 <__sinit+0x14>
  1069aa:	8b 5d fc             	mov    -0x4(%ebp),%ebx
  1069ad:	c9                   	leave  
  1069ae:	c3                   	ret    
  1069af:	90                   	nop    
  1069b0:	c7 43 3c 64 6a 10 00 	movl   $0x106a64,0x3c(%ebx)
  1069b7:	c7 43 38 01 00 00 00 	movl   $0x1,0x38(%ebx)
  1069be:	c7 83 e0 02 00 00 00 	movl   $0x0,0x2e0(%ebx)
  1069c5:	00 00 00 
  1069c8:	c7 83 e4 02 00 00 03 	movl   $0x3,0x2e4(%ebx)
  1069cf:	00 00 00 
  1069d2:	8d 83 ec 02 00 00    	lea    0x2ec(%ebx),%eax
  1069d8:	89 83 e8 02 00 00    	mov    %eax,0x2e8(%ebx)
  1069de:	8b 43 04             	mov    0x4(%ebx),%eax
  1069e1:	53                   	push   %ebx
  1069e2:	31 c9                	xor    %ecx,%ecx
  1069e4:	ba 04 00 00 00       	mov    $0x4,%edx
  1069e9:	e8 36 ff ff ff       	call   106924 <std>
  1069ee:	8b 43 08             	mov    0x8(%ebx),%eax
  1069f1:	53                   	push   %ebx
  1069f2:	b9 01 00 00 00       	mov    $0x1,%ecx
  1069f7:	ba 09 00 00 00       	mov    $0x9,%edx
  1069fc:	e8 23 ff ff ff       	call   106924 <std>
  106a01:	58                   	pop    %eax
  106a02:	5a                   	pop    %edx
  106a03:	8b 43 0c             	mov    0xc(%ebx),%eax
  106a06:	89 5d 08             	mov    %ebx,0x8(%ebp)
  106a09:	b9 02 00 00 00       	mov    $0x2,%ecx
  106a0e:	ba 0a 00 00 00       	mov    $0xa,%edx
  106a13:	8b 5d fc             	mov    -0x4(%ebp),%ebx
  106a16:	c9                   	leave  
  106a17:	e9 08 ff ff ff       	jmp    106924 <std>

00106a1c <__fp_lock>:
  106a1c:	55                   	push   %ebp
  106a1d:	89 e5                	mov    %esp,%ebp
  106a1f:	31 c0                	xor    %eax,%eax
  106a21:	c9                   	leave  
  106a22:	c3                   	ret    
  106a23:	90                   	nop    

00106a24 <__fp_unlock>:
  106a24:	55                   	push   %ebp
  106a25:	89 e5                	mov    %esp,%ebp
  106a27:	31 c0                	xor    %eax,%eax
  106a29:	c9                   	leave  
  106a2a:	c3                   	ret    
  106a2b:	90                   	nop    

00106a2c <__fp_unlock_all>:
  106a2c:	55                   	push   %ebp
  106a2d:	89 e5                	mov    %esp,%ebp
  106a2f:	83 ec 10             	sub    $0x10,%esp
  106a32:	68 24 6a 10 00       	push   $0x106a24
  106a37:	ff 35 e0 91 10 00    	pushl  0x1091e0
  106a3d:	e8 7e 05 00 00       	call   106fc0 <_fwalk>
  106a42:	83 c4 10             	add    $0x10,%esp
  106a45:	c9                   	leave  
  106a46:	c3                   	ret    
  106a47:	90                   	nop    

00106a48 <__fp_lock_all>:
  106a48:	55                   	push   %ebp
  106a49:	89 e5                	mov    %esp,%ebp
  106a4b:	83 ec 10             	sub    $0x10,%esp
  106a4e:	68 1c 6a 10 00       	push   $0x106a1c
  106a53:	ff 35 e0 91 10 00    	pushl  0x1091e0
  106a59:	e8 62 05 00 00       	call   106fc0 <_fwalk>
  106a5e:	83 c4 10             	add    $0x10,%esp
  106a61:	c9                   	leave  
  106a62:	c3                   	ret    
  106a63:	90                   	nop    

00106a64 <_cleanup_r>:
  106a64:	55                   	push   %ebp
  106a65:	89 e5                	mov    %esp,%ebp
  106a67:	83 ec 10             	sub    $0x10,%esp
  106a6a:	68 d0 7d 10 00       	push   $0x107dd0
  106a6f:	ff 75 08             	pushl  0x8(%ebp)
  106a72:	e8 49 05 00 00       	call   106fc0 <_fwalk>
  106a77:	83 c4 10             	add    $0x10,%esp
  106a7a:	c9                   	leave  
  106a7b:	c3                   	ret    

00106a7c <_cleanup>:
  106a7c:	55                   	push   %ebp
  106a7d:	89 e5                	mov    %esp,%ebp
  106a7f:	83 ec 14             	sub    $0x14,%esp
  106a82:	ff 35 fc 8d 10 00    	pushl  0x108dfc
  106a88:	e8 d7 ff ff ff       	call   106a64 <_cleanup_r>
  106a8d:	83 c4 10             	add    $0x10,%esp
  106a90:	c9                   	leave  
  106a91:	c3                   	ret    
  106a92:	66 90                	xchg   %ax,%ax

00106a94 <__sfmoreglue>:
  106a94:	55                   	push   %ebp
  106a95:	89 e5                	mov    %esp,%ebp
  106a97:	57                   	push   %edi
  106a98:	56                   	push   %esi
  106a99:	53                   	push   %ebx
  106a9a:	83 ec 14             	sub    $0x14,%esp
  106a9d:	8b 75 0c             	mov    0xc(%ebp),%esi
  106aa0:	8d 04 76             	lea    (%esi,%esi,2),%eax
  106aa3:	c1 e0 03             	shl    $0x3,%eax
  106aa6:	29 f0                	sub    %esi,%eax
  106aa8:	8d 3c 85 00 00 00 00 	lea    0x0(,%eax,4),%edi
  106aaf:	8d 47 0c             	lea    0xc(%edi),%eax
  106ab2:	50                   	push   %eax
  106ab3:	ff 75 08             	pushl  0x8(%ebp)
  106ab6:	e8 b5 06 00 00       	call   107170 <_malloc_r>
  106abb:	83 c4 10             	add    $0x10,%esp
  106abe:	85 c0                	test   %eax,%eax
  106ac0:	74 2a                	je     106aec <__sfmoreglue+0x58>
  106ac2:	89 c3                	mov    %eax,%ebx
  106ac4:	8d 40 0c             	lea    0xc(%eax),%eax
  106ac7:	c7 03 00 00 00 00    	movl   $0x0,(%ebx)
  106acd:	89 73 04             	mov    %esi,0x4(%ebx)
  106ad0:	89 43 08             	mov    %eax,0x8(%ebx)
  106ad3:	56                   	push   %esi
  106ad4:	57                   	push   %edi
  106ad5:	6a 00                	push   $0x0
  106ad7:	50                   	push   %eax
  106ad8:	e8 cf 0d 00 00       	call   1078ac <memset>
  106add:	83 c4 10             	add    $0x10,%esp
  106ae0:	89 d8                	mov    %ebx,%eax
  106ae2:	8d 65 f4             	lea    -0xc(%ebp),%esp
  106ae5:	5b                   	pop    %ebx
  106ae6:	5e                   	pop    %esi
  106ae7:	5f                   	pop    %edi
  106ae8:	c9                   	leave  
  106ae9:	c3                   	ret    
  106aea:	66 90                	xchg   %ax,%ax
  106aec:	31 db                	xor    %ebx,%ebx
  106aee:	89 d8                	mov    %ebx,%eax
  106af0:	8d 65 f4             	lea    -0xc(%ebp),%esp
  106af3:	5b                   	pop    %ebx
  106af4:	5e                   	pop    %esi
  106af5:	5f                   	pop    %edi
  106af6:	c9                   	leave  
  106af7:	c3                   	ret    

00106af8 <__sfp>:
  106af8:	55                   	push   %ebp
  106af9:	89 e5                	mov    %esp,%ebp
  106afb:	53                   	push   %ebx
  106afc:	83 ec 04             	sub    $0x4,%esp
  106aff:	a1 fc 8d 10 00       	mov    0x108dfc,%eax
  106b04:	8b 50 38             	mov    0x38(%eax),%edx
  106b07:	85 d2                	test   %edx,%edx
  106b09:	0f 84 89 00 00 00    	je     106b98 <__sfp+0xa0>
  106b0f:	8b 1d fc 8d 10 00    	mov    0x108dfc,%ebx
  106b15:	81 c3 e0 02 00 00    	add    $0x2e0,%ebx
  106b1b:	8b 43 08             	mov    0x8(%ebx),%eax
  106b1e:	8b 53 04             	mov    0x4(%ebx),%edx
  106b21:	4a                   	dec    %edx
  106b22:	79 0d                	jns    106b31 <__sfp+0x39>
  106b24:	eb 68                	jmp    106b8e <__sfp+0x96>
  106b26:	66 90                	xchg   %ax,%ax
  106b28:	4a                   	dec    %edx
  106b29:	83 fa ff             	cmp    $0xffffffff,%edx
  106b2c:	74 60                	je     106b8e <__sfp+0x96>
  106b2e:	83 c0 5c             	add    $0x5c,%eax
  106b31:	66 83 78 0c 00       	cmpw   $0x0,0xc(%eax)
  106b36:	75 f0                	jne    106b28 <__sfp+0x30>
  106b38:	66 c7 40 0e ff ff    	movw   $0xffff,0xe(%eax)
  106b3e:	66 c7 40 0c 01 00    	movw   $0x1,0xc(%eax)
  106b44:	c7 00 00 00 00 00    	movl   $0x0,(%eax)
  106b4a:	c7 40 08 00 00 00 00 	movl   $0x0,0x8(%eax)
  106b51:	c7 40 04 00 00 00 00 	movl   $0x0,0x4(%eax)
  106b58:	c7 40 10 00 00 00 00 	movl   $0x0,0x10(%eax)
  106b5f:	c7 40 14 00 00 00 00 	movl   $0x0,0x14(%eax)
  106b66:	c7 40 18 00 00 00 00 	movl   $0x0,0x18(%eax)
  106b6d:	c7 40 30 00 00 00 00 	movl   $0x0,0x30(%eax)
  106b74:	c7 40 34 00 00 00 00 	movl   $0x0,0x34(%eax)
  106b7b:	c7 40 44 00 00 00 00 	movl   $0x0,0x44(%eax)
  106b82:	c7 40 48 00 00 00 00 	movl   $0x0,0x48(%eax)
  106b89:	8b 5d fc             	mov    -0x4(%ebp),%ebx
  106b8c:	c9                   	leave  
  106b8d:	c3                   	ret    
  106b8e:	8b 03                	mov    (%ebx),%eax
  106b90:	85 c0                	test   %eax,%eax
  106b92:	74 10                	je     106ba4 <__sfp+0xac>
  106b94:	89 c3                	mov    %eax,%ebx
  106b96:	eb 83                	jmp    106b1b <__sfp+0x23>
  106b98:	50                   	push   %eax
  106b99:	e8 fe fd ff ff       	call   10699c <__sinit>
  106b9e:	58                   	pop    %eax
  106b9f:	e9 6b ff ff ff       	jmp    106b0f <__sfp+0x17>
  106ba4:	83 ec 08             	sub    $0x8,%esp
  106ba7:	6a 04                	push   $0x4
  106ba9:	ff 75 08             	pushl  0x8(%ebp)
  106bac:	e8 e3 fe ff ff       	call   106a94 <__sfmoreglue>
  106bb1:	89 03                	mov    %eax,(%ebx)
  106bb3:	83 c4 10             	add    $0x10,%esp
  106bb6:	85 c0                	test   %eax,%eax
  106bb8:	75 da                	jne    106b94 <__sfp+0x9c>
  106bba:	8b 45 08             	mov    0x8(%ebp),%eax
  106bbd:	c7 00 0c 00 00 00    	movl   $0xc,(%eax)
  106bc3:	31 c0                	xor    %eax,%eax
  106bc5:	eb c2                	jmp    106b89 <__sfp+0x91>
	...

00106bc8 <_malloc_trim_r>:
  106bc8:	55                   	push   %ebp
  106bc9:	89 e5                	mov    %esp,%ebp
  106bcb:	57                   	push   %edi
  106bcc:	56                   	push   %esi
  106bcd:	53                   	push   %ebx
  106bce:	83 ec 18             	sub    $0x18,%esp
  106bd1:	8b 7d 08             	mov    0x8(%ebp),%edi
  106bd4:	8b 5d 0c             	mov    0xc(%ebp),%ebx
  106bd7:	57                   	push   %edi
  106bd8:	e8 17 0d 00 00       	call   1078f4 <__malloc_lock>
  106bdd:	a1 08 96 10 00       	mov    0x109608,%eax
  106be2:	8b 70 04             	mov    0x4(%eax),%esi
  106be5:	83 e6 fc             	and    $0xfffffffc,%esi
  106be8:	f7 db                	neg    %ebx
  106bea:	8d 84 1e ef 0f 00 00 	lea    0xfef(%esi,%ebx,1),%eax
  106bf1:	25 00 f0 ff ff       	and    $0xfffff000,%eax
  106bf6:	8d 98 00 f0 ff ff    	lea    -0x1000(%eax),%ebx
  106bfc:	83 c4 10             	add    $0x10,%esp
  106bff:	81 fb ff 0f 00 00    	cmp    $0xfff,%ebx
  106c05:	7e 1a                	jle    106c21 <_malloc_trim_r+0x59>
  106c07:	83 ec 08             	sub    $0x8,%esp
  106c0a:	6a 00                	push   $0x0
  106c0c:	57                   	push   %edi
  106c0d:	e8 f2 0c 00 00       	call   107904 <_sbrk_r>
  106c12:	89 f2                	mov    %esi,%edx
  106c14:	03 15 08 96 10 00    	add    0x109608,%edx
  106c1a:	83 c4 10             	add    $0x10,%esp
  106c1d:	39 c2                	cmp    %eax,%edx
  106c1f:	74 16                	je     106c37 <_malloc_trim_r+0x6f>
  106c21:	83 ec 0c             	sub    $0xc,%esp
  106c24:	57                   	push   %edi
  106c25:	e8 d2 0c 00 00       	call   1078fc <__malloc_unlock>
  106c2a:	31 c0                	xor    %eax,%eax
  106c2c:	83 c4 10             	add    $0x10,%esp
  106c2f:	8d 65 f4             	lea    -0xc(%ebp),%esp
  106c32:	5b                   	pop    %ebx
  106c33:	5e                   	pop    %esi
  106c34:	5f                   	pop    %edi
  106c35:	c9                   	leave  
  106c36:	c3                   	ret    
  106c37:	83 ec 08             	sub    $0x8,%esp
  106c3a:	89 d8                	mov    %ebx,%eax
  106c3c:	f7 d8                	neg    %eax
  106c3e:	50                   	push   %eax
  106c3f:	57                   	push   %edi
  106c40:	e8 bf 0c 00 00       	call   107904 <_sbrk_r>
  106c45:	83 c4 10             	add    $0x10,%esp
  106c48:	40                   	inc    %eax
  106c49:	74 26                	je     106c71 <_malloc_trim_r+0xa9>
  106c4b:	29 de                	sub    %ebx,%esi
  106c4d:	83 ce 01             	or     $0x1,%esi
  106c50:	a1 08 96 10 00       	mov    0x109608,%eax
  106c55:	89 70 04             	mov    %esi,0x4(%eax)
  106c58:	29 1d 40 c0 10 00    	sub    %ebx,0x10c040
  106c5e:	83 ec 0c             	sub    $0xc,%esp
  106c61:	57                   	push   %edi
  106c62:	e8 95 0c 00 00       	call   1078fc <__malloc_unlock>
  106c67:	b8 01 00 00 00       	mov    $0x1,%eax
  106c6c:	83 c4 10             	add    $0x10,%esp
  106c6f:	eb be                	jmp    106c2f <_malloc_trim_r+0x67>
  106c71:	83 ec 08             	sub    $0x8,%esp
  106c74:	6a 00                	push   $0x0
  106c76:	57                   	push   %edi
  106c77:	e8 88 0c 00 00       	call   107904 <_sbrk_r>
  106c7c:	8b 0d 08 96 10 00    	mov    0x109608,%ecx
  106c82:	89 c2                	mov    %eax,%edx
  106c84:	29 ca                	sub    %ecx,%edx
  106c86:	83 c4 10             	add    $0x10,%esp
  106c89:	83 fa 0f             	cmp    $0xf,%edx
  106c8c:	7e 93                	jle    106c21 <_malloc_trim_r+0x59>
  106c8e:	2b 05 0c 9a 10 00    	sub    0x109a0c,%eax
  106c94:	a3 40 c0 10 00       	mov    %eax,0x10c040
  106c99:	83 ca 01             	or     $0x1,%edx
  106c9c:	89 51 04             	mov    %edx,0x4(%ecx)
  106c9f:	eb 80                	jmp    106c21 <_malloc_trim_r+0x59>
  106ca1:	8d 76 00             	lea    0x0(%esi),%esi

00106ca4 <_free_r>:
  106ca4:	55                   	push   %ebp
  106ca5:	89 e5                	mov    %esp,%ebp
  106ca7:	57                   	push   %edi
  106ca8:	56                   	push   %esi
  106ca9:	53                   	push   %ebx
  106caa:	83 ec 0c             	sub    $0xc,%esp
  106cad:	8b 45 08             	mov    0x8(%ebp),%eax
  106cb0:	89 45 ec             	mov    %eax,-0x14(%ebp)
  106cb3:	8b 5d 0c             	mov    0xc(%ebp),%ebx
  106cb6:	85 db                	test   %ebx,%ebx
  106cb8:	0f 84 fe 00 00 00    	je     106dbc <_free_r+0x118>
  106cbe:	83 ec 0c             	sub    $0xc,%esp
  106cc1:	50                   	push   %eax
  106cc2:	e8 2d 0c 00 00       	call   1078f4 <__malloc_lock>
  106cc7:	8d 7b f8             	lea    -0x8(%ebx),%edi
  106cca:	8b 47 04             	mov    0x4(%edi),%eax
  106ccd:	89 c6                	mov    %eax,%esi
  106ccf:	83 e6 fe             	and    $0xfffffffe,%esi
  106cd2:	8d 0c 37             	lea    (%edi,%esi,1),%ecx
  106cd5:	8b 51 04             	mov    0x4(%ecx),%edx
  106cd8:	83 e2 fc             	and    $0xfffffffc,%edx
  106cdb:	89 55 f0             	mov    %edx,-0x10(%ebp)
  106cde:	83 c4 10             	add    $0x10,%esp
  106ce1:	39 0d 08 96 10 00    	cmp    %ecx,0x109608
  106ce7:	0f 84 0f 01 00 00    	je     106dfc <_free_r+0x158>
  106ced:	8b 55 f0             	mov    -0x10(%ebp),%edx
  106cf0:	89 51 04             	mov    %edx,0x4(%ecx)
  106cf3:	a8 01                	test   $0x1,%al
  106cf5:	75 1f                	jne    106d16 <_free_r+0x72>
  106cf7:	8b 43 f8             	mov    -0x8(%ebx),%eax
  106cfa:	29 c7                	sub    %eax,%edi
  106cfc:	01 c6                	add    %eax,%esi
  106cfe:	8b 57 08             	mov    0x8(%edi),%edx
  106d01:	81 fa 08 96 10 00    	cmp    $0x109608,%edx
  106d07:	0f 84 4f 01 00 00    	je     106e5c <_free_r+0x1b8>
  106d0d:	8b 47 0c             	mov    0xc(%edi),%eax
  106d10:	89 42 0c             	mov    %eax,0xc(%edx)
  106d13:	89 50 08             	mov    %edx,0x8(%eax)
  106d16:	31 db                	xor    %ebx,%ebx
  106d18:	8b 45 f0             	mov    -0x10(%ebp),%eax
  106d1b:	f6 44 08 04 01       	testb  $0x1,0x4(%eax,%ecx,1)
  106d20:	75 22                	jne    106d44 <_free_r+0xa0>
  106d22:	01 c6                	add    %eax,%esi
  106d24:	85 db                	test   %ebx,%ebx
  106d26:	0f 85 98 00 00 00    	jne    106dc4 <_free_r+0x120>
  106d2c:	8b 51 08             	mov    0x8(%ecx),%edx
  106d2f:	81 fa 08 96 10 00    	cmp    $0x109608,%edx
  106d35:	0f 84 55 01 00 00    	je     106e90 <_free_r+0x1ec>
  106d3b:	8b 41 0c             	mov    0xc(%ecx),%eax
  106d3e:	89 42 0c             	mov    %eax,0xc(%edx)
  106d41:	89 50 08             	mov    %edx,0x8(%eax)
  106d44:	89 f0                	mov    %esi,%eax
  106d46:	83 c8 01             	or     $0x1,%eax
  106d49:	89 47 04             	mov    %eax,0x4(%edi)
  106d4c:	89 34 37             	mov    %esi,(%edi,%esi,1)
  106d4f:	85 db                	test   %ebx,%ebx
  106d51:	74 15                	je     106d68 <_free_r+0xc4>
  106d53:	8b 55 ec             	mov    -0x14(%ebp),%edx
  106d56:	89 55 08             	mov    %edx,0x8(%ebp)
  106d59:	8d 65 f4             	lea    -0xc(%ebp),%esp
  106d5c:	5b                   	pop    %ebx
  106d5d:	5e                   	pop    %esi
  106d5e:	5f                   	pop    %edi
  106d5f:	c9                   	leave  
  106d60:	e9 97 0b 00 00       	jmp    1078fc <__malloc_unlock>
  106d65:	8d 76 00             	lea    0x0(%esi),%esi
  106d68:	81 fe ff 01 00 00    	cmp    $0x1ff,%esi
  106d6e:	76 5c                	jbe    106dcc <_free_r+0x128>
  106d70:	89 f0                	mov    %esi,%eax
  106d72:	c1 e8 09             	shr    $0x9,%eax
  106d75:	0f 85 c4 00 00 00    	jne    106e3f <_free_r+0x19b>
  106d7b:	89 f1                	mov    %esi,%ecx
  106d7d:	c1 e9 03             	shr    $0x3,%ecx
  106d80:	8d 04 cd 08 00 00 00 	lea    0x8(,%ecx,8),%eax
  106d87:	8d 98 f8 95 10 00    	lea    0x1095f8(%eax),%ebx
  106d8d:	8b 53 08             	mov    0x8(%ebx),%edx
  106d90:	39 da                	cmp    %ebx,%edx
  106d92:	0f 84 22 01 00 00    	je     106eba <_free_r+0x216>
  106d98:	8b 42 04             	mov    0x4(%edx),%eax
  106d9b:	83 e0 fc             	and    $0xfffffffc,%eax
  106d9e:	39 c6                	cmp    %eax,%esi
  106da0:	73 07                	jae    106da9 <_free_r+0x105>
  106da2:	8b 52 08             	mov    0x8(%edx),%edx
  106da5:	39 d3                	cmp    %edx,%ebx
  106da7:	75 ef                	jne    106d98 <_free_r+0xf4>
  106da9:	8b 42 0c             	mov    0xc(%edx),%eax
  106dac:	89 47 0c             	mov    %eax,0xc(%edi)
  106daf:	89 57 08             	mov    %edx,0x8(%edi)
  106db2:	89 78 08             	mov    %edi,0x8(%eax)
  106db5:	89 7a 0c             	mov    %edi,0xc(%edx)
  106db8:	eb 99                	jmp    106d53 <_free_r+0xaf>
  106dba:	66 90                	xchg   %ax,%ax
  106dbc:	8d 65 f4             	lea    -0xc(%ebp),%esp
  106dbf:	5b                   	pop    %ebx
  106dc0:	5e                   	pop    %esi
  106dc1:	5f                   	pop    %edi
  106dc2:	c9                   	leave  
  106dc3:	c3                   	ret    
  106dc4:	8b 51 08             	mov    0x8(%ecx),%edx
  106dc7:	e9 6f ff ff ff       	jmp    106d3b <_free_r+0x97>
  106dcc:	c1 ee 03             	shr    $0x3,%esi
  106dcf:	89 f1                	mov    %esi,%ecx
  106dd1:	c1 f9 02             	sar    $0x2,%ecx
  106dd4:	b8 01 00 00 00       	mov    $0x1,%eax
  106dd9:	d3 e0                	shl    %cl,%eax
  106ddb:	09 05 04 96 10 00    	or     %eax,0x109604
  106de1:	8d 14 f5 00 96 10 00 	lea    0x109600(,%esi,8),%edx
  106de8:	8b 42 08             	mov    0x8(%edx),%eax
  106deb:	89 57 0c             	mov    %edx,0xc(%edi)
  106dee:	89 47 08             	mov    %eax,0x8(%edi)
  106df1:	89 7a 08             	mov    %edi,0x8(%edx)
  106df4:	89 78 0c             	mov    %edi,0xc(%eax)
  106df7:	e9 57 ff ff ff       	jmp    106d53 <_free_r+0xaf>
  106dfc:	89 d1                	mov    %edx,%ecx
  106dfe:	01 f1                	add    %esi,%ecx
  106e00:	a8 01                	test   $0x1,%al
  106e02:	75 13                	jne    106e17 <_free_r+0x173>
  106e04:	8b 43 f8             	mov    -0x8(%ebx),%eax
  106e07:	29 c7                	sub    %eax,%edi
  106e09:	01 c1                	add    %eax,%ecx
  106e0b:	8b 57 0c             	mov    0xc(%edi),%edx
  106e0e:	8b 47 08             	mov    0x8(%edi),%eax
  106e11:	89 50 0c             	mov    %edx,0xc(%eax)
  106e14:	89 42 08             	mov    %eax,0x8(%edx)
  106e17:	89 c8                	mov    %ecx,%eax
  106e19:	83 c8 01             	or     $0x1,%eax
  106e1c:	89 47 04             	mov    %eax,0x4(%edi)
  106e1f:	89 3d 08 96 10 00    	mov    %edi,0x109608
  106e25:	3b 0d 08 9a 10 00    	cmp    0x109a08,%ecx
  106e2b:	73 4d                	jae    106e7a <_free_r+0x1d6>
  106e2d:	8b 45 ec             	mov    -0x14(%ebp),%eax
  106e30:	89 45 08             	mov    %eax,0x8(%ebp)
  106e33:	8d 65 f4             	lea    -0xc(%ebp),%esp
  106e36:	5b                   	pop    %ebx
  106e37:	5e                   	pop    %esi
  106e38:	5f                   	pop    %edi
  106e39:	c9                   	leave  
  106e3a:	e9 bd 0a 00 00       	jmp    1078fc <__malloc_unlock>
  106e3f:	83 f8 04             	cmp    $0x4,%eax
  106e42:	76 22                	jbe    106e66 <_free_r+0x1c2>
  106e44:	83 f8 14             	cmp    $0x14,%eax
  106e47:	0f 87 84 00 00 00    	ja     106ed1 <_free_r+0x22d>
  106e4d:	8d 48 5b             	lea    0x5b(%eax),%ecx
  106e50:	8d 04 c5 e0 02 00 00 	lea    0x2e0(,%eax,8),%eax
  106e57:	e9 2b ff ff ff       	jmp    106d87 <_free_r+0xe3>
  106e5c:	bb 01 00 00 00       	mov    $0x1,%ebx
  106e61:	e9 b2 fe ff ff       	jmp    106d18 <_free_r+0x74>
  106e66:	89 f0                	mov    %esi,%eax
  106e68:	c1 e8 06             	shr    $0x6,%eax
  106e6b:	8d 48 38             	lea    0x38(%eax),%ecx
  106e6e:	8d 04 c5 c8 01 00 00 	lea    0x1c8(,%eax,8),%eax
  106e75:	e9 0d ff ff ff       	jmp    106d87 <_free_r+0xe3>
  106e7a:	83 ec 08             	sub    $0x8,%esp
  106e7d:	ff 35 20 c0 10 00    	pushl  0x10c020
  106e83:	ff 75 ec             	pushl  -0x14(%ebp)
  106e86:	e8 3d fd ff ff       	call   106bc8 <_malloc_trim_r>
  106e8b:	83 c4 10             	add    $0x10,%esp
  106e8e:	eb 9d                	jmp    106e2d <_free_r+0x189>
  106e90:	89 3d 14 96 10 00    	mov    %edi,0x109614
  106e96:	89 3d 10 96 10 00    	mov    %edi,0x109610
  106e9c:	c7 47 0c 08 96 10 00 	movl   $0x109608,0xc(%edi)
  106ea3:	c7 47 08 08 96 10 00 	movl   $0x109608,0x8(%edi)
  106eaa:	89 f0                	mov    %esi,%eax
  106eac:	83 c8 01             	or     $0x1,%eax
  106eaf:	89 47 04             	mov    %eax,0x4(%edi)
  106eb2:	89 34 37             	mov    %esi,(%edi,%esi,1)
  106eb5:	e9 99 fe ff ff       	jmp    106d53 <_free_r+0xaf>
  106eba:	c1 f9 02             	sar    $0x2,%ecx
  106ebd:	b8 01 00 00 00       	mov    $0x1,%eax
  106ec2:	d3 e0                	shl    %cl,%eax
  106ec4:	09 05 04 96 10 00    	or     %eax,0x109604
  106eca:	89 d0                	mov    %edx,%eax
  106ecc:	e9 db fe ff ff       	jmp    106dac <_free_r+0x108>
  106ed1:	83 f8 54             	cmp    $0x54,%eax
  106ed4:	77 14                	ja     106eea <_free_r+0x246>
  106ed6:	89 f0                	mov    %esi,%eax
  106ed8:	c1 e8 0c             	shr    $0xc,%eax
  106edb:	8d 48 6e             	lea    0x6e(%eax),%ecx
  106ede:	8d 04 c5 78 03 00 00 	lea    0x378(,%eax,8),%eax
  106ee5:	e9 9d fe ff ff       	jmp    106d87 <_free_r+0xe3>
  106eea:	3d 54 01 00 00       	cmp    $0x154,%eax
  106eef:	77 14                	ja     106f05 <_free_r+0x261>
  106ef1:	89 f0                	mov    %esi,%eax
  106ef3:	c1 e8 0f             	shr    $0xf,%eax
  106ef6:	8d 48 77             	lea    0x77(%eax),%ecx
  106ef9:	8d 04 c5 c0 03 00 00 	lea    0x3c0(,%eax,8),%eax
  106f00:	e9 82 fe ff ff       	jmp    106d87 <_free_r+0xe3>
  106f05:	3d 54 05 00 00       	cmp    $0x554,%eax
  106f0a:	76 0f                	jbe    106f1b <_free_r+0x277>
  106f0c:	b9 7e 00 00 00       	mov    $0x7e,%ecx
  106f11:	b8 f8 03 00 00       	mov    $0x3f8,%eax
  106f16:	e9 6c fe ff ff       	jmp    106d87 <_free_r+0xe3>
  106f1b:	89 f0                	mov    %esi,%eax
  106f1d:	c1 e8 12             	shr    $0x12,%eax
  106f20:	8d 48 7c             	lea    0x7c(%eax),%ecx
  106f23:	8d 04 c5 e8 03 00 00 	lea    0x3e8(,%eax,8),%eax
  106f2a:	e9 58 fe ff ff       	jmp    106d87 <_free_r+0xe3>
	...

00106f30 <_fwalk_reent>:
  106f30:	55                   	push   %ebp
  106f31:	89 e5                	mov    %esp,%ebp
  106f33:	57                   	push   %edi
  106f34:	56                   	push   %esi
  106f35:	53                   	push   %ebx
  106f36:	83 ec 0c             	sub    $0xc,%esp
  106f39:	e8 3e fa ff ff       	call   10697c <__sfp_lock_acquire>
  106f3e:	8b 45 08             	mov    0x8(%ebp),%eax
  106f41:	05 e0 02 00 00       	add    $0x2e0,%eax
  106f46:	89 45 ec             	mov    %eax,-0x14(%ebp)
  106f49:	74 5e                	je     106fa9 <_fwalk_reent+0x79>
  106f4b:	c7 45 f0 00 00 00 00 	movl   $0x0,-0x10(%ebp)
  106f52:	8b 45 ec             	mov    -0x14(%ebp),%eax
  106f55:	8b 58 08             	mov    0x8(%eax),%ebx
  106f58:	8b 78 04             	mov    0x4(%eax),%edi
  106f5b:	89 f8                	mov    %edi,%eax
  106f5d:	48                   	dec    %eax
  106f5e:	78 2d                	js     106f8d <_fwalk_reent+0x5d>
  106f60:	31 f6                	xor    %esi,%esi
  106f62:	eb 03                	jmp    106f67 <_fwalk_reent+0x37>
  106f64:	83 c3 5c             	add    $0x5c,%ebx
  106f67:	66 83 7b 0c 00       	cmpw   $0x0,0xc(%ebx)
  106f6c:	74 1a                	je     106f88 <_fwalk_reent+0x58>
  106f6e:	66 83 7b 0e ff       	cmpw   $0xffffffff,0xe(%ebx)
  106f73:	74 13                	je     106f88 <_fwalk_reent+0x58>
  106f75:	83 ec 08             	sub    $0x8,%esp
  106f78:	53                   	push   %ebx
  106f79:	ff 75 08             	pushl  0x8(%ebp)
  106f7c:	ff 55 0c             	call   *0xc(%ebp)
  106f7f:	09 45 f0             	or     %eax,-0x10(%ebp)
  106f82:	83 c4 10             	add    $0x10,%esp
  106f85:	8d 76 00             	lea    0x0(%esi),%esi
  106f88:	46                   	inc    %esi
  106f89:	39 fe                	cmp    %edi,%esi
  106f8b:	75 d7                	jne    106f64 <_fwalk_reent+0x34>
  106f8d:	8b 45 ec             	mov    -0x14(%ebp),%eax
  106f90:	8b 00                	mov    (%eax),%eax
  106f92:	89 45 ec             	mov    %eax,-0x14(%ebp)
  106f95:	85 c0                	test   %eax,%eax
  106f97:	75 b9                	jne    106f52 <_fwalk_reent+0x22>
  106f99:	e8 e6 f9 ff ff       	call   106984 <__sfp_lock_release>
  106f9e:	8b 45 f0             	mov    -0x10(%ebp),%eax
  106fa1:	8d 65 f4             	lea    -0xc(%ebp),%esp
  106fa4:	5b                   	pop    %ebx
  106fa5:	5e                   	pop    %esi
  106fa6:	5f                   	pop    %edi
  106fa7:	c9                   	leave  
  106fa8:	c3                   	ret    
  106fa9:	c7 45 f0 00 00 00 00 	movl   $0x0,-0x10(%ebp)
  106fb0:	e8 cf f9 ff ff       	call   106984 <__sfp_lock_release>
  106fb5:	8b 45 f0             	mov    -0x10(%ebp),%eax
  106fb8:	8d 65 f4             	lea    -0xc(%ebp),%esp
  106fbb:	5b                   	pop    %ebx
  106fbc:	5e                   	pop    %esi
  106fbd:	5f                   	pop    %edi
  106fbe:	c9                   	leave  
  106fbf:	c3                   	ret    

00106fc0 <_fwalk>:
  106fc0:	55                   	push   %ebp
  106fc1:	89 e5                	mov    %esp,%ebp
  106fc3:	57                   	push   %edi
  106fc4:	56                   	push   %esi
  106fc5:	53                   	push   %ebx
  106fc6:	83 ec 0c             	sub    $0xc,%esp
  106fc9:	e8 ae f9 ff ff       	call   10697c <__sfp_lock_acquire>
  106fce:	8b 45 08             	mov    0x8(%ebp),%eax
  106fd1:	05 e0 02 00 00       	add    $0x2e0,%eax
  106fd6:	89 45 ec             	mov    %eax,-0x14(%ebp)
  106fd9:	74 5a                	je     107035 <_fwalk+0x75>
  106fdb:	c7 45 f0 00 00 00 00 	movl   $0x0,-0x10(%ebp)
  106fe2:	8b 45 ec             	mov    -0x14(%ebp),%eax
  106fe5:	8b 58 08             	mov    0x8(%eax),%ebx
  106fe8:	8b 78 04             	mov    0x4(%eax),%edi
  106feb:	89 f8                	mov    %edi,%eax
  106fed:	48                   	dec    %eax
  106fee:	78 29                	js     107019 <_fwalk+0x59>
  106ff0:	31 f6                	xor    %esi,%esi
  106ff2:	eb 03                	jmp    106ff7 <_fwalk+0x37>
  106ff4:	83 c3 5c             	add    $0x5c,%ebx
  106ff7:	66 83 7b 0c 00       	cmpw   $0x0,0xc(%ebx)
  106ffc:	74 16                	je     107014 <_fwalk+0x54>
  106ffe:	66 83 7b 0e ff       	cmpw   $0xffffffff,0xe(%ebx)
  107003:	74 0f                	je     107014 <_fwalk+0x54>
  107005:	83 ec 0c             	sub    $0xc,%esp
  107008:	53                   	push   %ebx
  107009:	ff 55 0c             	call   *0xc(%ebp)
  10700c:	09 45 f0             	or     %eax,-0x10(%ebp)
  10700f:	83 c4 10             	add    $0x10,%esp
  107012:	66 90                	xchg   %ax,%ax
  107014:	46                   	inc    %esi
  107015:	39 fe                	cmp    %edi,%esi
  107017:	75 db                	jne    106ff4 <_fwalk+0x34>
  107019:	8b 45 ec             	mov    -0x14(%ebp),%eax
  10701c:	8b 00                	mov    (%eax),%eax
  10701e:	89 45 ec             	mov    %eax,-0x14(%ebp)
  107021:	85 c0                	test   %eax,%eax
  107023:	75 bd                	jne    106fe2 <_fwalk+0x22>
  107025:	e8 5a f9 ff ff       	call   106984 <__sfp_lock_release>
  10702a:	8b 45 f0             	mov    -0x10(%ebp),%eax
  10702d:	8d 65 f4             	lea    -0xc(%ebp),%esp
  107030:	5b                   	pop    %ebx
  107031:	5e                   	pop    %esi
  107032:	5f                   	pop    %edi
  107033:	c9                   	leave  
  107034:	c3                   	ret    
  107035:	c7 45 f0 00 00 00 00 	movl   $0x0,-0x10(%ebp)
  10703c:	e8 43 f9 ff ff       	call   106984 <__sfp_lock_release>
  107041:	8b 45 f0             	mov    -0x10(%ebp),%eax
  107044:	8d 65 f4             	lea    -0xc(%ebp),%esp
  107047:	5b                   	pop    %ebx
  107048:	5e                   	pop    %esi
  107049:	5f                   	pop    %edi
  10704a:	c9                   	leave  
  10704b:	c3                   	ret    

0010704c <__smakebuf>:
  10704c:	55                   	push   %ebp
  10704d:	89 e5                	mov    %esp,%ebp
  10704f:	57                   	push   %edi
  107050:	56                   	push   %esi
  107051:	53                   	push   %ebx
  107052:	83 ec 4c             	sub    $0x4c,%esp
  107055:	8b 75 08             	mov    0x8(%ebp),%esi
  107058:	8b 56 0c             	mov    0xc(%esi),%edx
  10705b:	0f bf c2             	movswl %dx,%eax
  10705e:	a8 02                	test   $0x2,%al
  107060:	75 5a                	jne    1070bc <__smakebuf+0x70>
  107062:	66 8b 4e 0e          	mov    0xe(%esi),%cx
  107066:	66 85 c9             	test   %cx,%cx
  107069:	78 71                	js     1070dc <__smakebuf+0x90>
  10706b:	50                   	push   %eax
  10706c:	8d 45 b8             	lea    -0x48(%ebp),%eax
  10706f:	50                   	push   %eax
  107070:	0f bf c1             	movswl %cx,%eax
  107073:	50                   	push   %eax
  107074:	ff 35 e0 91 10 00    	pushl  0x1091e0
  10707a:	e8 69 0d 00 00       	call   107de8 <_fstat_r>
  10707f:	83 c4 10             	add    $0x10,%esp
  107082:	85 c0                	test   %eax,%eax
  107084:	78 4d                	js     1070d3 <__smakebuf+0x87>
  107086:	8b 55 bc             	mov    -0x44(%ebp),%edx
  107089:	81 e2 00 f0 00 00    	and    $0xf000,%edx
  10708f:	81 fa 00 20 00 00    	cmp    $0x2000,%edx
  107095:	0f 94 c0             	sete   %al
  107098:	0f b6 f8             	movzbl %al,%edi
  10709b:	81 fa 00 80 00 00    	cmp    $0x8000,%edx
  1070a1:	0f 84 a5 00 00 00    	je     10714c <__smakebuf+0x100>
  1070a7:	66 81 4e 0c 00 08    	orw    $0x800,0xc(%esi)
  1070ad:	bb 00 04 00 00       	mov    $0x400,%ebx
  1070b2:	eb 41                	jmp    1070f5 <__smakebuf+0xa9>
  1070b4:	66 83 4e 0c 02       	orw    $0x2,0xc(%esi)
  1070b9:	8d 76 00             	lea    0x0(%esi),%esi
  1070bc:	8d 46 43             	lea    0x43(%esi),%eax
  1070bf:	89 06                	mov    %eax,(%esi)
  1070c1:	89 46 10             	mov    %eax,0x10(%esi)
  1070c4:	c7 46 14 01 00 00 00 	movl   $0x1,0x14(%esi)
  1070cb:	8d 65 f4             	lea    -0xc(%ebp),%esp
  1070ce:	5b                   	pop    %ebx
  1070cf:	5e                   	pop    %esi
  1070d0:	5f                   	pop    %edi
  1070d1:	c9                   	leave  
  1070d2:	c3                   	ret    
  1070d3:	8b 56 0c             	mov    0xc(%esi),%edx
  1070d6:	0f bf c2             	movswl %dx,%eax
  1070d9:	8d 76 00             	lea    0x0(%esi),%esi
  1070dc:	83 e0 80             	and    $0xffffff80,%eax
  1070df:	3c 01                	cmp    $0x1,%al
  1070e1:	19 db                	sbb    %ebx,%ebx
  1070e3:	81 e3 c0 03 00 00    	and    $0x3c0,%ebx
  1070e9:	83 c3 40             	add    $0x40,%ebx
  1070ec:	80 ce 08             	or     $0x8,%dh
  1070ef:	66 89 56 0c          	mov    %dx,0xc(%esi)
  1070f3:	31 ff                	xor    %edi,%edi
  1070f5:	83 ec 08             	sub    $0x8,%esp
  1070f8:	53                   	push   %ebx
  1070f9:	ff 35 e0 91 10 00    	pushl  0x1091e0
  1070ff:	e8 6c 00 00 00       	call   107170 <_malloc_r>
  107104:	89 c2                	mov    %eax,%edx
  107106:	83 c4 10             	add    $0x10,%esp
  107109:	85 c0                	test   %eax,%eax
  10710b:	74 a7                	je     1070b4 <__smakebuf+0x68>
  10710d:	a1 e0 91 10 00       	mov    0x1091e0,%eax
  107112:	c7 40 3c 64 6a 10 00 	movl   $0x106a64,0x3c(%eax)
  107119:	66 81 4e 0c 80 00    	orw    $0x80,0xc(%esi)
  10711f:	89 16                	mov    %edx,(%esi)
  107121:	89 56 10             	mov    %edx,0x10(%esi)
  107124:	89 5e 14             	mov    %ebx,0x14(%esi)
  107127:	85 ff                	test   %edi,%edi
  107129:	74 a0                	je     1070cb <__smakebuf+0x7f>
  10712b:	83 ec 0c             	sub    $0xc,%esp
  10712e:	0f bf 46 0e          	movswl 0xe(%esi),%eax
  107132:	50                   	push   %eax
  107133:	e8 a0 09 00 00       	call   107ad8 <isatty>
  107138:	83 c4 10             	add    $0x10,%esp
  10713b:	85 c0                	test   %eax,%eax
  10713d:	74 8c                	je     1070cb <__smakebuf+0x7f>
  10713f:	66 83 4e 0c 01       	orw    $0x1,0xc(%esi)
  107144:	8d 65 f4             	lea    -0xc(%ebp),%esp
  107147:	5b                   	pop    %ebx
  107148:	5e                   	pop    %esi
  107149:	5f                   	pop    %edi
  10714a:	c9                   	leave  
  10714b:	c3                   	ret    
  10714c:	81 7e 28 58 79 10 00 	cmpl   $0x107958,0x28(%esi)
  107153:	0f 85 4e ff ff ff    	jne    1070a7 <__smakebuf+0x5b>
  107159:	66 81 4e 0c 00 04    	orw    $0x400,0xc(%esi)
  10715f:	c7 46 4c 00 04 00 00 	movl   $0x400,0x4c(%esi)
  107166:	bb 00 04 00 00       	mov    $0x400,%ebx
  10716b:	eb 88                	jmp    1070f5 <__smakebuf+0xa9>
  10716d:	00 00                	add    %al,(%eax)
	...

00107170 <_malloc_r>:
  107170:	55                   	push   %ebp
  107171:	89 e5                	mov    %esp,%ebp
  107173:	57                   	push   %edi
  107174:	56                   	push   %esi
  107175:	53                   	push   %ebx
  107176:	83 ec 2c             	sub    $0x2c,%esp
  107179:	8b 55 0c             	mov    0xc(%ebp),%edx
  10717c:	8d 42 0b             	lea    0xb(%edx),%eax
  10717f:	83 f8 16             	cmp    $0x16,%eax
  107182:	77 1c                	ja     1071a0 <_malloc_r+0x30>
  107184:	bf 10 00 00 00       	mov    $0x10,%edi
  107189:	39 fa                	cmp    %edi,%edx
  10718b:	76 1e                	jbe    1071ab <_malloc_r+0x3b>
  10718d:	8b 45 08             	mov    0x8(%ebp),%eax
  107190:	c7 00 0c 00 00 00    	movl   $0xc,(%eax)
  107196:	31 c0                	xor    %eax,%eax
  107198:	8d 65 f4             	lea    -0xc(%ebp),%esp
  10719b:	5b                   	pop    %ebx
  10719c:	5e                   	pop    %esi
  10719d:	5f                   	pop    %edi
  10719e:	c9                   	leave  
  10719f:	c3                   	ret    
  1071a0:	89 c7                	mov    %eax,%edi
  1071a2:	83 e7 f8             	and    $0xfffffff8,%edi
  1071a5:	78 e6                	js     10718d <_malloc_r+0x1d>
  1071a7:	39 fa                	cmp    %edi,%edx
  1071a9:	77 e2                	ja     10718d <_malloc_r+0x1d>
  1071ab:	83 ec 0c             	sub    $0xc,%esp
  1071ae:	ff 75 08             	pushl  0x8(%ebp)
  1071b1:	e8 3e 07 00 00       	call   1078f4 <__malloc_lock>
  1071b6:	83 c4 10             	add    $0x10,%esp
  1071b9:	81 ff f7 01 00 00    	cmp    $0x1f7,%edi
  1071bf:	0f 86 a9 00 00 00    	jbe    10726e <_malloc_r+0xfe>
  1071c5:	89 f8                	mov    %edi,%eax
  1071c7:	c1 e8 09             	shr    $0x9,%eax
  1071ca:	0f 85 e5 00 00 00    	jne    1072b5 <_malloc_r+0x145>
  1071d0:	89 fe                	mov    %edi,%esi
  1071d2:	c1 ee 03             	shr    $0x3,%esi
  1071d5:	8d 56 01             	lea    0x1(%esi),%edx
  1071d8:	89 55 f0             	mov    %edx,-0x10(%ebp)
  1071db:	89 d0                	mov    %edx,%eax
  1071dd:	c1 e0 03             	shl    $0x3,%eax
  1071e0:	8d 90 f8 95 10 00    	lea    0x1095f8(%eax),%edx
  1071e6:	8b 5a 0c             	mov    0xc(%edx),%ebx
  1071e9:	39 da                	cmp    %ebx,%edx
  1071eb:	75 12                	jne    1071ff <_malloc_r+0x8f>
  1071ed:	eb 22                	jmp    107211 <_malloc_r+0xa1>
  1071ef:	90                   	nop    
  1071f0:	85 c0                	test   %eax,%eax
  1071f2:	0f 89 93 00 00 00    	jns    10728b <_malloc_r+0x11b>
  1071f8:	8b 5b 0c             	mov    0xc(%ebx),%ebx
  1071fb:	39 da                	cmp    %ebx,%edx
  1071fd:	74 12                	je     107211 <_malloc_r+0xa1>
  1071ff:	8b 4b 04             	mov    0x4(%ebx),%ecx
  107202:	83 e1 fc             	and    $0xfffffffc,%ecx
  107205:	89 c8                	mov    %ecx,%eax
  107207:	29 f8                	sub    %edi,%eax
  107209:	83 f8 0f             	cmp    $0xf,%eax
  10720c:	7e e2                	jle    1071f0 <_malloc_r+0x80>
  10720e:	89 75 f0             	mov    %esi,-0x10(%ebp)
  107211:	8b 35 10 96 10 00    	mov    0x109610,%esi
  107217:	b9 08 96 10 00       	mov    $0x109608,%ecx
  10721c:	39 f1                	cmp    %esi,%ecx
  10721e:	0f 84 fd 00 00 00    	je     107321 <_malloc_r+0x1b1>
  107224:	8b 56 04             	mov    0x4(%esi),%edx
  107227:	83 e2 fc             	and    $0xfffffffc,%edx
  10722a:	89 d1                	mov    %edx,%ecx
  10722c:	29 f9                	sub    %edi,%ecx
  10722e:	83 f9 0f             	cmp    $0xf,%ecx
  107231:	0f 8f d3 01 00 00    	jg     10740a <_malloc_r+0x29a>
  107237:	c7 05 14 96 10 00 08 	movl   $0x109608,0x109614
  10723e:	96 10 00 
  107241:	c7 05 10 96 10 00 08 	movl   $0x109608,0x109610
  107248:	96 10 00 
  10724b:	85 c9                	test   %ecx,%ecx
  10724d:	0f 88 97 00 00 00    	js     1072ea <_malloc_r+0x17a>
  107253:	83 4c 32 04 01       	orl    $0x1,0x4(%edx,%esi,1)
  107258:	83 ec 0c             	sub    $0xc,%esp
  10725b:	ff 75 08             	pushl  0x8(%ebp)
  10725e:	e8 99 06 00 00       	call   1078fc <__malloc_unlock>
  107263:	8d 46 08             	lea    0x8(%esi),%eax
  107266:	83 c4 10             	add    $0x10,%esp
  107269:	e9 2a ff ff ff       	jmp    107198 <_malloc_r+0x28>
  10726e:	89 fa                	mov    %edi,%edx
  107270:	c1 ea 03             	shr    $0x3,%edx
  107273:	8d 04 d5 00 96 10 00 	lea    0x109600(,%edx,8),%eax
  10727a:	8b 58 0c             	mov    0xc(%eax),%ebx
  10727d:	39 c3                	cmp    %eax,%ebx
  10727f:	0f 84 6c 01 00 00    	je     1073f1 <_malloc_r+0x281>
  107285:	8b 4b 04             	mov    0x4(%ebx),%ecx
  107288:	83 e1 fc             	and    $0xfffffffc,%ecx
  10728b:	8b 53 0c             	mov    0xc(%ebx),%edx
  10728e:	8b 43 08             	mov    0x8(%ebx),%eax
  107291:	89 50 0c             	mov    %edx,0xc(%eax)
  107294:	89 42 08             	mov    %eax,0x8(%edx)
  107297:	83 4c 19 04 01       	orl    $0x1,0x4(%ecx,%ebx,1)
  10729c:	83 ec 0c             	sub    $0xc,%esp
  10729f:	ff 75 08             	pushl  0x8(%ebp)
  1072a2:	e8 55 06 00 00       	call   1078fc <__malloc_unlock>
  1072a7:	8d 43 08             	lea    0x8(%ebx),%eax
  1072aa:	83 c4 10             	add    $0x10,%esp
  1072ad:	8d 65 f4             	lea    -0xc(%ebp),%esp
  1072b0:	5b                   	pop    %ebx
  1072b1:	5e                   	pop    %esi
  1072b2:	5f                   	pop    %edi
  1072b3:	c9                   	leave  
  1072b4:	c3                   	ret    
  1072b5:	83 f8 04             	cmp    $0x4,%eax
  1072b8:	76 1a                	jbe    1072d4 <_malloc_r+0x164>
  1072ba:	83 f8 14             	cmp    $0x14,%eax
  1072bd:	0f 87 b1 01 00 00    	ja     107474 <_malloc_r+0x304>
  1072c3:	8d 70 5b             	lea    0x5b(%eax),%esi
  1072c6:	83 c0 5c             	add    $0x5c,%eax
  1072c9:	89 45 f0             	mov    %eax,-0x10(%ebp)
  1072cc:	c1 e0 03             	shl    $0x3,%eax
  1072cf:	e9 0c ff ff ff       	jmp    1071e0 <_malloc_r+0x70>
  1072d4:	89 f8                	mov    %edi,%eax
  1072d6:	c1 e8 06             	shr    $0x6,%eax
  1072d9:	8d 70 38             	lea    0x38(%eax),%esi
  1072dc:	83 c0 39             	add    $0x39,%eax
  1072df:	89 45 f0             	mov    %eax,-0x10(%ebp)
  1072e2:	c1 e0 03             	shl    $0x3,%eax
  1072e5:	e9 f6 fe ff ff       	jmp    1071e0 <_malloc_r+0x70>
  1072ea:	81 fa ff 01 00 00    	cmp    $0x1ff,%edx
  1072f0:	0f 87 22 02 00 00    	ja     107518 <_malloc_r+0x3a8>
  1072f6:	c1 ea 03             	shr    $0x3,%edx
  1072f9:	89 d1                	mov    %edx,%ecx
  1072fb:	c1 f9 02             	sar    $0x2,%ecx
  1072fe:	b8 01 00 00 00       	mov    $0x1,%eax
  107303:	d3 e0                	shl    %cl,%eax
  107305:	09 05 04 96 10 00    	or     %eax,0x109604
  10730b:	8d 14 d5 00 96 10 00 	lea    0x109600(,%edx,8),%edx
  107312:	8b 42 08             	mov    0x8(%edx),%eax
  107315:	89 56 0c             	mov    %edx,0xc(%esi)
  107318:	89 46 08             	mov    %eax,0x8(%esi)
  10731b:	89 72 08             	mov    %esi,0x8(%edx)
  10731e:	89 70 0c             	mov    %esi,0xc(%eax)
  107321:	8b 4d f0             	mov    -0x10(%ebp),%ecx
  107324:	85 c9                	test   %ecx,%ecx
  107326:	0f 88 67 02 00 00    	js     107593 <_malloc_r+0x423>
  10732c:	c1 f9 02             	sar    $0x2,%ecx
  10732f:	c7 45 e4 01 00 00 00 	movl   $0x1,-0x1c(%ebp)
  107336:	d3 65 e4             	shll   %cl,-0x1c(%ebp)
  107339:	a1 04 96 10 00       	mov    0x109604,%eax
  10733e:	89 45 d8             	mov    %eax,-0x28(%ebp)
  107341:	39 45 e4             	cmp    %eax,-0x1c(%ebp)
  107344:	0f 87 f3 00 00 00    	ja     10743d <_malloc_r+0x2cd>
  10734a:	85 45 e4             	test   %eax,-0x1c(%ebp)
  10734d:	75 26                	jne    107375 <_malloc_r+0x205>
  10734f:	8b 45 f0             	mov    -0x10(%ebp),%eax
  107352:	83 e0 fc             	and    $0xfffffffc,%eax
  107355:	83 c0 04             	add    $0x4,%eax
  107358:	89 45 f0             	mov    %eax,-0x10(%ebp)
  10735b:	d1 65 e4             	shll   -0x1c(%ebp)
  10735e:	8b 55 d8             	mov    -0x28(%ebp),%edx
  107361:	85 55 e4             	test   %edx,-0x1c(%ebp)
  107364:	75 0f                	jne    107375 <_malloc_r+0x205>
  107366:	83 45 f0 04          	addl   $0x4,-0x10(%ebp)
  10736a:	d1 65 e4             	shll   -0x1c(%ebp)
  10736d:	8b 4d d8             	mov    -0x28(%ebp),%ecx
  107370:	85 4d e4             	test   %ecx,-0x1c(%ebp)
  107373:	74 f1                	je     107366 <_malloc_r+0x1f6>
  107375:	8b 55 f0             	mov    -0x10(%ebp),%edx
  107378:	8d 04 d5 00 96 10 00 	lea    0x109600(,%edx,8),%eax
  10737f:	89 55 ec             	mov    %edx,-0x14(%ebp)
  107382:	89 c1                	mov    %eax,%ecx
  107384:	8b 71 0c             	mov    0xc(%ecx),%esi
  107387:	39 f1                	cmp    %esi,%ecx
  107389:	75 18                	jne    1073a3 <_malloc_r+0x233>
  10738b:	e9 d8 01 00 00       	jmp    107568 <_malloc_r+0x3f8>
  107390:	85 db                	test   %ebx,%ebx
  107392:	0f 89 e5 01 00 00    	jns    10757d <_malloc_r+0x40d>
  107398:	8b 76 0c             	mov    0xc(%esi),%esi
  10739b:	39 f1                	cmp    %esi,%ecx
  10739d:	0f 84 c5 01 00 00    	je     107568 <_malloc_r+0x3f8>
  1073a3:	8b 56 04             	mov    0x4(%esi),%edx
  1073a6:	83 e2 fc             	and    $0xfffffffc,%edx
  1073a9:	89 d3                	mov    %edx,%ebx
  1073ab:	29 fb                	sub    %edi,%ebx
  1073ad:	83 fb 0f             	cmp    $0xf,%ebx
  1073b0:	7e de                	jle    107390 <_malloc_r+0x220>
  1073b2:	8d 14 3e             	lea    (%esi,%edi,1),%edx
  1073b5:	83 cf 01             	or     $0x1,%edi
  1073b8:	89 7e 04             	mov    %edi,0x4(%esi)
  1073bb:	8b 4e 0c             	mov    0xc(%esi),%ecx
  1073be:	8b 46 08             	mov    0x8(%esi),%eax
  1073c1:	89 48 0c             	mov    %ecx,0xc(%eax)
  1073c4:	89 41 08             	mov    %eax,0x8(%ecx)
  1073c7:	89 15 14 96 10 00    	mov    %edx,0x109614
  1073cd:	89 15 10 96 10 00    	mov    %edx,0x109610
  1073d3:	c7 42 0c 08 96 10 00 	movl   $0x109608,0xc(%edx)
  1073da:	c7 42 08 08 96 10 00 	movl   $0x109608,0x8(%edx)
  1073e1:	89 d8                	mov    %ebx,%eax
  1073e3:	83 c8 01             	or     $0x1,%eax
  1073e6:	89 42 04             	mov    %eax,0x4(%edx)
  1073e9:	89 1c 1a             	mov    %ebx,(%edx,%ebx,1)
  1073ec:	e9 67 fe ff ff       	jmp    107258 <_malloc_r+0xe8>
  1073f1:	8d 43 08             	lea    0x8(%ebx),%eax
  1073f4:	8b 58 0c             	mov    0xc(%eax),%ebx
  1073f7:	39 d8                	cmp    %ebx,%eax
  1073f9:	0f 85 86 fe ff ff    	jne    107285 <_malloc_r+0x115>
  1073ff:	83 c2 02             	add    $0x2,%edx
  107402:	89 55 f0             	mov    %edx,-0x10(%ebp)
  107405:	e9 07 fe ff ff       	jmp    107211 <_malloc_r+0xa1>
  10740a:	8d 14 3e             	lea    (%esi,%edi,1),%edx
  10740d:	83 cf 01             	or     $0x1,%edi
  107410:	89 7e 04             	mov    %edi,0x4(%esi)
  107413:	89 15 14 96 10 00    	mov    %edx,0x109614
  107419:	89 15 10 96 10 00    	mov    %edx,0x109610
  10741f:	c7 42 0c 08 96 10 00 	movl   $0x109608,0xc(%edx)
  107426:	c7 42 08 08 96 10 00 	movl   $0x109608,0x8(%edx)
  10742d:	89 c8                	mov    %ecx,%eax
  10742f:	83 c8 01             	or     $0x1,%eax
  107432:	89 42 04             	mov    %eax,0x4(%edx)
  107435:	89 0c 0a             	mov    %ecx,(%edx,%ecx,1)
  107438:	e9 1b fe ff ff       	jmp    107258 <_malloc_r+0xe8>
  10743d:	8b 35 08 96 10 00    	mov    0x109608,%esi
  107443:	8b 46 04             	mov    0x4(%esi),%eax
  107446:	83 e0 fc             	and    $0xfffffffc,%eax
  107449:	89 45 dc             	mov    %eax,-0x24(%ebp)
  10744c:	39 f8                	cmp    %edi,%eax
  10744e:	72 43                	jb     107493 <_malloc_r+0x323>
  107450:	89 c2                	mov    %eax,%edx
  107452:	29 fa                	sub    %edi,%edx
  107454:	83 fa 0f             	cmp    $0xf,%edx
  107457:	7e 3a                	jle    107493 <_malloc_r+0x323>
  107459:	89 f8                	mov    %edi,%eax
  10745b:	83 c8 01             	or     $0x1,%eax
  10745e:	89 46 04             	mov    %eax,0x4(%esi)
  107461:	8d 04 3e             	lea    (%esi,%edi,1),%eax
  107464:	a3 08 96 10 00       	mov    %eax,0x109608
  107469:	83 ca 01             	or     $0x1,%edx
  10746c:	89 50 04             	mov    %edx,0x4(%eax)
  10746f:	e9 e4 fd ff ff       	jmp    107258 <_malloc_r+0xe8>
  107474:	83 f8 54             	cmp    $0x54,%eax
  107477:	0f 87 1e 01 00 00    	ja     10759b <_malloc_r+0x42b>
  10747d:	89 f8                	mov    %edi,%eax
  10747f:	c1 e8 0c             	shr    $0xc,%eax
  107482:	8d 70 6e             	lea    0x6e(%eax),%esi
  107485:	83 c0 6f             	add    $0x6f,%eax
  107488:	89 45 f0             	mov    %eax,-0x10(%ebp)
  10748b:	c1 e0 03             	shl    $0x3,%eax
  10748e:	e9 4d fd ff ff       	jmp    1071e0 <_malloc_r+0x70>
  107493:	a1 20 c0 10 00       	mov    0x10c020,%eax
  107498:	83 c0 10             	add    $0x10,%eax
  10749b:	8d 1c 38             	lea    (%eax,%edi,1),%ebx
  10749e:	83 3d 0c 9a 10 00 ff 	cmpl   $0xffffffff,0x109a0c
  1074a5:	74 0c                	je     1074b3 <_malloc_r+0x343>
  1074a7:	81 c3 ff 0f 00 00    	add    $0xfff,%ebx
  1074ad:	81 e3 00 f0 ff ff    	and    $0xfffff000,%ebx
  1074b3:	83 ec 08             	sub    $0x8,%esp
  1074b6:	53                   	push   %ebx
  1074b7:	ff 75 08             	pushl  0x8(%ebp)
  1074ba:	e8 45 04 00 00       	call   107904 <_sbrk_r>
  1074bf:	89 c2                	mov    %eax,%edx
  1074c1:	83 c4 10             	add    $0x10,%esp
  1074c4:	83 f8 ff             	cmp    $0xffffffff,%eax
  1074c7:	74 1d                	je     1074e6 <_malloc_r+0x376>
  1074c9:	8b 4d dc             	mov    -0x24(%ebp),%ecx
  1074cc:	8d 04 0e             	lea    (%esi,%ecx,1),%eax
  1074cf:	89 55 e8             	mov    %edx,-0x18(%ebp)
  1074d2:	39 d0                	cmp    %edx,%eax
  1074d4:	0f 86 e2 00 00 00    	jbe    1075bc <_malloc_r+0x44c>
  1074da:	81 fe 00 96 10 00    	cmp    $0x109600,%esi
  1074e0:	0f 84 31 03 00 00    	je     107817 <_malloc_r+0x6a7>
  1074e6:	8b 35 08 96 10 00    	mov    0x109608,%esi
  1074ec:	8b 46 04             	mov    0x4(%esi),%eax
  1074ef:	83 e0 fc             	and    $0xfffffffc,%eax
  1074f2:	39 f8                	cmp    %edi,%eax
  1074f4:	72 0d                	jb     107503 <_malloc_r+0x393>
  1074f6:	89 c2                	mov    %eax,%edx
  1074f8:	29 fa                	sub    %edi,%edx
  1074fa:	83 fa 0f             	cmp    $0xf,%edx
  1074fd:	0f 8f 56 ff ff ff    	jg     107459 <_malloc_r+0x2e9>
  107503:	83 ec 0c             	sub    $0xc,%esp
  107506:	ff 75 08             	pushl  0x8(%ebp)
  107509:	e8 ee 03 00 00       	call   1078fc <__malloc_unlock>
  10750e:	31 c0                	xor    %eax,%eax
  107510:	83 c4 10             	add    $0x10,%esp
  107513:	e9 80 fc ff ff       	jmp    107198 <_malloc_r+0x28>
  107518:	89 d0                	mov    %edx,%eax
  10751a:	c1 e8 09             	shr    $0x9,%eax
  10751d:	0f 85 3e 01 00 00    	jne    107661 <_malloc_r+0x4f1>
  107523:	89 d0                	mov    %edx,%eax
  107525:	c1 e8 03             	shr    $0x3,%eax
  107528:	89 45 e0             	mov    %eax,-0x20(%ebp)
  10752b:	8d 04 c5 08 00 00 00 	lea    0x8(,%eax,8),%eax
  107532:	8d 88 f8 95 10 00    	lea    0x1095f8(%eax),%ecx
  107538:	8b 59 08             	mov    0x8(%ecx),%ebx
  10753b:	39 cb                	cmp    %ecx,%ebx
  10753d:	0f 84 fe 01 00 00    	je     107741 <_malloc_r+0x5d1>
  107543:	8b 43 04             	mov    0x4(%ebx),%eax
  107546:	83 e0 fc             	and    $0xfffffffc,%eax
  107549:	39 c2                	cmp    %eax,%edx
  10754b:	73 07                	jae    107554 <_malloc_r+0x3e4>
  10754d:	8b 5b 08             	mov    0x8(%ebx),%ebx
  107550:	39 d9                	cmp    %ebx,%ecx
  107552:	75 ef                	jne    107543 <_malloc_r+0x3d3>
  107554:	8b 43 0c             	mov    0xc(%ebx),%eax
  107557:	89 46 0c             	mov    %eax,0xc(%esi)
  10755a:	89 5e 08             	mov    %ebx,0x8(%esi)
  10755d:	89 70 08             	mov    %esi,0x8(%eax)
  107560:	89 73 0c             	mov    %esi,0xc(%ebx)
  107563:	e9 b9 fd ff ff       	jmp    107321 <_malloc_r+0x1b1>
  107568:	ff 45 ec             	incl   -0x14(%ebp)
  10756b:	f6 45 ec 03          	testb  $0x3,-0x14(%ebp)
  10756f:	0f 84 35 02 00 00    	je     1077aa <_malloc_r+0x63a>
  107575:	83 c1 08             	add    $0x8,%ecx
  107578:	e9 07 fe ff ff       	jmp    107384 <_malloc_r+0x214>
  10757d:	83 4c 32 04 01       	orl    $0x1,0x4(%edx,%esi,1)
  107582:	8b 56 0c             	mov    0xc(%esi),%edx
  107585:	8b 46 08             	mov    0x8(%esi),%eax
  107588:	89 50 0c             	mov    %edx,0xc(%eax)
  10758b:	89 42 08             	mov    %eax,0x8(%edx)
  10758e:	e9 c5 fc ff ff       	jmp    107258 <_malloc_r+0xe8>
  107593:	83 c1 03             	add    $0x3,%ecx
  107596:	e9 91 fd ff ff       	jmp    10732c <_malloc_r+0x1bc>
  10759b:	3d 54 01 00 00       	cmp    $0x154,%eax
  1075a0:	0f 87 db 00 00 00    	ja     107681 <_malloc_r+0x511>
  1075a6:	89 f8                	mov    %edi,%eax
  1075a8:	c1 e8 0f             	shr    $0xf,%eax
  1075ab:	8d 70 77             	lea    0x77(%eax),%esi
  1075ae:	83 c0 78             	add    $0x78,%eax
  1075b1:	89 45 f0             	mov    %eax,-0x10(%ebp)
  1075b4:	c1 e0 03             	shl    $0x3,%eax
  1075b7:	e9 24 fc ff ff       	jmp    1071e0 <_malloc_r+0x70>
  1075bc:	8b 0d 40 c0 10 00    	mov    0x10c040,%ecx
  1075c2:	01 d9                	add    %ebx,%ecx
  1075c4:	89 4d d4             	mov    %ecx,-0x2c(%ebp)
  1075c7:	89 0d 40 c0 10 00    	mov    %ecx,0x10c040
  1075cd:	39 45 e8             	cmp    %eax,-0x18(%ebp)
  1075d0:	0f 84 1d 02 00 00    	je     1077f3 <_malloc_r+0x683>
  1075d6:	83 3d 0c 9a 10 00 ff 	cmpl   $0xffffffff,0x109a0c
  1075dd:	0f 84 bc 01 00 00    	je     10779f <_malloc_r+0x62f>
  1075e3:	89 d1                	mov    %edx,%ecx
  1075e5:	29 c1                	sub    %eax,%ecx
  1075e7:	89 c8                	mov    %ecx,%eax
  1075e9:	03 45 d4             	add    -0x2c(%ebp),%eax
  1075ec:	a3 40 c0 10 00       	mov    %eax,0x10c040
  1075f1:	89 d1                	mov    %edx,%ecx
  1075f3:	83 e1 07             	and    $0x7,%ecx
  1075f6:	0f 85 a6 00 00 00    	jne    1076a2 <_malloc_r+0x532>
  1075fc:	ba 00 10 00 00       	mov    $0x1000,%edx
  107601:	8b 45 e8             	mov    -0x18(%ebp),%eax
  107604:	01 d8                	add    %ebx,%eax
  107606:	25 ff 0f 00 00       	and    $0xfff,%eax
  10760b:	89 d3                	mov    %edx,%ebx
  10760d:	29 c3                	sub    %eax,%ebx
  10760f:	83 ec 08             	sub    $0x8,%esp
  107612:	53                   	push   %ebx
  107613:	ff 75 08             	pushl  0x8(%ebp)
  107616:	e8 e9 02 00 00       	call   107904 <_sbrk_r>
  10761b:	83 c4 10             	add    $0x10,%esp
  10761e:	83 f8 ff             	cmp    $0xffffffff,%eax
  107621:	0f 84 6c 01 00 00    	je     107793 <_malloc_r+0x623>
  107627:	2b 45 e8             	sub    -0x18(%ebp),%eax
  10762a:	01 d8                	add    %ebx,%eax
  10762c:	83 c8 01             	or     $0x1,%eax
  10762f:	01 1d 40 c0 10 00    	add    %ebx,0x10c040
  107635:	8b 55 e8             	mov    -0x18(%ebp),%edx
  107638:	89 15 08 96 10 00    	mov    %edx,0x109608
  10763e:	89 42 04             	mov    %eax,0x4(%edx)
  107641:	81 fe 00 96 10 00    	cmp    $0x109600,%esi
  107647:	74 70                	je     1076b9 <_malloc_r+0x549>
  107649:	83 7d dc 0f          	cmpl   $0xf,-0x24(%ebp)
  10764d:	0f 87 94 00 00 00    	ja     1076e7 <_malloc_r+0x577>
  107653:	c7 42 04 01 00 00 00 	movl   $0x1,0x4(%edx)
  10765a:	89 d6                	mov    %edx,%esi
  10765c:	e9 8b fe ff ff       	jmp    1074ec <_malloc_r+0x37c>
  107661:	83 f8 04             	cmp    $0x4,%eax
  107664:	0f 87 c0 00 00 00    	ja     10772a <_malloc_r+0x5ba>
  10766a:	89 d0                	mov    %edx,%eax
  10766c:	c1 e8 06             	shr    $0x6,%eax
  10766f:	8d 48 38             	lea    0x38(%eax),%ecx
  107672:	89 4d e0             	mov    %ecx,-0x20(%ebp)
  107675:	8d 04 c5 c8 01 00 00 	lea    0x1c8(,%eax,8),%eax
  10767c:	e9 b1 fe ff ff       	jmp    107532 <_malloc_r+0x3c2>
  107681:	3d 54 05 00 00       	cmp    $0x554,%eax
  107686:	0f 86 d1 00 00 00    	jbe    10775d <_malloc_r+0x5ed>
  10768c:	be 7e 00 00 00       	mov    $0x7e,%esi
  107691:	c7 45 f0 7f 00 00 00 	movl   $0x7f,-0x10(%ebp)
  107698:	b8 f8 03 00 00       	mov    $0x3f8,%eax
  10769d:	e9 3e fb ff ff       	jmp    1071e0 <_malloc_r+0x70>
  1076a2:	b8 08 00 00 00       	mov    $0x8,%eax
  1076a7:	29 c8                	sub    %ecx,%eax
  1076a9:	01 c2                	add    %eax,%edx
  1076ab:	89 55 e8             	mov    %edx,-0x18(%ebp)
  1076ae:	8d 90 00 10 00 00    	lea    0x1000(%eax),%edx
  1076b4:	e9 48 ff ff ff       	jmp    107601 <_malloc_r+0x491>
  1076b9:	8b 35 08 96 10 00    	mov    0x109608,%esi
  1076bf:	a1 40 c0 10 00       	mov    0x10c040,%eax
  1076c4:	3b 05 24 c0 10 00    	cmp    0x10c024,%eax
  1076ca:	76 05                	jbe    1076d1 <_malloc_r+0x561>
  1076cc:	a3 24 c0 10 00       	mov    %eax,0x10c024
  1076d1:	3b 05 28 c0 10 00    	cmp    0x10c028,%eax
  1076d7:	0f 86 0f fe ff ff    	jbe    1074ec <_malloc_r+0x37c>
  1076dd:	a3 28 c0 10 00       	mov    %eax,0x10c028
  1076e2:	e9 05 fe ff ff       	jmp    1074ec <_malloc_r+0x37c>
  1076e7:	8b 55 dc             	mov    -0x24(%ebp),%edx
  1076ea:	83 ea 0c             	sub    $0xc,%edx
  1076ed:	83 e2 f8             	and    $0xfffffff8,%edx
  1076f0:	c7 44 16 04 05 00 00 	movl   $0x5,0x4(%esi,%edx,1)
  1076f7:	00 
  1076f8:	c7 44 32 08 05 00 00 	movl   $0x5,0x8(%edx,%esi,1)
  1076ff:	00 
  107700:	8b 46 04             	mov    0x4(%esi),%eax
  107703:	83 e0 01             	and    $0x1,%eax
  107706:	09 d0                	or     %edx,%eax
  107708:	89 46 04             	mov    %eax,0x4(%esi)
  10770b:	83 fa 0f             	cmp    $0xf,%edx
  10770e:	76 a9                	jbe    1076b9 <_malloc_r+0x549>
  107710:	83 ec 08             	sub    $0x8,%esp
  107713:	8d 46 08             	lea    0x8(%esi),%eax
  107716:	50                   	push   %eax
  107717:	ff 75 08             	pushl  0x8(%ebp)
  10771a:	e8 85 f5 ff ff       	call   106ca4 <_free_r>
  10771f:	83 c4 10             	add    $0x10,%esp
  107722:	8b 35 08 96 10 00    	mov    0x109608,%esi
  107728:	eb 95                	jmp    1076bf <_malloc_r+0x54f>
  10772a:	83 f8 14             	cmp    $0x14,%eax
  10772d:	77 44                	ja     107773 <_malloc_r+0x603>
  10772f:	8d 48 5b             	lea    0x5b(%eax),%ecx
  107732:	89 4d e0             	mov    %ecx,-0x20(%ebp)
  107735:	8d 04 c5 e0 02 00 00 	lea    0x2e0(,%eax,8),%eax
  10773c:	e9 f1 fd ff ff       	jmp    107532 <_malloc_r+0x3c2>
  107741:	ba 00 96 10 00       	mov    $0x109600,%edx
  107746:	8b 4d e0             	mov    -0x20(%ebp),%ecx
  107749:	c1 f9 02             	sar    $0x2,%ecx
  10774c:	b8 01 00 00 00       	mov    $0x1,%eax
  107751:	d3 e0                	shl    %cl,%eax
  107753:	09 42 04             	or     %eax,0x4(%edx)
  107756:	89 d8                	mov    %ebx,%eax
  107758:	e9 fa fd ff ff       	jmp    107557 <_malloc_r+0x3e7>
  10775d:	89 f8                	mov    %edi,%eax
  10775f:	c1 e8 12             	shr    $0x12,%eax
  107762:	8d 70 7c             	lea    0x7c(%eax),%esi
  107765:	83 c0 7d             	add    $0x7d,%eax
  107768:	89 45 f0             	mov    %eax,-0x10(%ebp)
  10776b:	c1 e0 03             	shl    $0x3,%eax
  10776e:	e9 6d fa ff ff       	jmp    1071e0 <_malloc_r+0x70>
  107773:	83 f8 54             	cmp    $0x54,%eax
  107776:	0f 87 b1 00 00 00    	ja     10782d <_malloc_r+0x6bd>
  10777c:	89 d0                	mov    %edx,%eax
  10777e:	c1 e8 0c             	shr    $0xc,%eax
  107781:	8d 48 6e             	lea    0x6e(%eax),%ecx
  107784:	89 4d e0             	mov    %ecx,-0x20(%ebp)
  107787:	8d 04 c5 78 03 00 00 	lea    0x378(,%eax,8),%eax
  10778e:	e9 9f fd ff ff       	jmp    107532 <_malloc_r+0x3c2>
  107793:	31 db                	xor    %ebx,%ebx
  107795:	b8 01 00 00 00       	mov    $0x1,%eax
  10779a:	e9 90 fe ff ff       	jmp    10762f <_malloc_r+0x4bf>
  10779f:	89 15 0c 9a 10 00    	mov    %edx,0x109a0c
  1077a5:	e9 47 fe ff ff       	jmp    1075f1 <_malloc_r+0x481>
  1077aa:	8b 4d f0             	mov    -0x10(%ebp),%ecx
  1077ad:	89 c2                	mov    %eax,%edx
  1077af:	eb 01                	jmp    1077b2 <_malloc_r+0x642>
  1077b1:	49                   	dec    %ecx
  1077b2:	f6 c1 03             	test   $0x3,%cl
  1077b5:	0f 84 90 00 00 00    	je     10784b <_malloc_r+0x6db>
  1077bb:	8d 42 f8             	lea    -0x8(%edx),%eax
  1077be:	8b 50 08             	mov    0x8(%eax),%edx
  1077c1:	39 c2                	cmp    %eax,%edx
  1077c3:	74 ec                	je     1077b1 <_malloc_r+0x641>
  1077c5:	d1 65 e4             	shll   -0x1c(%ebp)
  1077c8:	8b 45 d8             	mov    -0x28(%ebp),%eax
  1077cb:	39 45 e4             	cmp    %eax,-0x1c(%ebp)
  1077ce:	0f 87 69 fc ff ff    	ja     10743d <_malloc_r+0x2cd>
  1077d4:	8b 55 e4             	mov    -0x1c(%ebp),%edx
  1077d7:	85 d2                	test   %edx,%edx
  1077d9:	0f 84 5e fc ff ff    	je     10743d <_malloc_r+0x2cd>
  1077df:	85 45 e4             	test   %eax,-0x1c(%ebp)
  1077e2:	0f 84 94 00 00 00    	je     10787c <_malloc_r+0x70c>
  1077e8:	8b 4d ec             	mov    -0x14(%ebp),%ecx
  1077eb:	89 4d f0             	mov    %ecx,-0x10(%ebp)
  1077ee:	e9 82 fb ff ff       	jmp    107375 <_malloc_r+0x205>
  1077f3:	f7 45 e8 ff 0f 00 00 	testl  $0xfff,-0x18(%ebp)
  1077fa:	0f 85 d6 fd ff ff    	jne    1075d6 <_malloc_r+0x466>
  107800:	8b 35 08 96 10 00    	mov    0x109608,%esi
  107806:	8b 55 dc             	mov    -0x24(%ebp),%edx
  107809:	8d 04 13             	lea    (%ebx,%edx,1),%eax
  10780c:	83 c8 01             	or     $0x1,%eax
  10780f:	89 46 04             	mov    %eax,0x4(%esi)
  107812:	e9 a8 fe ff ff       	jmp    1076bf <_malloc_r+0x54f>
  107817:	8b 0d 40 c0 10 00    	mov    0x10c040,%ecx
  10781d:	01 d9                	add    %ebx,%ecx
  10781f:	89 4d d4             	mov    %ecx,-0x2c(%ebp)
  107822:	89 0d 40 c0 10 00    	mov    %ecx,0x10c040
  107828:	e9 a9 fd ff ff       	jmp    1075d6 <_malloc_r+0x466>
  10782d:	3d 54 01 00 00       	cmp    $0x154,%eax
  107832:	77 30                	ja     107864 <_malloc_r+0x6f4>
  107834:	89 d0                	mov    %edx,%eax
  107836:	c1 e8 0f             	shr    $0xf,%eax
  107839:	8d 48 77             	lea    0x77(%eax),%ecx
  10783c:	89 4d e0             	mov    %ecx,-0x20(%ebp)
  10783f:	8d 04 c5 c0 03 00 00 	lea    0x3c0(,%eax,8),%eax
  107846:	e9 e7 fc ff ff       	jmp    107532 <_malloc_r+0x3c2>
  10784b:	8b 45 e4             	mov    -0x1c(%ebp),%eax
  10784e:	f7 d0                	not    %eax
  107850:	21 05 04 96 10 00    	and    %eax,0x109604
  107856:	8b 0d 04 96 10 00    	mov    0x109604,%ecx
  10785c:	89 4d d8             	mov    %ecx,-0x28(%ebp)
  10785f:	e9 61 ff ff ff       	jmp    1077c5 <_malloc_r+0x655>
  107864:	3d 54 05 00 00       	cmp    $0x554,%eax
  107869:	76 29                	jbe    107894 <_malloc_r+0x724>
  10786b:	c7 45 e0 7e 00 00 00 	movl   $0x7e,-0x20(%ebp)
  107872:	b8 f8 03 00 00       	mov    $0x3f8,%eax
  107877:	e9 b6 fc ff ff       	jmp    107532 <_malloc_r+0x3c2>
  10787c:	83 45 ec 04          	addl   $0x4,-0x14(%ebp)
  107880:	d1 65 e4             	shll   -0x1c(%ebp)
  107883:	8b 55 d8             	mov    -0x28(%ebp),%edx
  107886:	85 55 e4             	test   %edx,-0x1c(%ebp)
  107889:	0f 85 59 ff ff ff    	jne    1077e8 <_malloc_r+0x678>
  10788f:	eb eb                	jmp    10787c <_malloc_r+0x70c>
  107891:	8d 76 00             	lea    0x0(%esi),%esi
  107894:	89 d0                	mov    %edx,%eax
  107896:	c1 e8 12             	shr    $0x12,%eax
  107899:	8d 48 7c             	lea    0x7c(%eax),%ecx
  10789c:	89 4d e0             	mov    %ecx,-0x20(%ebp)
  10789f:	8d 04 c5 e8 03 00 00 	lea    0x3e8(,%eax,8),%eax
  1078a6:	e9 87 fc ff ff       	jmp    107532 <_malloc_r+0x3c2>
	...

001078ac <memset>:
  1078ac:	55                   	push   %ebp
  1078ad:	89 e5                	mov    %esp,%ebp
  1078af:	57                   	push   %edi
  1078b0:	53                   	push   %ebx
  1078b1:	8b 7d 08             	mov    0x8(%ebp),%edi
  1078b4:	8b 45 0c             	mov    0xc(%ebp),%eax
  1078b7:	8b 4d 10             	mov    0x10(%ebp),%ecx
  1078ba:	fc                   	cld    
  1078bb:	25 ff 00 00 00       	and    $0xff,%eax
  1078c0:	89 cb                	mov    %ecx,%ebx
  1078c2:	f7 c7 03 00 00 00    	test   $0x3,%edi
  1078c8:	75 1d                	jne    1078e7 <memset+0x3b>
  1078ca:	83 f9 10             	cmp    $0x10,%ecx
  1078cd:	76 18                	jbe    1078e7 <memset+0x3b>
  1078cf:	89 c2                	mov    %eax,%edx
  1078d1:	c1 e0 08             	shl    $0x8,%eax
  1078d4:	09 d0                	or     %edx,%eax
  1078d6:	89 c2                	mov    %eax,%edx
  1078d8:	c1 e2 10             	shl    $0x10,%edx
  1078db:	09 d0                	or     %edx,%eax
  1078dd:	c1 e9 02             	shr    $0x2,%ecx
  1078e0:	83 e3 03             	and    $0x3,%ebx
  1078e3:	f3 ab                	rep stos %eax,%es:(%edi)
  1078e5:	89 d9                	mov    %ebx,%ecx
  1078e7:	f3 aa                	rep stos %al,%es:(%edi)
  1078e9:	8b 45 08             	mov    0x8(%ebp),%eax
  1078ec:	8d 65 f8             	lea    -0x8(%ebp),%esp
  1078ef:	5b                   	pop    %ebx
  1078f0:	5f                   	pop    %edi
  1078f1:	c9                   	leave  
  1078f2:	c3                   	ret    
	...

001078f4 <__malloc_lock>:
  1078f4:	55                   	push   %ebp
  1078f5:	89 e5                	mov    %esp,%ebp
  1078f7:	c9                   	leave  
  1078f8:	c3                   	ret    
  1078f9:	8d 76 00             	lea    0x0(%esi),%esi

001078fc <__malloc_unlock>:
  1078fc:	55                   	push   %ebp
  1078fd:	89 e5                	mov    %esp,%ebp
  1078ff:	c9                   	leave  
  107900:	c3                   	ret    
  107901:	00 00                	add    %al,(%eax)
	...

00107904 <_sbrk_r>:
  107904:	55                   	push   %ebp
  107905:	89 e5                	mov    %esp,%ebp
  107907:	83 ec 14             	sub    $0x14,%esp
  10790a:	c7 05 d8 d8 10 00 00 	movl   $0x0,0x10d8d8
  107911:	00 00 00 
  107914:	ff 75 0c             	pushl  0xc(%ebp)
  107917:	e8 64 02 00 00       	call   107b80 <sbrk>
  10791c:	83 c4 10             	add    $0x10,%esp
  10791f:	83 f8 ff             	cmp    $0xffffffff,%eax
  107922:	74 04                	je     107928 <_sbrk_r+0x24>
  107924:	c9                   	leave  
  107925:	c3                   	ret    
  107926:	66 90                	xchg   %ax,%ax
  107928:	8b 15 d8 d8 10 00    	mov    0x10d8d8,%edx
  10792e:	85 d2                	test   %edx,%edx
  107930:	74 f2                	je     107924 <_sbrk_r+0x20>
  107932:	8b 4d 08             	mov    0x8(%ebp),%ecx
  107935:	89 11                	mov    %edx,(%ecx)
  107937:	c9                   	leave  
  107938:	c3                   	ret    
  107939:	00 00                	add    %al,(%eax)
	...

0010793c <__sclose>:
  10793c:	55                   	push   %ebp
  10793d:	89 e5                	mov    %esp,%ebp
  10793f:	83 ec 10             	sub    $0x10,%esp
  107942:	8b 45 08             	mov    0x8(%ebp),%eax
  107945:	0f bf 40 0e          	movswl 0xe(%eax),%eax
  107949:	50                   	push   %eax
  10794a:	ff 35 e0 91 10 00    	pushl  0x1091e0
  107950:	e8 2f 03 00 00       	call   107c84 <_close_r>
  107955:	c9                   	leave  
  107956:	c3                   	ret    
  107957:	90                   	nop    

00107958 <__sseek>:
  107958:	55                   	push   %ebp
  107959:	89 e5                	mov    %esp,%ebp
  10795b:	53                   	push   %ebx
  10795c:	83 ec 04             	sub    $0x4,%esp
  10795f:	8b 5d 08             	mov    0x8(%ebp),%ebx
  107962:	ff 75 10             	pushl  0x10(%ebp)
  107965:	ff 75 0c             	pushl  0xc(%ebp)
  107968:	0f bf 43 0e          	movswl 0xe(%ebx),%eax
  10796c:	50                   	push   %eax
  10796d:	ff 35 e0 91 10 00    	pushl  0x1091e0
  107973:	e8 ac 04 00 00       	call   107e24 <_lseek_r>
  107978:	83 c4 10             	add    $0x10,%esp
  10797b:	83 f8 ff             	cmp    $0xffffffff,%eax
  10797e:	74 10                	je     107990 <__sseek+0x38>
  107980:	66 81 4b 0c 00 10    	orw    $0x1000,0xc(%ebx)
  107986:	89 43 50             	mov    %eax,0x50(%ebx)
  107989:	8b 5d fc             	mov    -0x4(%ebp),%ebx
  10798c:	c9                   	leave  
  10798d:	c3                   	ret    
  10798e:	66 90                	xchg   %ax,%ax
  107990:	66 81 63 0c ff ef    	andw   $0xefff,0xc(%ebx)
  107996:	8b 5d fc             	mov    -0x4(%ebp),%ebx
  107999:	c9                   	leave  
  10799a:	c3                   	ret    
  10799b:	90                   	nop    

0010799c <__swrite>:
  10799c:	55                   	push   %ebp
  10799d:	89 e5                	mov    %esp,%ebp
  10799f:	53                   	push   %ebx
  1079a0:	83 ec 04             	sub    $0x4,%esp
  1079a3:	8b 5d 08             	mov    0x8(%ebp),%ebx
  1079a6:	f6 43 0d 01          	testb  $0x1,0xd(%ebx)
  1079aa:	74 17                	je     1079c3 <__swrite+0x27>
  1079ac:	6a 02                	push   $0x2
  1079ae:	6a 00                	push   $0x0
  1079b0:	0f bf 43 0e          	movswl 0xe(%ebx),%eax
  1079b4:	50                   	push   %eax
  1079b5:	ff 35 e0 91 10 00    	pushl  0x1091e0
  1079bb:	e8 64 04 00 00       	call   107e24 <_lseek_r>
  1079c0:	83 c4 10             	add    $0x10,%esp
  1079c3:	66 81 63 0c ff ef    	andw   $0xefff,0xc(%ebx)
  1079c9:	ff 75 10             	pushl  0x10(%ebp)
  1079cc:	ff 75 0c             	pushl  0xc(%ebp)
  1079cf:	0f bf 43 0e          	movswl 0xe(%ebx),%eax
  1079d3:	50                   	push   %eax
  1079d4:	ff 35 e0 91 10 00    	pushl  0x1091e0
  1079da:	e8 69 02 00 00       	call   107c48 <_write_r>
  1079df:	8b 5d fc             	mov    -0x4(%ebp),%ebx
  1079e2:	c9                   	leave  
  1079e3:	c3                   	ret    

001079e4 <__sread>:
  1079e4:	55                   	push   %ebp
  1079e5:	89 e5                	mov    %esp,%ebp
  1079e7:	53                   	push   %ebx
  1079e8:	83 ec 04             	sub    $0x4,%esp
  1079eb:	8b 5d 08             	mov    0x8(%ebp),%ebx
  1079ee:	ff 75 10             	pushl  0x10(%ebp)
  1079f1:	ff 75 0c             	pushl  0xc(%ebp)
  1079f4:	0f bf 43 0e          	movswl 0xe(%ebx),%eax
  1079f8:	50                   	push   %eax
  1079f9:	ff 35 e0 91 10 00    	pushl  0x1091e0
  1079ff:	e8 5c 04 00 00       	call   107e60 <_read_r>
  107a04:	83 c4 10             	add    $0x10,%esp
  107a07:	85 c0                	test   %eax,%eax
  107a09:	78 09                	js     107a14 <__sread+0x30>
  107a0b:	01 43 50             	add    %eax,0x50(%ebx)
  107a0e:	8b 5d fc             	mov    -0x4(%ebp),%ebx
  107a11:	c9                   	leave  
  107a12:	c3                   	ret    
  107a13:	90                   	nop    
  107a14:	66 81 63 0c ff ef    	andw   $0xefff,0xc(%ebx)
  107a1a:	8b 5d fc             	mov    -0x4(%ebp),%ebx
  107a1d:	c9                   	leave  
  107a1e:	c3                   	ret    
	...

00107a20 <_exit>:
  107a20:	55                   	push   %ebp
  107a21:	89 e5                	mov    %esp,%ebp
  107a23:	53                   	push   %ebx
  107a24:	b8 03 00 00 00       	mov    $0x3,%eax
  107a29:	bb 0d 00 00 00       	mov    $0xd,%ebx
  107a2e:	cd 30                	int    $0x30
  107a30:	eb fe                	jmp    107a30 <_exit+0x10>
  107a32:	66 90                	xchg   %ax,%ax

00107a34 <close>:
  107a34:	55                   	push   %ebp
  107a35:	89 e5                	mov    %esp,%ebp
  107a37:	53                   	push   %ebx
  107a38:	b8 01 00 00 00       	mov    $0x1,%eax
  107a3d:	bb 0d 00 00 00       	mov    $0xd,%ebx
  107a42:	cd 30                	int    $0x30
  107a44:	c7 05 d8 d8 10 00 86 	movl   $0x86,0x10d8d8
  107a4b:	00 00 00 
  107a4e:	b8 ff ff ff ff       	mov    $0xffffffff,%eax
  107a53:	5b                   	pop    %ebx
  107a54:	c9                   	leave  
  107a55:	c3                   	ret    
  107a56:	66 90                	xchg   %ax,%ax

00107a58 <execve>:
  107a58:	55                   	push   %ebp
  107a59:	89 e5                	mov    %esp,%ebp
  107a5b:	53                   	push   %ebx
  107a5c:	b8 02 00 00 00       	mov    $0x2,%eax
  107a61:	bb 0d 00 00 00       	mov    $0xd,%ebx
  107a66:	cd 30                	int    $0x30
  107a68:	c7 05 d8 d8 10 00 0c 	movl   $0xc,0x10d8d8
  107a6f:	00 00 00 
  107a72:	b8 ff ff ff ff       	mov    $0xffffffff,%eax
  107a77:	5b                   	pop    %ebx
  107a78:	c9                   	leave  
  107a79:	c3                   	ret    
  107a7a:	66 90                	xchg   %ax,%ax

00107a7c <fork>:
  107a7c:	55                   	push   %ebp
  107a7d:	89 e5                	mov    %esp,%ebp
  107a7f:	53                   	push   %ebx
  107a80:	b8 04 00 00 00       	mov    $0x4,%eax
  107a85:	bb 0d 00 00 00       	mov    $0xd,%ebx
  107a8a:	cd 30                	int    $0x30
  107a8c:	c7 05 d8 d8 10 00 0b 	movl   $0xb,0x10d8d8
  107a93:	00 00 00 
  107a96:	b8 ff ff ff ff       	mov    $0xffffffff,%eax
  107a9b:	5b                   	pop    %ebx
  107a9c:	c9                   	leave  
  107a9d:	c3                   	ret    
  107a9e:	66 90                	xchg   %ax,%ax

00107aa0 <fstat>:
  107aa0:	55                   	push   %ebp
  107aa1:	89 e5                	mov    %esp,%ebp
  107aa3:	53                   	push   %ebx
  107aa4:	b8 05 00 00 00       	mov    $0x5,%eax
  107aa9:	bb 0d 00 00 00       	mov    $0xd,%ebx
  107aae:	cd 30                	int    $0x30
  107ab0:	8b 45 0c             	mov    0xc(%ebp),%eax
  107ab3:	c7 40 04 00 20 00 00 	movl   $0x2000,0x4(%eax)
  107aba:	31 c0                	xor    %eax,%eax
  107abc:	5b                   	pop    %ebx
  107abd:	c9                   	leave  
  107abe:	c3                   	ret    
  107abf:	90                   	nop    

00107ac0 <getpid>:
  107ac0:	55                   	push   %ebp
  107ac1:	89 e5                	mov    %esp,%ebp
  107ac3:	53                   	push   %ebx
  107ac4:	b8 06 00 00 00       	mov    $0x6,%eax
  107ac9:	bb 0d 00 00 00       	mov    $0xd,%ebx
  107ace:	cd 30                	int    $0x30
  107ad0:	b8 01 00 00 00       	mov    $0x1,%eax
  107ad5:	5b                   	pop    %ebx
  107ad6:	c9                   	leave  
  107ad7:	c3                   	ret    

00107ad8 <isatty>:
  107ad8:	55                   	push   %ebp
  107ad9:	89 e5                	mov    %esp,%ebp
  107adb:	53                   	push   %ebx
  107adc:	b8 07 00 00 00       	mov    $0x7,%eax
  107ae1:	bb 0d 00 00 00       	mov    $0xd,%ebx
  107ae6:	cd 30                	int    $0x30
  107ae8:	b8 01 00 00 00       	mov    $0x1,%eax
  107aed:	5b                   	pop    %ebx
  107aee:	c9                   	leave  
  107aef:	c3                   	ret    

00107af0 <kill>:
  107af0:	55                   	push   %ebp
  107af1:	89 e5                	mov    %esp,%ebp
  107af3:	53                   	push   %ebx
  107af4:	b8 08 00 00 00       	mov    $0x8,%eax
  107af9:	bb 0d 00 00 00       	mov    $0xd,%ebx
  107afe:	cd 30                	int    $0x30
  107b00:	c7 05 d8 d8 10 00 16 	movl   $0x16,0x10d8d8
  107b07:	00 00 00 
  107b0a:	b8 ff ff ff ff       	mov    $0xffffffff,%eax
  107b0f:	5b                   	pop    %ebx
  107b10:	c9                   	leave  
  107b11:	c3                   	ret    
  107b12:	66 90                	xchg   %ax,%ax

00107b14 <link>:
  107b14:	55                   	push   %ebp
  107b15:	89 e5                	mov    %esp,%ebp
  107b17:	53                   	push   %ebx
  107b18:	b8 09 00 00 00       	mov    $0x9,%eax
  107b1d:	bb 0d 00 00 00       	mov    $0xd,%ebx
  107b22:	cd 30                	int    $0x30
  107b24:	c7 05 d8 d8 10 00 1f 	movl   $0x1f,0x10d8d8
  107b2b:	00 00 00 
  107b2e:	b8 ff ff ff ff       	mov    $0xffffffff,%eax
  107b33:	5b                   	pop    %ebx
  107b34:	c9                   	leave  
  107b35:	c3                   	ret    
  107b36:	66 90                	xchg   %ax,%ax

00107b38 <lseek>:
  107b38:	55                   	push   %ebp
  107b39:	89 e5                	mov    %esp,%ebp
  107b3b:	53                   	push   %ebx
  107b3c:	b8 0a 00 00 00       	mov    $0xa,%eax
  107b41:	bb 0d 00 00 00       	mov    $0xd,%ebx
  107b46:	cd 30                	int    $0x30
  107b48:	31 c0                	xor    %eax,%eax
  107b4a:	5b                   	pop    %ebx
  107b4b:	c9                   	leave  
  107b4c:	c3                   	ret    
  107b4d:	8d 76 00             	lea    0x0(%esi),%esi

00107b50 <open>:
  107b50:	55                   	push   %ebp
  107b51:	89 e5                	mov    %esp,%ebp
  107b53:	53                   	push   %ebx
  107b54:	b8 0b 00 00 00       	mov    $0xb,%eax
  107b59:	bb 0d 00 00 00       	mov    $0xd,%ebx
  107b5e:	cd 30                	int    $0x30
  107b60:	b8 ff ff ff ff       	mov    $0xffffffff,%eax
  107b65:	5b                   	pop    %ebx
  107b66:	c9                   	leave  
  107b67:	c3                   	ret    

00107b68 <read>:
  107b68:	55                   	push   %ebp
  107b69:	89 e5                	mov    %esp,%ebp
  107b6b:	53                   	push   %ebx
  107b6c:	b8 0c 00 00 00       	mov    $0xc,%eax
  107b71:	bb 0d 00 00 00       	mov    $0xd,%ebx
  107b76:	cd 30                	int    $0x30
  107b78:	31 c0                	xor    %eax,%eax
  107b7a:	5b                   	pop    %ebx
  107b7b:	c9                   	leave  
  107b7c:	c3                   	ret    
  107b7d:	8d 76 00             	lea    0x0(%esi),%esi

00107b80 <sbrk>:
  107b80:	55                   	push   %ebp
  107b81:	89 e5                	mov    %esp,%ebp
  107b83:	53                   	push   %ebx
  107b84:	b8 0d 00 00 00       	mov    $0xd,%eax
  107b89:	bb 0d 00 00 00       	mov    $0xd,%ebx
  107b8e:	cd 30                	int    $0x30
  107b90:	c7 05 d8 d8 10 00 0c 	movl   $0xc,0x10d8d8
  107b97:	00 00 00 
  107b9a:	b8 ff ff ff ff       	mov    $0xffffffff,%eax
  107b9f:	5b                   	pop    %ebx
  107ba0:	c9                   	leave  
  107ba1:	c3                   	ret    
  107ba2:	66 90                	xchg   %ax,%ax

00107ba4 <stat>:
  107ba4:	55                   	push   %ebp
  107ba5:	89 e5                	mov    %esp,%ebp
  107ba7:	53                   	push   %ebx
  107ba8:	b8 0e 00 00 00       	mov    $0xe,%eax
  107bad:	bb 0d 00 00 00       	mov    $0xd,%ebx
  107bb2:	cd 30                	int    $0x30
  107bb4:	8b 45 0c             	mov    0xc(%ebp),%eax
  107bb7:	c7 40 04 00 20 00 00 	movl   $0x2000,0x4(%eax)
  107bbe:	31 c0                	xor    %eax,%eax
  107bc0:	5b                   	pop    %ebx
  107bc1:	c9                   	leave  
  107bc2:	c3                   	ret    
  107bc3:	90                   	nop    

00107bc4 <times>:
  107bc4:	55                   	push   %ebp
  107bc5:	89 e5                	mov    %esp,%ebp
  107bc7:	53                   	push   %ebx
  107bc8:	b8 10 00 00 00       	mov    $0x10,%eax
  107bcd:	bb 0d 00 00 00       	mov    $0xd,%ebx
  107bd2:	cd 30                	int    $0x30
  107bd4:	b8 ff ff ff ff       	mov    $0xffffffff,%eax
  107bd9:	5b                   	pop    %ebx
  107bda:	c9                   	leave  
  107bdb:	c3                   	ret    

00107bdc <unlink>:
  107bdc:	55                   	push   %ebp
  107bdd:	89 e5                	mov    %esp,%ebp
  107bdf:	53                   	push   %ebx
  107be0:	b8 11 00 00 00       	mov    $0x11,%eax
  107be5:	bb 0d 00 00 00       	mov    $0xd,%ebx
  107bea:	cd 30                	int    $0x30
  107bec:	c7 05 d8 d8 10 00 02 	movl   $0x2,0x10d8d8
  107bf3:	00 00 00 
  107bf6:	b8 ff ff ff ff       	mov    $0xffffffff,%eax
  107bfb:	5b                   	pop    %ebx
  107bfc:	c9                   	leave  
  107bfd:	c3                   	ret    
  107bfe:	66 90                	xchg   %ax,%ax

00107c00 <wait>:
  107c00:	55                   	push   %ebp
  107c01:	89 e5                	mov    %esp,%ebp
  107c03:	53                   	push   %ebx
  107c04:	b8 12 00 00 00       	mov    $0x12,%eax
  107c09:	bb 0d 00 00 00       	mov    $0xd,%ebx
  107c0e:	cd 30                	int    $0x30
  107c10:	c7 05 d8 d8 10 00 0a 	movl   $0xa,0x10d8d8
  107c17:	00 00 00 
  107c1a:	b8 ff ff ff ff       	mov    $0xffffffff,%eax
  107c1f:	5b                   	pop    %ebx
  107c20:	c9                   	leave  
  107c21:	c3                   	ret    
  107c22:	66 90                	xchg   %ax,%ax

00107c24 <write>:
  107c24:	55                   	push   %ebp
  107c25:	89 e5                	mov    %esp,%ebp
  107c27:	53                   	push   %ebx
  107c28:	b8 13 00 00 00       	mov    $0x13,%eax
  107c2d:	bb 0d 00 00 00       	mov    $0xd,%ebx
  107c32:	cd 30                	int    $0x30
  107c34:	c7 05 d8 d8 10 00 86 	movl   $0x86,0x10d8d8
  107c3b:	00 00 00 
  107c3e:	b8 ff ff ff ff       	mov    $0xffffffff,%eax
  107c43:	5b                   	pop    %ebx
  107c44:	c9                   	leave  
  107c45:	c3                   	ret    
	...

00107c48 <_write_r>:
  107c48:	55                   	push   %ebp
  107c49:	89 e5                	mov    %esp,%ebp
  107c4b:	83 ec 0c             	sub    $0xc,%esp
  107c4e:	c7 05 d8 d8 10 00 00 	movl   $0x0,0x10d8d8
  107c55:	00 00 00 
  107c58:	ff 75 14             	pushl  0x14(%ebp)
  107c5b:	ff 75 10             	pushl  0x10(%ebp)
  107c5e:	ff 75 0c             	pushl  0xc(%ebp)
  107c61:	e8 be ff ff ff       	call   107c24 <write>
  107c66:	83 c4 10             	add    $0x10,%esp
  107c69:	83 f8 ff             	cmp    $0xffffffff,%eax
  107c6c:	74 02                	je     107c70 <_write_r+0x28>
  107c6e:	c9                   	leave  
  107c6f:	c3                   	ret    
  107c70:	8b 15 d8 d8 10 00    	mov    0x10d8d8,%edx
  107c76:	85 d2                	test   %edx,%edx
  107c78:	74 f4                	je     107c6e <_write_r+0x26>
  107c7a:	8b 4d 08             	mov    0x8(%ebp),%ecx
  107c7d:	89 11                	mov    %edx,(%ecx)
  107c7f:	c9                   	leave  
  107c80:	c3                   	ret    
  107c81:	00 00                	add    %al,(%eax)
	...

00107c84 <_close_r>:
  107c84:	55                   	push   %ebp
  107c85:	89 e5                	mov    %esp,%ebp
  107c87:	83 ec 14             	sub    $0x14,%esp
  107c8a:	c7 05 d8 d8 10 00 00 	movl   $0x0,0x10d8d8
  107c91:	00 00 00 
  107c94:	ff 75 0c             	pushl  0xc(%ebp)
  107c97:	e8 98 fd ff ff       	call   107a34 <close>
  107c9c:	83 c4 10             	add    $0x10,%esp
  107c9f:	83 f8 ff             	cmp    $0xffffffff,%eax
  107ca2:	74 04                	je     107ca8 <_close_r+0x24>
  107ca4:	c9                   	leave  
  107ca5:	c3                   	ret    
  107ca6:	66 90                	xchg   %ax,%ax
  107ca8:	8b 15 d8 d8 10 00    	mov    0x10d8d8,%edx
  107cae:	85 d2                	test   %edx,%edx
  107cb0:	74 f2                	je     107ca4 <_close_r+0x20>
  107cb2:	8b 4d 08             	mov    0x8(%ebp),%ecx
  107cb5:	89 11                	mov    %edx,(%ecx)
  107cb7:	c9                   	leave  
  107cb8:	c3                   	ret    
  107cb9:	00 00                	add    %al,(%eax)
	...

00107cbc <_fclose_r>:
  107cbc:	55                   	push   %ebp
  107cbd:	89 e5                	mov    %esp,%ebp
  107cbf:	57                   	push   %edi
  107cc0:	56                   	push   %esi
  107cc1:	53                   	push   %ebx
  107cc2:	83 ec 0c             	sub    $0xc,%esp
  107cc5:	8b 75 08             	mov    0x8(%ebp),%esi
  107cc8:	8b 5d 0c             	mov    0xc(%ebp),%ebx
  107ccb:	85 db                	test   %ebx,%ebx
  107ccd:	0f 84 b2 00 00 00    	je     107d85 <_fclose_r+0xc9>
  107cd3:	e8 a4 ec ff ff       	call   10697c <__sfp_lock_acquire>
  107cd8:	85 f6                	test   %esi,%esi
  107cda:	74 0b                	je     107ce7 <_fclose_r+0x2b>
  107cdc:	8b 46 38             	mov    0x38(%esi),%eax
  107cdf:	85 c0                	test   %eax,%eax
  107ce1:	0f 84 ad 00 00 00    	je     107d94 <_fclose_r+0xd8>
  107ce7:	66 83 7b 0c 00       	cmpw   $0x0,0xc(%ebx)
  107cec:	0f 84 8e 00 00 00    	je     107d80 <_fclose_r+0xc4>
  107cf2:	83 ec 0c             	sub    $0xc,%esp
  107cf5:	53                   	push   %ebx
  107cf6:	e8 d1 ea ff ff       	call   1067cc <fflush>
  107cfb:	89 c7                	mov    %eax,%edi
  107cfd:	8b 43 2c             	mov    0x2c(%ebx),%eax
  107d00:	83 c4 10             	add    $0x10,%esp
  107d03:	85 c0                	test   %eax,%eax
  107d05:	74 13                	je     107d1a <_fclose_r+0x5e>
  107d07:	83 ec 0c             	sub    $0xc,%esp
  107d0a:	ff 73 1c             	pushl  0x1c(%ebx)
  107d0d:	ff d0                	call   *%eax
  107d0f:	83 c4 10             	add    $0x10,%esp
  107d12:	85 c0                	test   %eax,%eax
  107d14:	0f 88 aa 00 00 00    	js     107dc4 <_fclose_r+0x108>
  107d1a:	80 7b 0c 00          	cmpb   $0x0,0xc(%ebx)
  107d1e:	0f 88 8c 00 00 00    	js     107db0 <_fclose_r+0xf4>
  107d24:	8b 53 30             	mov    0x30(%ebx),%edx
  107d27:	85 d2                	test   %edx,%edx
  107d29:	74 20                	je     107d4b <_fclose_r+0x8f>
  107d2b:	8d 43 40             	lea    0x40(%ebx),%eax
  107d2e:	39 c2                	cmp    %eax,%edx
  107d30:	74 12                	je     107d44 <_fclose_r+0x88>
  107d32:	83 ec 08             	sub    $0x8,%esp
  107d35:	52                   	push   %edx
  107d36:	ff 35 e0 91 10 00    	pushl  0x1091e0
  107d3c:	e8 63 ef ff ff       	call   106ca4 <_free_r>
  107d41:	83 c4 10             	add    $0x10,%esp
  107d44:	c7 43 30 00 00 00 00 	movl   $0x0,0x30(%ebx)
  107d4b:	8b 43 44             	mov    0x44(%ebx),%eax
  107d4e:	85 c0                	test   %eax,%eax
  107d50:	74 19                	je     107d6b <_fclose_r+0xaf>
  107d52:	83 ec 08             	sub    $0x8,%esp
  107d55:	50                   	push   %eax
  107d56:	ff 35 e0 91 10 00    	pushl  0x1091e0
  107d5c:	e8 43 ef ff ff       	call   106ca4 <_free_r>
  107d61:	c7 43 44 00 00 00 00 	movl   $0x0,0x44(%ebx)
  107d68:	83 c4 10             	add    $0x10,%esp
  107d6b:	66 c7 43 0c 00 00    	movw   $0x0,0xc(%ebx)
  107d71:	e8 0e ec ff ff       	call   106984 <__sfp_lock_release>
  107d76:	89 f8                	mov    %edi,%eax
  107d78:	8d 65 f4             	lea    -0xc(%ebp),%esp
  107d7b:	5b                   	pop    %ebx
  107d7c:	5e                   	pop    %esi
  107d7d:	5f                   	pop    %edi
  107d7e:	c9                   	leave  
  107d7f:	c3                   	ret    
  107d80:	e8 ff eb ff ff       	call   106984 <__sfp_lock_release>
  107d85:	31 ff                	xor    %edi,%edi
  107d87:	89 f8                	mov    %edi,%eax
  107d89:	8d 65 f4             	lea    -0xc(%ebp),%esp
  107d8c:	5b                   	pop    %ebx
  107d8d:	5e                   	pop    %esi
  107d8e:	5f                   	pop    %edi
  107d8f:	c9                   	leave  
  107d90:	c3                   	ret    
  107d91:	8d 76 00             	lea    0x0(%esi),%esi
  107d94:	83 ec 0c             	sub    $0xc,%esp
  107d97:	56                   	push   %esi
  107d98:	e8 ff eb ff ff       	call   10699c <__sinit>
  107d9d:	83 c4 10             	add    $0x10,%esp
  107da0:	66 83 7b 0c 00       	cmpw   $0x0,0xc(%ebx)
  107da5:	0f 85 47 ff ff ff    	jne    107cf2 <_fclose_r+0x36>
  107dab:	eb d3                	jmp    107d80 <_fclose_r+0xc4>
  107dad:	8d 76 00             	lea    0x0(%esi),%esi
  107db0:	83 ec 08             	sub    $0x8,%esp
  107db3:	ff 73 10             	pushl  0x10(%ebx)
  107db6:	56                   	push   %esi
  107db7:	e8 e8 ee ff ff       	call   106ca4 <_free_r>
  107dbc:	83 c4 10             	add    $0x10,%esp
  107dbf:	e9 60 ff ff ff       	jmp    107d24 <_fclose_r+0x68>
  107dc4:	bf ff ff ff ff       	mov    $0xffffffff,%edi
  107dc9:	e9 4c ff ff ff       	jmp    107d1a <_fclose_r+0x5e>
  107dce:	66 90                	xchg   %ax,%ax

00107dd0 <fclose>:
  107dd0:	55                   	push   %ebp
  107dd1:	89 e5                	mov    %esp,%ebp
  107dd3:	83 ec 10             	sub    $0x10,%esp
  107dd6:	ff 75 08             	pushl  0x8(%ebp)
  107dd9:	ff 35 e0 91 10 00    	pushl  0x1091e0
  107ddf:	e8 d8 fe ff ff       	call   107cbc <_fclose_r>
  107de4:	c9                   	leave  
  107de5:	c3                   	ret    
	...

00107de8 <_fstat_r>:
  107de8:	55                   	push   %ebp
  107de9:	89 e5                	mov    %esp,%ebp
  107deb:	83 ec 10             	sub    $0x10,%esp
  107dee:	c7 05 d8 d8 10 00 00 	movl   $0x0,0x10d8d8
  107df5:	00 00 00 
  107df8:	ff 75 10             	pushl  0x10(%ebp)
  107dfb:	ff 75 0c             	pushl  0xc(%ebp)
  107dfe:	e8 9d fc ff ff       	call   107aa0 <fstat>
  107e03:	83 c4 10             	add    $0x10,%esp
  107e06:	83 f8 ff             	cmp    $0xffffffff,%eax
  107e09:	74 05                	je     107e10 <_fstat_r+0x28>
  107e0b:	c9                   	leave  
  107e0c:	c3                   	ret    
  107e0d:	8d 76 00             	lea    0x0(%esi),%esi
  107e10:	8b 15 d8 d8 10 00    	mov    0x10d8d8,%edx
  107e16:	85 d2                	test   %edx,%edx
  107e18:	74 f1                	je     107e0b <_fstat_r+0x23>
  107e1a:	8b 4d 08             	mov    0x8(%ebp),%ecx
  107e1d:	89 11                	mov    %edx,(%ecx)
  107e1f:	c9                   	leave  
  107e20:	c3                   	ret    
  107e21:	00 00                	add    %al,(%eax)
	...

00107e24 <_lseek_r>:
  107e24:	55                   	push   %ebp
  107e25:	89 e5                	mov    %esp,%ebp
  107e27:	83 ec 0c             	sub    $0xc,%esp
  107e2a:	c7 05 d8 d8 10 00 00 	movl   $0x0,0x10d8d8
  107e31:	00 00 00 
  107e34:	ff 75 14             	pushl  0x14(%ebp)
  107e37:	ff 75 10             	pushl  0x10(%ebp)
  107e3a:	ff 75 0c             	pushl  0xc(%ebp)
  107e3d:	e8 f6 fc ff ff       	call   107b38 <lseek>
  107e42:	83 c4 10             	add    $0x10,%esp
  107e45:	83 f8 ff             	cmp    $0xffffffff,%eax
  107e48:	74 02                	je     107e4c <_lseek_r+0x28>
  107e4a:	c9                   	leave  
  107e4b:	c3                   	ret    
  107e4c:	8b 15 d8 d8 10 00    	mov    0x10d8d8,%edx
  107e52:	85 d2                	test   %edx,%edx
  107e54:	74 f4                	je     107e4a <_lseek_r+0x26>
  107e56:	8b 4d 08             	mov    0x8(%ebp),%ecx
  107e59:	89 11                	mov    %edx,(%ecx)
  107e5b:	c9                   	leave  
  107e5c:	c3                   	ret    
  107e5d:	00 00                	add    %al,(%eax)
	...

00107e60 <_read_r>:
  107e60:	55                   	push   %ebp
  107e61:	89 e5                	mov    %esp,%ebp
  107e63:	83 ec 0c             	sub    $0xc,%esp
  107e66:	c7 05 d8 d8 10 00 00 	movl   $0x0,0x10d8d8
  107e6d:	00 00 00 
  107e70:	ff 75 14             	pushl  0x14(%ebp)
  107e73:	ff 75 10             	pushl  0x10(%ebp)
  107e76:	ff 75 0c             	pushl  0xc(%ebp)
  107e79:	e8 ea fc ff ff       	call   107b68 <read>
  107e7e:	83 c4 10             	add    $0x10,%esp
  107e81:	83 f8 ff             	cmp    $0xffffffff,%eax
  107e84:	74 02                	je     107e88 <_read_r+0x28>
  107e86:	c9                   	leave  
  107e87:	c3                   	ret    
  107e88:	8b 15 d8 d8 10 00    	mov    0x10d8d8,%edx
  107e8e:	85 d2                	test   %edx,%edx
  107e90:	74 f4                	je     107e86 <_read_r+0x26>
  107e92:	8b 4d 08             	mov    0x8(%ebp),%ecx
  107e95:	89 11                	mov    %edx,(%ecx)
  107e97:	c9                   	leave  
  107e98:	c3                   	ret    
  107e99:	00 00                	add    %al,(%eax)
	...

00107e9c <_wrapup_reent>:
  107e9c:	55                   	push   %ebp
  107e9d:	89 e5                	mov    %esp,%ebp
  107e9f:	57                   	push   %edi
  107ea0:	56                   	push   %esi
  107ea1:	53                   	push   %ebx
  107ea2:	83 ec 0c             	sub    $0xc,%esp
  107ea5:	8b 45 08             	mov    0x8(%ebp),%eax
  107ea8:	89 45 ec             	mov    %eax,-0x14(%ebp)
  107eab:	85 c0                	test   %eax,%eax
  107ead:	74 5a                	je     107f09 <_wrapup_reent+0x6d>
  107eaf:	8b 45 ec             	mov    -0x14(%ebp),%eax
  107eb2:	8b 80 48 01 00 00    	mov    0x148(%eax),%eax
  107eb8:	89 45 f0             	mov    %eax,-0x10(%ebp)
  107ebb:	85 c0                	test   %eax,%eax
  107ebd:	74 2c                	je     107eeb <_wrapup_reent+0x4f>
  107ebf:	8b 45 f0             	mov    -0x10(%ebp),%eax
  107ec2:	8b 78 04             	mov    0x4(%eax),%edi
  107ec5:	89 f8                	mov    %edi,%eax
  107ec7:	48                   	dec    %eax
  107ec8:	78 15                	js     107edf <_wrapup_reent+0x43>
  107eca:	8b 45 f0             	mov    -0x10(%ebp),%eax
  107ecd:	8d 5c b8 08          	lea    0x8(%eax,%edi,4),%ebx
  107ed1:	31 f6                	xor    %esi,%esi
  107ed3:	90                   	nop    
  107ed4:	ff 53 fc             	call   *-0x4(%ebx)
  107ed7:	46                   	inc    %esi
  107ed8:	83 eb 04             	sub    $0x4,%ebx
  107edb:	39 fe                	cmp    %edi,%esi
  107edd:	75 f5                	jne    107ed4 <_wrapup_reent+0x38>
  107edf:	8b 45 f0             	mov    -0x10(%ebp),%eax
  107ee2:	8b 00                	mov    (%eax),%eax
  107ee4:	89 45 f0             	mov    %eax,-0x10(%ebp)
  107ee7:	85 c0                	test   %eax,%eax
  107ee9:	75 d4                	jne    107ebf <_wrapup_reent+0x23>
  107eeb:	8b 45 ec             	mov    -0x14(%ebp),%eax
  107eee:	8b 48 3c             	mov    0x3c(%eax),%ecx
  107ef1:	85 c9                	test   %ecx,%ecx
  107ef3:	74 0c                	je     107f01 <_wrapup_reent+0x65>
  107ef5:	89 45 08             	mov    %eax,0x8(%ebp)
  107ef8:	83 c4 0c             	add    $0xc,%esp
  107efb:	5b                   	pop    %ebx
  107efc:	5e                   	pop    %esi
  107efd:	5f                   	pop    %edi
  107efe:	c9                   	leave  
  107eff:	ff e1                	jmp    *%ecx
  107f01:	83 c4 0c             	add    $0xc,%esp
  107f04:	5b                   	pop    %ebx
  107f05:	5e                   	pop    %esi
  107f06:	5f                   	pop    %edi
  107f07:	c9                   	leave  
  107f08:	c3                   	ret    
  107f09:	a1 e0 91 10 00       	mov    0x1091e0,%eax
  107f0e:	89 45 ec             	mov    %eax,-0x14(%ebp)
  107f11:	eb 9c                	jmp    107eaf <_wrapup_reent+0x13>
  107f13:	90                   	nop    

00107f14 <cleanup_glue>:
  107f14:	55                   	push   %ebp
  107f15:	89 e5                	mov    %esp,%ebp
  107f17:	56                   	push   %esi
  107f18:	53                   	push   %ebx
  107f19:	8b 75 08             	mov    0x8(%ebp),%esi
  107f1c:	8b 5d 0c             	mov    0xc(%ebp),%ebx
  107f1f:	8b 03                	mov    (%ebx),%eax
  107f21:	85 c0                	test   %eax,%eax
  107f23:	74 0d                	je     107f32 <cleanup_glue+0x1e>
  107f25:	83 ec 08             	sub    $0x8,%esp
  107f28:	50                   	push   %eax
  107f29:	56                   	push   %esi
  107f2a:	e8 e5 ff ff ff       	call   107f14 <cleanup_glue>
  107f2f:	83 c4 10             	add    $0x10,%esp
  107f32:	89 5d 0c             	mov    %ebx,0xc(%ebp)
  107f35:	89 75 08             	mov    %esi,0x8(%ebp)
  107f38:	8d 65 f8             	lea    -0x8(%ebp),%esp
  107f3b:	5b                   	pop    %ebx
  107f3c:	5e                   	pop    %esi
  107f3d:	c9                   	leave  
  107f3e:	e9 61 ed ff ff       	jmp    106ca4 <_free_r>
  107f43:	90                   	nop    

00107f44 <_reclaim_reent>:
  107f44:	55                   	push   %ebp
  107f45:	89 e5                	mov    %esp,%ebp
  107f47:	57                   	push   %edi
  107f48:	56                   	push   %esi
  107f49:	53                   	push   %ebx
  107f4a:	83 ec 0c             	sub    $0xc,%esp
  107f4d:	8b 75 08             	mov    0x8(%ebp),%esi
  107f50:	3b 35 e0 91 10 00    	cmp    0x1091e0,%esi
  107f56:	0f 84 c1 00 00 00    	je     10801d <_reclaim_reent+0xd9>
  107f5c:	8b 46 4c             	mov    0x4c(%esi),%eax
  107f5f:	85 c0                	test   %eax,%eax
  107f61:	74 3e                	je     107fa1 <_reclaim_reent+0x5d>
  107f63:	31 ff                	xor    %edi,%edi
  107f65:	8b 04 38             	mov    (%eax,%edi,1),%eax
  107f68:	85 c0                	test   %eax,%eax
  107f6a:	75 06                	jne    107f72 <_reclaim_reent+0x2e>
  107f6c:	eb 17                	jmp    107f85 <_reclaim_reent+0x41>
  107f6e:	66 90                	xchg   %ax,%ax
  107f70:	89 d8                	mov    %ebx,%eax
  107f72:	8b 18                	mov    (%eax),%ebx
  107f74:	83 ec 08             	sub    $0x8,%esp
  107f77:	50                   	push   %eax
  107f78:	56                   	push   %esi
  107f79:	e8 26 ed ff ff       	call   106ca4 <_free_r>
  107f7e:	83 c4 10             	add    $0x10,%esp
  107f81:	85 db                	test   %ebx,%ebx
  107f83:	75 eb                	jne    107f70 <_reclaim_reent+0x2c>
  107f85:	83 c7 04             	add    $0x4,%edi
  107f88:	83 ff 3c             	cmp    $0x3c,%edi
  107f8b:	74 05                	je     107f92 <_reclaim_reent+0x4e>
  107f8d:	8b 46 4c             	mov    0x4c(%esi),%eax
  107f90:	eb d3                	jmp    107f65 <_reclaim_reent+0x21>
  107f92:	83 ec 08             	sub    $0x8,%esp
  107f95:	ff 76 4c             	pushl  0x4c(%esi)
  107f98:	56                   	push   %esi
  107f99:	e8 06 ed ff ff       	call   106ca4 <_free_r>
  107f9e:	83 c4 10             	add    $0x10,%esp
  107fa1:	8b 46 40             	mov    0x40(%esi),%eax
  107fa4:	85 c0                	test   %eax,%eax
  107fa6:	74 0d                	je     107fb5 <_reclaim_reent+0x71>
  107fa8:	83 ec 08             	sub    $0x8,%esp
  107fab:	50                   	push   %eax
  107fac:	56                   	push   %esi
  107fad:	e8 f2 ec ff ff       	call   106ca4 <_free_r>
  107fb2:	83 c4 10             	add    $0x10,%esp
  107fb5:	8b 86 48 01 00 00    	mov    0x148(%esi),%eax
  107fbb:	85 c0                	test   %eax,%eax
  107fbd:	74 22                	je     107fe1 <_reclaim_reent+0x9d>
  107fbf:	8d be 4c 01 00 00    	lea    0x14c(%esi),%edi
  107fc5:	39 f8                	cmp    %edi,%eax
  107fc7:	75 05                	jne    107fce <_reclaim_reent+0x8a>
  107fc9:	eb 16                	jmp    107fe1 <_reclaim_reent+0x9d>
  107fcb:	90                   	nop    
  107fcc:	89 d8                	mov    %ebx,%eax
  107fce:	8b 18                	mov    (%eax),%ebx
  107fd0:	83 ec 08             	sub    $0x8,%esp
  107fd3:	50                   	push   %eax
  107fd4:	56                   	push   %esi
  107fd5:	e8 ca ec ff ff       	call   106ca4 <_free_r>
  107fda:	83 c4 10             	add    $0x10,%esp
  107fdd:	39 df                	cmp    %ebx,%edi
  107fdf:	75 eb                	jne    107fcc <_reclaim_reent+0x88>
  107fe1:	8b 46 54             	mov    0x54(%esi),%eax
  107fe4:	85 c0                	test   %eax,%eax
  107fe6:	74 0d                	je     107ff5 <_reclaim_reent+0xb1>
  107fe8:	83 ec 08             	sub    $0x8,%esp
  107feb:	50                   	push   %eax
  107fec:	56                   	push   %esi
  107fed:	e8 b2 ec ff ff       	call   106ca4 <_free_r>
  107ff2:	83 c4 10             	add    $0x10,%esp
  107ff5:	8b 46 38             	mov    0x38(%esi),%eax
  107ff8:	85 c0                	test   %eax,%eax
  107ffa:	74 21                	je     10801d <_reclaim_reent+0xd9>
  107ffc:	83 ec 0c             	sub    $0xc,%esp
  107fff:	56                   	push   %esi
  108000:	ff 56 3c             	call   *0x3c(%esi)
  108003:	8b 86 e0 02 00 00    	mov    0x2e0(%esi),%eax
  108009:	83 c4 10             	add    $0x10,%esp
  10800c:	85 c0                	test   %eax,%eax
  10800e:	74 0d                	je     10801d <_reclaim_reent+0xd9>
  108010:	83 ec 08             	sub    $0x8,%esp
  108013:	50                   	push   %eax
  108014:	56                   	push   %esi
  108015:	e8 fa fe ff ff       	call   107f14 <cleanup_glue>
  10801a:	83 c4 10             	add    $0x10,%esp
  10801d:	8d 65 f4             	lea    -0xc(%ebp),%esp
  108020:	5b                   	pop    %ebx
  108021:	5e                   	pop    %esi
  108022:	5f                   	pop    %edi
  108023:	c9                   	leave  
  108024:	c3                   	ret    
  108025:	00 00                	add    %al,(%eax)
  108027:	00 4e 55             	add    %cl,0x55(%esi)
  10802a:	4c                   	dec    %esp
  10802b:	4c                   	dec    %esp
  10802c:	00 45 73             	add    %al,0x73(%ebp)
  10802f:	63 20                	arpl   %sp,(%eax)
  108031:	00 31                	add    %dh,(%ecx)
  108033:	21 20                	and    %esp,(%eax)
  108035:	00 32                	add    %dh,(%edx)
  108037:	40                   	inc    %eax
  108038:	20 00                	and    %al,(%eax)
  10803a:	33 23                	xor    (%ebx),%esp
  10803c:	20 00                	and    %al,(%eax)
  10803e:	34 24                	xor    $0x24,%al
  108040:	20 00                	and    %al,(%eax)
  108042:	35 25 20 00 36       	xor    $0x36002025,%eax
  108047:	5e                   	pop    %esi
  108048:	20 00                	and    %al,(%eax)
  10804a:	37                   	aaa    
  10804b:	26 20 00             	and    %al,%es:(%eax)
  10804e:	38 2a                	cmp    %ch,(%edx)
  108050:	20 00                	and    %al,(%eax)
  108052:	39 28                	cmp    %ebp,(%eax)
  108054:	20 00                	and    %al,(%eax)
  108056:	30 29                	xor    %ch,(%ecx)
  108058:	20 00                	and    %al,(%eax)
  10805a:	2d 5f 20 00 3d       	sub    $0x3d00205f,%eax
  10805f:	2b 20                	sub    (%eax),%esp
  108061:	00 42 4b             	add    %al,0x4b(%edx)
  108064:	20 00                	and    %al,(%eax)
  108066:	54                   	push   %esp
  108067:	42                   	inc    %edx
  108068:	20 00                	and    %al,(%eax)
  10806a:	71 51                	jno    1080bd <_reclaim_reent+0x179>
  10806c:	20 00                	and    %al,(%eax)
  10806e:	77 57                	ja     1080c7 <_reclaim_reent+0x183>
  108070:	20 00                	and    %al,(%eax)
  108072:	65                   	gs
  108073:	45                   	inc    %ebp
  108074:	20 00                	and    %al,(%eax)
  108076:	72 52                	jb     1080ca <_reclaim_reent+0x186>
  108078:	20 00                	and    %al,(%eax)
  10807a:	74 54                	je     1080d0 <_reclaim_reent+0x18c>
  10807c:	20 00                	and    %al,(%eax)
  10807e:	79 59                	jns    1080d9 <_reclaim_reent+0x195>
  108080:	20 00                	and    %al,(%eax)
  108082:	75 55                	jne    1080d9 <_reclaim_reent+0x195>
  108084:	20 00                	and    %al,(%eax)
  108086:	69 49 20 00 6f 4f 20 	imul   $0x204f6f00,0x20(%ecx),%ecx
  10808d:	00 70 50             	add    %dh,0x50(%eax)
  108090:	20 00                	and    %al,(%eax)
  108092:	5b                   	pop    %ebx
  108093:	7b 20                	jnp    1080b5 <_reclaim_reent+0x171>
  108095:	00 5d 7d             	add    %bl,0x7d(%ebp)
  108098:	20 00                	and    %al,(%eax)
  10809a:	45                   	inc    %ebp
  10809b:	4e                   	dec    %esi
  10809c:	20 00                	and    %al,(%eax)
  10809e:	4c                   	dec    %esp
  10809f:	43                   	inc    %ebx
  1080a0:	20 00                	and    %al,(%eax)
  1080a2:	61                   	popa   
  1080a3:	41                   	inc    %ecx
  1080a4:	20 00                	and    %al,(%eax)
  1080a6:	73 53                	jae    1080fb <_reclaim_reent+0x1b7>
  1080a8:	20 00                	and    %al,(%eax)
  1080aa:	64                   	fs
  1080ab:	44                   	inc    %esp
  1080ac:	20 00                	and    %al,(%eax)
  1080ae:	66 46                	inc    %si
  1080b0:	20 00                	and    %al,(%eax)
  1080b2:	67 47                	addr16 inc %edi
  1080b4:	20 00                	and    %al,(%eax)
  1080b6:	68 48 20 00 6a       	push   $0x6a002048
  1080bb:	4a                   	dec    %edx
  1080bc:	20 00                	and    %al,(%eax)
  1080be:	6b 4b 20 00          	imul   $0x0,0x20(%ebx),%ecx
  1080c2:	6c                   	insb   (%dx),%es:(%edi)
  1080c3:	4c                   	dec    %esp
  1080c4:	20 00                	and    %al,(%eax)
  1080c6:	3b 3a                	cmp    (%edx),%edi
  1080c8:	20 00                	and    %al,(%eax)
  1080ca:	27                   	daa    
  1080cb:	22 20                	and    (%eax),%ah
  1080cd:	00 60 7e             	add    %ah,0x7e(%eax)
  1080d0:	20 00                	and    %al,(%eax)
  1080d2:	4c                   	dec    %esp
  1080d3:	53                   	push   %ebx
  1080d4:	20 00                	and    %al,(%eax)
  1080d6:	5c                   	pop    %esp
  1080d7:	7c 20                	jl     1080f9 <_reclaim_reent+0x1b5>
  1080d9:	00 7a 5a             	add    %bh,0x5a(%edx)
  1080dc:	20 00                	and    %al,(%eax)
  1080de:	78 58                	js     108138 <_reclaim_reent+0x1f4>
  1080e0:	20 00                	and    %al,(%eax)
  1080e2:	63 43 20             	arpl   %ax,0x20(%ebx)
  1080e5:	00 76 56             	add    %dh,0x56(%esi)
  1080e8:	20 00                	and    %al,(%eax)
  1080ea:	62 42 20             	bound  %eax,0x20(%edx)
  1080ed:	00 6e 4e             	add    %ch,0x4e(%esi)
  1080f0:	20 00                	and    %al,(%eax)
  1080f2:	6d                   	insl   (%dx),%es:(%edi)
  1080f3:	4d                   	dec    %ebp
  1080f4:	20 00                	and    %al,(%eax)
  1080f6:	2c 3c                	sub    $0x3c,%al
  1080f8:	20 00                	and    %al,(%eax)
  1080fa:	2e 3e 20 00          	and    %al,%cs:%ds:(%eax)
  1080fe:	2f                   	das    
  1080ff:	3f                   	aas    
  108100:	20 00                	and    %al,(%eax)
  108102:	52                   	push   %edx
  108103:	53                   	push   %ebx
  108104:	20 00                	and    %al,(%eax)
  108106:	2a 20                	sub    (%eax),%ah
  108108:	00 4c 41 20          	add    %cl,0x20(%ecx,%eax,2)
  10810c:	00 27                	add    %ah,(%edi)
  10810e:	20 27                	and    %ah,(%edi)
  108110:	20 00                	and    %al,(%eax)
  108112:	43                   	inc    %ebx
  108113:	41                   	inc    %ecx
  108114:	50                   	push   %eax
  108115:	20 00                	and    %al,(%eax)
  108117:	46                   	inc    %esi
  108118:	31 20                	xor    %esp,(%eax)
  10811a:	00 46 32             	add    %al,0x32(%esi)
  10811d:	20 00                	and    %al,(%eax)
  10811f:	46                   	inc    %esi
  108120:	33 20                	xor    (%eax),%esp
  108122:	00 46 34             	add    %al,0x34(%esi)
  108125:	20 00                	and    %al,(%eax)
  108127:	46                   	inc    %esi
  108128:	35 20 00 46 36       	xor    $0x36460020,%eax
  10812d:	20 00                	and    %al,(%eax)
  10812f:	46                   	inc    %esi
  108130:	37                   	aaa    
  108131:	20 00                	and    %al,(%eax)
  108133:	46                   	inc    %esi
  108134:	38 20                	cmp    %ah,(%eax)
  108136:	00 46 39             	add    %al,0x39(%esi)
  108139:	20 00                	and    %al,(%eax)
  10813b:	46                   	inc    %esi
  10813c:	31 30                	xor    %esi,(%eax)
  10813e:	20 00                	and    %al,(%eax)
  108140:	4e                   	dec    %esi
  108141:	55                   	push   %ebp
  108142:	4d                   	dec    %ebp
  108143:	20 00                	and    %al,(%eax)
  108145:	53                   	push   %ebx
  108146:	43                   	inc    %ebx
  108147:	52                   	push   %edx
  108148:	20 00                	and    %al,(%eax)
  10814a:	48                   	dec    %eax
  10814b:	4f                   	dec    %edi
  10814c:	37                   	aaa    
  10814d:	20 00                	and    %al,(%eax)
  10814f:	55                   	push   %ebp
  108150:	50                   	push   %eax
  108151:	38 20                	cmp    %ah,(%eax)
  108153:	00 50 55             	add    %dl,0x55(%eax)
  108156:	39 20                	cmp    %esp,(%eax)
  108158:	00 2d 20 00 4c 45    	add    %ch,0x454c0020
  10815e:	34 20                	xor    $0x20,%al
  108160:	00 35 20 00 52 49    	add    %dh,0x49520020
  108166:	36 20 00             	and    %al,%ss:(%eax)
  108169:	2b 20                	sub    (%eax),%esp
  10816b:	00 45 4e             	add    %al,0x4e(%ebp)
  10816e:	44                   	inc    %esp
  10816f:	31 20                	xor    %esp,(%eax)
  108171:	00 44 57 4e          	add    %al,0x4e(%edi,%edx,2)
  108175:	32 20                	xor    (%eax),%ah
  108177:	00 50 44             	add    %dl,0x44(%eax)
  10817a:	33 20                	xor    (%eax),%esp
  10817c:	00 49 4e             	add    %cl,0x4e(%ecx)
  10817f:	53                   	push   %ebx
  108180:	30 20                	xor    %ah,(%eax)
  108182:	00 44 45 4c          	add    %al,0x4c(%ebp,%eax,2)
  108186:	2e 20 00             	and    %al,%cs:(%eax)
  108189:	52                   	push   %edx
  10818a:	43                   	inc    %ebx
  10818b:	54                   	push   %esp
  10818c:	52                   	push   %edx
  10818d:	4c                   	dec    %esp
  10818e:	20 00                	and    %al,(%eax)
  108190:	2f                   	das    
  108191:	20 00                	and    %al,(%eax)
  108193:	50                   	push   %eax
  108194:	72 74                	jb     10820a <_reclaim_reent+0x2c6>
  108196:	53                   	push   %ebx
  108197:	63 72 20             	arpl   %si,0x20(%edx)
  10819a:	00 46 31             	add    %al,0x31(%esi)
  10819d:	31 20                	xor    %esp,(%eax)
  10819f:	00 46 31             	add    %al,0x31(%esi)
  1081a2:	32 20                	xor    (%eax),%ah
  1081a4:	00 52 41             	add    %dl,0x41(%edx)
  1081a7:	20 00                	and    %al,(%eax)
  1081a9:	45                   	inc    %ebp
  1081aa:	4e                   	dec    %esi
  1081ab:	54                   	push   %esp
  1081ac:	20 00                	and    %al,(%eax)
  1081ae:	48                   	dec    %eax
  1081af:	4d                   	dec    %ebp
  1081b0:	45                   	inc    %ebp
  1081b1:	20 00                	and    %al,(%eax)
  1081b3:	55                   	push   %ebp
  1081b4:	50                   	push   %eax
  1081b5:	20 00                	and    %al,(%eax)
  1081b7:	50                   	push   %eax
  1081b8:	47                   	inc    %edi
  1081b9:	55                   	push   %ebp
  1081ba:	50                   	push   %eax
  1081bb:	20 00                	and    %al,(%eax)
  1081bd:	4c                   	dec    %esp
  1081be:	46                   	inc    %esi
  1081bf:	54                   	push   %esp
  1081c0:	20 00                	and    %al,(%eax)
  1081c2:	52                   	push   %edx
  1081c3:	47                   	inc    %edi
  1081c4:	54                   	push   %esp
  1081c5:	20 00                	and    %al,(%eax)
  1081c7:	45                   	inc    %ebp
  1081c8:	4e                   	dec    %esi
  1081c9:	44                   	inc    %esp
  1081ca:	20 00                	and    %al,(%eax)
  1081cc:	44                   	inc    %esp
  1081cd:	57                   	push   %edi
  1081ce:	4e                   	dec    %esi
  1081cf:	20 00                	and    %al,(%eax)
  1081d1:	50                   	push   %eax
  1081d2:	44                   	inc    %esp
  1081d3:	57                   	push   %edi
  1081d4:	4e                   	dec    %esi
  1081d5:	20 00                	and    %al,(%eax)
  1081d7:	49                   	dec    %ecx
  1081d8:	4e                   	dec    %esi
  1081d9:	53                   	push   %ebx
  1081da:	45                   	inc    %ebp
  1081db:	20 00                	and    %al,(%eax)
  1081dd:	44                   	inc    %esp
  1081de:	45                   	inc    %ebp
  1081df:	4c                   	dec    %esp
  1081e0:	20 00                	and    %al,(%eax)
  1081e2:	4c                   	dec    %esp
  1081e3:	57                   	push   %edi
  1081e4:	49                   	dec    %ecx
  1081e5:	4e                   	dec    %esi
  1081e6:	20 00                	and    %al,(%eax)
  1081e8:	52                   	push   %edx
  1081e9:	57                   	push   %edi
  1081ea:	49                   	dec    %ecx
  1081eb:	4e                   	dec    %esi
  1081ec:	20 00                	and    %al,(%eax)
  1081ee:	4d                   	dec    %ebp
  1081ef:	45                   	inc    %ebp
  1081f0:	4e                   	dec    %esi
  1081f1:	55                   	push   %ebp
  1081f2:	20 00                	and    %al,(%eax)
  1081f4:	50                   	push   %eax
  1081f5:	41                   	inc    %ecx
  1081f6:	55                   	push   %ebp
  1081f7:	53                   	push   %ebx
  1081f8:	45                   	inc    %ebp
  1081f9:	20 00                	and    %al,(%eax)
  1081fb:	0a 43 6f             	or     0x6f(%ebx),%al
  1081fe:	6e                   	outsb  %ds:(%esi),(%dx)
  1081ff:	66 69 67 75 72 65    	imul   $0x6572,0x75(%edi),%sp
  108205:	64 20 73 70          	and    %dh,%fs:0x70(%ebx)
  108209:	69 6e 6c 6f 63 6b 73 	imul   $0x736b636f,0x6c(%esi),%ebp
  108210:	20 64 61 74          	and    %ah,0x74(%ecx)
  108214:	61                   	popa   
  108215:	0a 00                	or     (%eax),%al
  108217:	00 50 49             	add    %dl,0x49(%eax)
  10821a:	43                   	inc    %ebx
  10821b:	20 69 6e             	and    %ch,0x6e(%ecx)
  10821e:	69 74 69 61 6c 69 7a 	imul   $0x657a696c,0x61(%ecx,%ebp,2),%esi
  108225:	65 
  108226:	64 20 61 6e          	and    %ah,%fs:0x6e(%ecx)
  10822a:	64 20 69 6e          	and    %ch,%fs:0x6e(%ecx)
  10822e:	74 65                	je     108295 <_reclaim_reent+0x351>
  108230:	72 72                	jb     1082a4 <_reclaim_reent+0x360>
  108232:	75 70                	jne    1082a4 <_reclaim_reent+0x360>
  108234:	74 73                	je     1082a9 <_reclaim_reent+0x365>
  108236:	20 65 6e             	and    %ah,0x6e(%ebp)
  108239:	61                   	popa   
  10823a:	62 6c 65 64          	bound  %ebp,0x64(%ebp)
  10823e:	0a 00                	or     (%eax),%al
  108240:	74 65                	je     1082a7 <_reclaim_reent+0x363>
  108242:	73 74                	jae    1082b8 <_reclaim_reent+0x374>
  108244:	00 43 6f             	add    %al,0x6f(%ebx)
  108247:	6e                   	outsb  %ds:(%esi),(%dx)
  108248:	66 69 67 75 72 69    	imul   $0x6972,0x75(%edi),%sp
  10824e:	6e                   	outsb  %ds:(%esi),(%dx)
  10824f:	67 20 73 79          	addr16 and %dh,0x79(%bp,%di)
  108253:	73 74                	jae    1082c9 <_reclaim_reent+0x385>
  108255:	65                   	gs
  108256:	6d                   	insl   (%dx),%es:(%edi)
  108257:	20 74 69 6d          	and    %dh,0x6d(%ecx,%ebp,2)
  10825b:	65                   	gs
  10825c:	72 20                	jb     10827e <_reclaim_reent+0x33a>
  10825e:	66 6f                	outsw  %ds:(%esi),(%dx)
  108260:	72 20                	jb     108282 <_reclaim_reent+0x33e>
  108262:	00 20                	add    %ah,(%eax)
  108264:	68 65 72 74 7a       	push   $0x7a747265
  108269:	0a 00                	or     (%eax),%al
  10826b:	00 43 6f             	add    %al,0x6f(%ebx)
  10826e:	6e                   	outsb  %ds:(%esi),(%dx)
  10826f:	66 69 67 75 72 69    	imul   $0x6972,0x75(%edi),%sp
  108275:	6e                   	outsb  %ds:(%esi),(%dx)
  108276:	67 20 6d 65          	addr16 and %ch,0x65(%di)
  10827a:	6d                   	insl   (%dx),%es:(%edi)
  10827b:	6f                   	outsl  %ds:(%esi),(%dx)
  10827c:	72 79                	jb     1082f7 <_reclaim_reent+0x3b3>
  10827e:	20 6d 61             	and    %ch,0x61(%ebp)
  108281:	6e                   	outsb  %ds:(%esi),(%dx)
  108282:	61                   	popa   
  108283:	67                   	addr16
  108284:	65                   	gs
  108285:	6d                   	insl   (%dx),%es:(%edi)
  108286:	65 6e                	outsb  %gs:(%esi),(%dx)
  108288:	74 0a                	je     108294 <_reclaim_reent+0x350>
  10828a:	00 42 6f             	add    %al,0x6f(%edx)
  10828d:	6f                   	outsl  %ds:(%esi),(%dx)
  10828e:	74 20                	je     1082b0 <_reclaim_reent+0x36c>
  108290:	64                   	fs
  108291:	65                   	gs
  108292:	76 69                	jbe    1082fd <_reclaim_reent+0x3b9>
  108294:	63 65 3a             	arpl   %sp,0x3a(%ebp)
  108297:	20 00                	and    %al,(%eax)
  108299:	0a 00                	or     (%eax),%al
  10829b:	43                   	inc    %ebx
  10829c:	6f                   	outsl  %ds:(%esi),(%dx)
  10829d:	6d                   	insl   (%dx),%es:(%edi)
  10829e:	6d                   	insl   (%dx),%es:(%edi)
  10829f:	61                   	popa   
  1082a0:	6e                   	outsb  %ds:(%esi),(%dx)
  1082a1:	64 20 6c 69 6e       	and    %ch,%fs:0x6e(%ecx,%ebp,2)
  1082a6:	65 3a 20             	cmp    %gs:(%eax),%ah
  1082a9:	00 00                	add    %al,(%eax)
  1082ab:	00 53 65             	add    %dl,0x65(%ebx)
  1082ae:	74 74                	je     108324 <_reclaim_reent+0x3e0>
  1082b0:	69 6e 67 20 75 70 20 	imul   $0x20707520,0x67(%esi),%ebp
  1082b7:	64                   	fs
  1082b8:	61                   	popa   
  1082b9:	74 61                	je     10831c <_reclaim_reent+0x3d8>
  1082bb:	20 66 6f             	and    %ah,0x6f(%esi)
  1082be:	72 20                	jb     1082e0 <_reclaim_reent+0x39c>
  1082c0:	6d                   	insl   (%dx),%es:(%edi)
  1082c1:	75 6c                	jne    10832f <_reclaim_reent+0x3eb>
  1082c3:	74 69                	je     10832e <_reclaim_reent+0x3ea>
  1082c5:	2d 74 61 73 6b       	sub    $0x6b736174,%eax
  1082ca:	69 6e 67 0a 00 4d 61 	imul   $0x614d000a,0x67(%esi),%ebp
  1082d1:	69 6e 3a 20 00 0a 73 	imul   $0x730a0020,0x3a(%esi),%ebp
  1082d8:	65 63 6f 6e          	arpl   %bp,%gs:0x6e(%edi)
  1082dc:	64                   	fs
  1082dd:	61                   	popa   
  1082de:	72 79                	jb     108359 <_reclaim_reent+0x415>
  1082e0:	5f                   	pop    %edi
  1082e1:	74 61                	je     108344 <_reclaim_reent+0x400>
  1082e3:	73 6b                	jae    108350 <_reclaim_reent+0x40c>
  1082e5:	3a 20                	cmp    (%eax),%ah
  1082e7:	00 0a                	add    %cl,(%edx)
  1082e9:	73 65                	jae    108350 <_reclaim_reent+0x40c>
  1082eb:	74 75                	je     108362 <_reclaim_reent+0x41e>
  1082ed:	70 46                	jo     108335 <_reclaim_reent+0x3f1>
  1082ef:	6c                   	insb   (%dx),%es:(%edi)
  1082f0:	6f                   	outsl  %ds:(%esi),(%dx)
  1082f1:	70 70                	jo     108363 <_reclaim_reent+0x41f>
  1082f3:	79 3a                	jns    10832f <_reclaim_reent+0x3eb>
  1082f5:	20 00                	and    %al,(%eax)
  1082f7:	00 49 6e             	add    %cl,0x6e(%ecx)
  1082fa:	69 74 69 61 6c 69 7a 	imul   $0x697a696c,0x61(%ecx,%ebp,2),%esi
  108301:	69 
  108302:	6e                   	outsb  %ds:(%esi),(%dx)
  108303:	67 20 6d 65          	addr16 and %ch,0x65(%di)
  108307:	73 73                	jae    10837c <_reclaim_reent+0x438>
  108309:	61                   	popa   
  10830a:	67 65 20 64 65       	addr16 and %ah,%gs:0x65(%si)
  10830f:	6c                   	insb   (%dx),%es:(%edi)
  108310:	69 76 65 72 79 20 73 	imul   $0x73207972,0x65(%esi),%esi
  108317:	75 62                	jne    10837b <_reclaim_reent+0x437>
  108319:	73 79                	jae    108394 <_reclaim_reent+0x450>
  10831b:	73 74                	jae    108391 <_reclaim_reent+0x44d>
  10831d:	65                   	gs
  10831e:	6d                   	insl   (%dx),%es:(%edi)
  10831f:	0a 00                	or     (%eax),%al
  108321:	43                   	inc    %ebx
  108322:	6f                   	outsl  %ds:(%esi),(%dx)
  108323:	6e                   	outsb  %ds:(%esi),(%dx)
  108324:	66 69 67 75 72 69    	imul   $0x6972,0x75(%edi),%sp
  10832a:	6e                   	outsb  %ds:(%esi),(%dx)
  10832b:	67 20 6b 65          	addr16 and %ch,0x65(%bp,%di)
  10832f:	79 62                	jns    108393 <_reclaim_reent+0x44f>
  108331:	6f                   	outsl  %ds:(%esi),(%dx)
  108332:	61                   	popa   
  108333:	72 64                	jb     108399 <_reclaim_reent+0x455>
  108335:	0a 00                	or     (%eax),%al
  108337:	0a 45 6e             	or     0x6e(%ebp),%al
  10833a:	74 65                	je     1083a1 <_reclaim_reent+0x45d>
  10833c:	72 69                	jb     1083a7 <_reclaim_reent+0x463>
  10833e:	6e                   	outsb  %ds:(%esi),(%dx)
  10833f:	67 20 6d 65          	addr16 and %ch,0x65(%di)
  108343:	73 73                	jae    1083b8 <_reclaim_reent+0x474>
  108345:	61                   	popa   
  108346:	67 65 20 73 63       	addr16 and %dh,%gs:0x63(%bp,%di)
  10834b:	61                   	popa   
  10834c:	6e                   	outsb  %ds:(%esi),(%dx)
  10834d:	20 6c 6f 6f          	and    %ch,0x6f(%edi,%ebp,2)
  108351:	70 0a                	jo     10835d <_reclaim_reent+0x419>
  108353:	00 0a                	add    %cl,(%edx)
  108355:	54                   	push   %esp
  108356:	68 65 20 65 73       	push   $0x73652065
  10835b:	63 61 70             	arpl   %sp,0x70(%ecx)
  10835e:	65 20 6b 65          	and    %ch,%gs:0x65(%ebx)
  108362:	79 20                	jns    108384 <_reclaim_reent+0x440>
  108364:	68 61 73 20 62       	push   $0x62207361
  108369:	65 65 6e             	outsb  %gs:(%esi),(%dx)
  10836c:	20 70 72             	and    %dh,0x72(%eax)
  10836f:	65                   	gs
  108370:	73 73                	jae    1083e5 <_reclaim_reent+0x4a1>
  108372:	65 64 0a 00          	or     %fs:%gs:(%eax),%al
  108376:	55                   	push   %ebp
  108377:	6e                   	outsb  %ds:(%esi),(%dx)
  108378:	6b 6e 6f 77          	imul   $0x77,0x6f(%esi),%ebp
  10837c:	6e                   	outsb  %ds:(%esi),(%dx)
  10837d:	20 73 6f             	and    %dh,0x6f(%ebx)
  108380:	75 72                	jne    1083f4 <_reclaim_reent+0x4b0>
  108382:	63 65 20             	arpl   %sp,0x20(%ebp)
  108385:	6f                   	outsl  %ds:(%esi),(%dx)
  108386:	66                   	data16
  108387:	20 6d 65             	and    %ch,0x65(%ebp)
  10838a:	73 73                	jae    1083ff <_reclaim_reent+0x4bb>
  10838c:	61                   	popa   
  10838d:	67 65 00 4c 6f       	addr16 add %cl,%gs:0x6f(%si)
  108392:	6f                   	outsl  %ds:(%esi),(%dx)
  108393:	6b 69 6e 67          	imul   $0x67,0x6e(%ecx),%ebp
  108397:	20 66 6f             	and    %ah,0x6f(%esi)
  10839a:	72 20                	jb     1083bc <_reclaim_reent+0x478>
  10839c:	66                   	data16
  10839d:	6c                   	insb   (%dx),%es:(%edi)
  10839e:	6f                   	outsl  %ds:(%esi),(%dx)
  10839f:	70 70                	jo     108411 <_reclaim_reent+0x4cd>
  1083a1:	79 20                	jns    1083c3 <_reclaim_reent+0x47f>
  1083a3:	64                   	fs
  1083a4:	72 69                	jb     10840f <_reclaim_reent+0x4cb>
  1083a6:	76 65                	jbe    10840d <_reclaim_reent+0x4c9>
  1083a8:	73 0a                	jae    1083b4 <_reclaim_reent+0x470>
  1083aa:	00 00                	add    %al,(%eax)
  1083ac:	52                   	push   %edx
  1083ad:	65                   	gs
  1083ae:	61                   	popa   
  1083af:	64 69 6e 67 20 61 20 	imul   $0x73206120,%fs:0x67(%esi),%ebp
  1083b6:	73 
  1083b7:	65 63 74 6f 72       	arpl   %si,%gs:0x72(%edi,%ebp,2)
  1083bc:	20 66 72             	and    %ah,0x72(%esi)
  1083bf:	6f                   	outsl  %ds:(%esi),(%dx)
  1083c0:	6d                   	insl   (%dx),%es:(%edi)
  1083c1:	20 74 68 65          	and    %dh,0x65(%eax,%ebp,2)
  1083c5:	20 66 6c             	and    %ah,0x6c(%esi)
  1083c8:	6f                   	outsl  %ds:(%esi),(%dx)
  1083c9:	70 70                	jo     10843b <_reclaim_reent+0x4f7>
  1083cb:	79 20                	jns    1083ed <_reclaim_reent+0x4a9>
  1083cd:	64                   	fs
  1083ce:	72 69                	jb     108439 <_reclaim_reent+0x4f5>
  1083d0:	76 65                	jbe    108437 <_reclaim_reent+0x4f3>
  1083d2:	3a 0a                	cmp    (%edx),%cl
  1083d4:	00 00                	add    %al,(%eax)
  1083d6:	00 00                	add    %al,(%eax)
  1083d8:	45                   	inc    %ebp
  1083d9:	72 72                	jb     10844d <_reclaim_reent+0x509>
  1083db:	6f                   	outsl  %ds:(%esi),(%dx)
  1083dc:	72 20                	jb     1083fe <_reclaim_reent+0x4ba>
  1083de:	72 65                	jb     108445 <_reclaim_reent+0x501>
  1083e0:	61                   	popa   
  1083e1:	64 69 6e 67 20 73 65 	imul   $0x63657320,%fs:0x67(%esi),%ebp
  1083e8:	63 
  1083e9:	74 6f                	je     10845a <_reclaim_reent+0x516>
  1083eb:	72 20                	jb     10840d <_reclaim_reent+0x4c9>
  1083ed:	66                   	data16
  1083ee:	72 6f                	jb     10845f <_reclaim_reent+0x51b>
  1083f0:	6d                   	insl   (%dx),%es:(%edi)
  1083f1:	20 66 6c             	and    %ah,0x6c(%esi)
  1083f4:	6f                   	outsl  %ds:(%esi),(%dx)
  1083f5:	70 70                	jo     108467 <_reclaim_reent+0x523>
  1083f7:	79 20                	jns    108419 <_reclaim_reent+0x4d5>
  1083f9:	64                   	fs
  1083fa:	72 69                	jb     108465 <_reclaim_reent+0x521>
  1083fc:	76 65                	jbe    108463 <_reclaim_reent+0x51f>
  1083fe:	0a 00                	or     (%eax),%al
  108400:	54                   	push   %esp
  108401:	68 65 20 44 69       	push   $0x69442065
  108406:	73 6b                	jae    108473 <_reclaim_reent+0x52f>
  108408:	20 69 73             	and    %ch,0x73(%ecx)
  10840b:	20 6e 61             	and    %ch,0x61(%esi)
  10840e:	6d                   	insl   (%dx),%es:(%edi)
  10840f:	65 64 3a 20          	cmp    %fs:%gs:(%eax),%ah
  108413:	00 09                	add    %cl,(%ecx)
  108415:	42                   	inc    %edx
  108416:	79 74                	jns    10848c <_reclaim_reent+0x548>
  108418:	65                   	gs
  108419:	73 20                	jae    10843b <_reclaim_reent+0x4f7>
  10841b:	70 65                	jo     108482 <_reclaim_reent+0x53e>
  10841d:	72 20                	jb     10843f <_reclaim_reent+0x4fb>
  10841f:	73 65                	jae    108486 <_reclaim_reent+0x542>
  108421:	63 74 6f 72          	arpl   %si,0x72(%edi,%ebp,2)
  108425:	3a 00                	cmp    (%eax),%al
  108427:	0a 53 65             	or     0x65(%ebx),%dl
  10842a:	63 74 6f 72          	arpl   %si,0x72(%edi,%ebp,2)
  10842e:	73 20                	jae    108450 <_reclaim_reent+0x50c>
  108430:	70 65                	jo     108497 <_reclaim_reent+0x553>
  108432:	72 20                	jb     108454 <_reclaim_reent+0x510>
  108434:	63 6c 75 73          	arpl   %bp,0x73(%ebp,%esi,2)
  108438:	74 65                	je     10849f <_reclaim_reent+0x55b>
  10843a:	72 3a                	jb     108476 <_reclaim_reent+0x532>
  10843c:	00 09                	add    %cl,(%ecx)
  10843e:	4e                   	dec    %esi
  10843f:	75 6d                	jne    1084ae <_reclaim_reent+0x56a>
  108441:	62 65 72             	bound  %esp,0x72(%ebp)
  108444:	20 6f 66             	and    %ch,0x66(%edi)
  108447:	20 72 65             	and    %dh,0x65(%edx)
  10844a:	73 65                	jae    1084b1 <_reclaim_reent+0x56d>
  10844c:	72 76                	jb     1084c4 <BYTE_GRANULARITY>
  10844e:	65 64 20 73 65       	and    %dh,%fs:%gs:0x65(%ebx)
  108453:	63 74 6f 72          	arpl   %si,0x72(%edi,%ebp,2)
  108457:	73 3a                	jae    108493 <_reclaim_reent+0x54f>
  108459:	00 0a                	add    %cl,(%edx)
  10845b:	4e                   	dec    %esi
  10845c:	75 6d                	jne    1084cb <BYTE_GRANULARITY+0x7>
  10845e:	62 65 72             	bound  %esp,0x72(%ebp)
  108461:	20 6f 66             	and    %ch,0x66(%edi)
  108464:	20 46 41             	and    %al,0x41(%esi)
  108467:	54                   	push   %esp
  108468:	20 74 61 62          	and    %dh,0x62(%ecx)
  10846c:	6c                   	insb   (%dx),%es:(%edi)
  10846d:	65                   	gs
  10846e:	73 3a                	jae    1084aa <_reclaim_reent+0x566>
  108470:	00 00                	add    %al,(%eax)
  108472:	00 00                	add    %al,(%eax)
  108474:	09 45 6e             	or     %eax,0x6e(%ebp)
  108477:	74 72                	je     1084eb <BYTE_GRANULARITY+0x27>
  108479:	69 65 73 20 69 6e 20 	imul   $0x206e6920,0x73(%ebp),%esp
  108480:	74 68                	je     1084ea <BYTE_GRANULARITY+0x26>
  108482:	65 20 72 6f          	and    %dh,%gs:0x6f(%edx)
  108486:	6f                   	outsl  %ds:(%esi),(%dx)
  108487:	74 20                	je     1084a9 <_reclaim_reent+0x565>
  108489:	64 69 72 65 63 74 6f 	imul   $0x726f7463,%fs:0x65(%edx),%esi
  108490:	72 
  108491:	79 3a                	jns    1084cd <BYTE_GRANULARITY+0x9>
  108493:	00 0a                	add    %cl,(%edx)
  108495:	54                   	push   %esp
  108496:	6f                   	outsl  %ds:(%esi),(%dx)
  108497:	74 61                	je     1084fa <BYTE_GRANULARITY+0x36>
  108499:	6c                   	insb   (%dx),%es:(%edi)
  10849a:	20 6e 75             	and    %ch,0x75(%esi)
  10849d:	6d                   	insl   (%dx),%es:(%edi)
  10849e:	62 65 72             	bound  %esp,0x72(%ebp)
  1084a1:	20 6f 66             	and    %ch,0x66(%edi)
  1084a4:	20 73 65             	and    %dh,0x65(%ebx)
  1084a7:	63 74 6f 72          	arpl   %si,0x72(%edi,%ebp,2)
  1084ab:	73 3a                	jae    1084e7 <BYTE_GRANULARITY+0x23>
  1084ad:	00 09                	add    %cl,(%ecx)
  1084af:	46                   	inc    %esi
  1084b0:	61                   	popa   
  1084b1:	74 20                	je     1084d3 <BYTE_GRANULARITY+0xf>
  1084b3:	73 69                	jae    10851e <BYTE_GRANULARITY+0x5a>
  1084b5:	7a 65                	jp     10851c <BYTE_GRANULARITY+0x58>
  1084b7:	20 69 6e             	and    %ch,0x6e(%ecx)
  1084ba:	20 73 65             	and    %dh,0x65(%ebx)
  1084bd:	63 74 6f 72          	arpl   %si,0x72(%edi,%ebp,2)
  1084c1:	73 3a                	jae    1084fd <BYTE_GRANULARITY+0x39>
	...

001084c4 <BYTE_GRANULARITY>:
  1084c4:	04 00 00 00 50 72 65 73 73 20 70 75 61 73 65 2f     ....Press puase/
  1084d4:	62 72 65 61 6b 20 74 6f 20 73 68 6f 77 20 74 68     break to show th
  1084e4:	65 20 50 44 54 0a 00 00 09 53 65 74 74 69 6e 67     e PDT....Setting
  1084f4:	20 75 70 20 74 68 65 20 70 61 67 65 20 64 69 72      up the page dir
  108504:	65 63 74 6f 72 79 20 74 61 62 6c 65 20 61 6e 64     ectory table and
  108514:	20 70 61 67 65 20 74 61 62 6c 65 20 65 6e 74 72      page table entr
  108524:	69 65 73 0a 00 09 45 6e 61 62 6c 69 6e 67 20 70     ies...Enabling p
  108534:	61 67 69 6e 67 0a 00 00 09 4e 75 6d 62 65 72 20     aging....Number 
  108544:	70 61 67 65 73 20 61 76 61 69 6c 61 62 6c 65 20     pages available 
  108554:	66 6f 72 20 75 73 65 3a 20 00 00 00 0a 09 4e 75     for use: .....Nu
  108564:	6d 62 65 72 20 6f 66 20 70 61 67 65 73 20 61 63     mber of pages ac
  108574:	74 75 61 6c 6c 79 20 6d 61 70 70 65 64 3a 20 00     tually mapped: .
  108584:	0a 00 00 00 43 6f 6e 74 72 6f 6c 6c 65 72 20 69     ....Controller i
  108594:	73 20 77 61 69 74 69 6e 67 20 66 6f 72 20 64 61     s waiting for da
  1085a4:	74 61 2c 20 74 68 69 73 20 69 73 20 75 6e 65 78     ta, this is unex
  1085b4:	70 65 63 74 65 64 2c 20 4d 53 52 3a 00 0a 00 00     pected, MSR:....
  1085c4:	43 6f 6e 74 72 6f 6c 6c 65 72 20 77 61 6e 74 73     Controller wants
  1085d4:	20 74 6f 20 67 69 76 65 2c 20 74 68 69 73 20 69      to give, this i
  1085e4:	73 20 75 6e 65 78 70 65 63 74 65 64 2c 20 4d 53     s unexpected, MS
  1085f4:	52 3a 00 00 50 72 6f 62 6c 65 6d 20 77 69 74 68     R:..Problem with
  108604:	20 73 65 6e 64 46 6c 6f 70 70 79 43 6f 6d 6d 61      sendFloppyComma
  108614:	6e 64 0a 00 49 73 73 75 69 6e 67 20 63 61 6c 69     nd..Issuing cali
  108624:	62 72 61 74 65 20 64 72 69 76 65 20 63 6f 6d 6d     brate drive comm
  108634:	61 6e 64 2e 0a 00 00 00 45 72 72 6f 72 20 69 6e     and.....Error in
  108644:	20 63 61 6c 69 62 72 61 74 65 20 64 72 69 76 65      calibrate drive
  108654:	2c 20 73 74 30 3a 00 00 53 74 69 6c 6c 20 69 73     , st0:..Still is
  108664:	73 75 69 6e 67 20 63 61 6c 69 62 72 61 74 65 20     suing calibrate 
  108674:	63 6f 6d 6d 61 6e 64 0a 00 00 00 00 46 69 6e 69     command.....Fini
  108684:	73 68 65 64 20 77 69 74 68 20 63 61 6c 69 62 72     shed with calibr
  108694:	61 74 65 20 64 72 69 76 65 20 63 6f 6d 6d 61 6e     ate drive comman
  1086a4:	64 0a 00 00 49 73 73 75 65 20 72 65 73 65 74 20     d...Issue reset 
  1086b4:	66 6c 6f 70 70 79 20 64 72 69 76 65 20 63 6f 6d     floppy drive com
  1086c4:	6d 6e 61 64 0a 00 43 6f 70 79 69 6e 67 20 64 61     mnad..Copying da
  1086d4:	74 61 0a 00 44 6f 6e 65 20 63 6f 70 79 69 6e 67     ta..Done copying
  1086e4:	20 64 61 74 61 0a 00 00 09 53 65 74 74 69 6e 67      data....Setting
  1086f4:	20 6b 65 79 62 6f 61 72 64 20 74 6f 20 73 63 61      keyboard to sca
  108704:	6e 63 6f 64 65 20 73 65 74 20 32 0a 00 00 00 00     ncode set 2.....
  108714:	09 45 6e 61 62 6c 69 6e 67 20 73 63 61 6e 63 6f     .Enabling scanco
  108724:	64 65 20 74 72 61 6e 73 6c 61 74 69 6f 6e 0a 00     de translation..
  108734:	55 6e 6b 6e 6f 77 6e 20 6b 65 79 3a 00 21 00 55     Unknown key:.!.U
  108744:	6e 6b 6e 6f 77 6e 20 74 77 6f 20 62 79 74 65 20     nknown two byte 
  108754:	73 63 61 6e 63 6f 64 65 3a 20 00 2c 00 55 6e 6b     scancode: .,.Unk
  108764:	6e 6f 77 6e 20 74 68 72 65 65 20 62 79 74 65 20     nown three byte 
  108774:	73 63 61 6e 63 6f 64 65 3a 20 00 55 6e 6b 6e 6f     scancode: .Unkno
  108784:	77 6e 20 66 6f 75 72 20 62 79 74 65 20 73 63 61     wn four byte sca
  108794:	6e 63 6f 64 65 3a 20 00 55 6e 6b 6e 6f 77 6e 20     ncode: .Unknown 
  1087a4:	66 69 76 65 20 62 79 74 65 20 73 63 61 6e 63 6f     five byte scanco
  1087b4:	64 65 3a 20 00 55 6e 6b 6e 6f 77 6e 20 73 69 78     de: .Unknown six
  1087c4:	20 62 79 74 65 20 73 63 61 6e 63 6f 64 65 3a 20      byte scancode: 
  1087d4:	00 00 00 00 45 72 72 6f 72 20 69 6e 20 6b 65 79     ....Error in key
  1087e4:	62 6f 61 72 64 20 68 61 6e 64 6c 65 72 2e 20 56     board handler. V
  1087f4:	61 6c 75 65 20 3d 20 00 0a 00 00 00 94 3d 10 00     alue = ......=..
  108804:	c1 3f 10 00 32 42 10 00 df 42 10 00 40 45 10 00     .?..2B...B..@E..
  108814:	24 46 10 00 fa 3f 10 00 5c 40 10 00 d4 41 10 00     $F...?..\@...A..
  108824:	d4 41 10 00 d4 41 10 00 d4 41 10 00 d4 41 10 00     .A...A...A...A..
  108834:	d4 41 10 00 d4 41 10 00 d4 41 10 00 d4 41 10 00     .A...A...A...A..
  108844:	d4 41 10 00 d4 41 10 00 d4 41 10 00 e3 3f 10 00     .A...A...A...?..
  108854:	d4 41 10 00 d4 41 10 00 d4 41 10 00 d4 41 10 00     .A...A...A...A..
  108864:	d4 41 10 00 d4 41 10 00 d4 41 10 00 d4 41 10 00     .A...A...A...A..
  108874:	d4 41 10 00 d4 41 10 00 bd 40 10 00 d4 41 10 00     .A...A...@...A..
  108884:	e1 40 10 00 1e 40 10 00 d4 41 10 00 d4 41 10 00     .@...@...A...A..
  108894:	d4 41 10 00 d4 41 10 00 d4 41 10 00 d4 41 10 00     .A...A...A...A..
  1088a4:	d4 41 10 00 d4 41 10 00 d4 41 10 00 d4 41 10 00     .A...A...A...A..
  1088b4:	d4 41 10 00 d4 41 10 00 d4 41 10 00 d4 41 10 00     .A...A...A...A..
  1088c4:	f3 40 10 00 f3 40 10 00 f3 40 10 00 d4 41 10 00     .@...@...@...A..
  1088d4:	21 41 10 00 d4 41 10 00 45 41 10 00 d4 41 10 00     !A...A..EA...A..
  1088e4:	69 41 10 00 69 41 10 00 69 41 10 00 69 41 10 00     iA..iA..iA..iA..
  1088f4:	69 41 10 00 d4 41 10 00 d4 41 10 00 d4 41 10 00     iA...A...A...A..
  108904:	d4 41 10 00 d4 41 10 00 d4 41 10 00 d4 41 10 00     .A...A...A...A..
  108914:	97 41 10 00 97 41 10 00 97 41 10 00 d4 41 10 00     .A...A...A...A..
  108924:	d4 41 10 00 d4 41 10 00 d4 41 10 00 d4 41 10 00     .A...A...A...A..
  108934:	d4 41 10 00 d4 41 10 00 d4 41 10 00 d4 41 10 00     .A...A...A...A..
  108944:	d4 41 10 00 d4 41 10 00 d4 41 10 00 d4 41 10 00     .A...A...A...A..
  108954:	d4 41 10 00 d4 41 10 00 d4 41 10 00 d4 41 10 00     .A...A...A...A..
  108964:	d4 41 10 00 d4 41 10 00 d4 41 10 00 d4 41 10 00     .A...A...A...A..
  108974:	d4 41 10 00 d4 41 10 00 d4 41 10 00 d4 41 10 00     .A...A...A...A..
  108984:	d4 41 10 00 d4 41 10 00 d4 41 10 00 d4 41 10 00     .A...A...A...A..
  108994:	d4 41 10 00 d4 41 10 00 d4 41 10 00 d4 41 10 00     .A...A...A...A..
  1089a4:	d4 41 10 00 d4 41 10 00 d4 41 10 00 d4 41 10 00     .A...A...A...A..
  1089b4:	d4 41 10 00 d4 41 10 00 d4 41 10 00 d4 41 10 00     .A...A...A...A..
  1089c4:	d4 41 10 00 d4 41 10 00 d4 41 10 00 d4 41 10 00     .A...A...A...A..
  1089d4:	d4 41 10 00 d4 41 10 00 d4 41 10 00 d4 41 10 00     .A...A...A...A..
  1089e4:	d4 41 10 00 d4 41 10 00 d4 41 10 00 d4 41 10 00     .A...A...A...A..
  1089f4:	d4 41 10 00 d4 41 10 00 d4 41 10 00 d4 41 10 00     .A...A...A...A..
  108a04:	d4 41 10 00 d4 41 10 00 d4 41 10 00 d4 41 10 00     .A...A...A...A..
  108a14:	d4 41 10 00 0c 40 10 00 9e 40 10 00 d4 41 10 00     .A...@...@...A..
  108a24:	d4 41 10 00 d4 41 10 00 d4 41 10 00 d4 41 10 00     .A...A...A...A..
  108a34:	d4 41 10 00 d4 41 10 00 d4 41 10 00 d4 41 10 00     .A...A...A...A..
  108a44:	d4 41 10 00 d4 41 10 00 d4 41 10 00 c5 41 10 00     .A...A...A...A..
  108a54:	d4 41 10 00 d4 41 10 00 d4 41 10 00 d4 41 10 00     .A...A...A...A..
  108a64:	d4 41 10 00 d4 41 10 00 d4 41 10 00 d4 41 10 00     .A...A...A...A..
  108a74:	d4 41 10 00 d4 41 10 00 cf 40 10 00 d4 41 10 00     .A...A...@...A..
  108a84:	e3 3f 10 00 3d 40 10 00 d4 41 10 00 d4 41 10 00     .?..=@...A...A..
  108a94:	d4 41 10 00 d4 41 10 00 d4 41 10 00 d4 41 10 00     .A...A...A...A..
  108aa4:	d4 41 10 00 d4 41 10 00 d4 41 10 00 d4 41 10 00     .A...A...A...A..
  108ab4:	d4 41 10 00 d4 41 10 00 d4 41 10 00 d4 41 10 00     .A...A...A...A..
  108ac4:	0a 41 10 00 0a 41 10 00 0a 41 10 00 d4 41 10 00     .A...A...A...A..
  108ad4:	33 41 10 00 d4 41 10 00 57 41 10 00 d4 41 10 00     3A...A..WA...A..
  108ae4:	80 41 10 00 80 41 10 00 80 41 10 00 80 41 10 00     .A...A...A...A..
  108af4:	80 41 10 00 d4 41 10 00 d4 41 10 00 d4 41 10 00     .A...A...A...A..
  108b04:	d4 41 10 00 d4 41 10 00 d4 41 10 00 d4 41 10 00     .A...A...A...A..
  108b14:	ae 41 10 00 ae 41 10 00 ae 41 10 00 09 09 44 72     .A...A...A....Dr
  108b24:	69 76 65 20 64 69 61 67 6e 6f 73 74 69 63 20 70     ive diagnostic p
  108b34:	72 69 6d 61 72 79 20 49 44 45 20 63 6f 6e 74 72     rimary IDE contr
  108b44:	6f 6c 6c 65 72 0a 00 00 09 09 44 72 69 76 65 20     oller.....Drive 
  108b54:	64 69 61 67 6e 6f 73 74 69 63 20 66 6f 72 20 50     diagnostic for P
  108b64:	52 49 4d 41 52 59 20 72 65 74 75 72 6e 73 3a 20     RIMARY returns: 
  108b74:	00 0a 00 09 09 50 72 69 6d 61 72 79 20 6d 61 73     .....Primary mas
  108b84:	74 65 72 20 66 6f 75 6e 64 0a 00 09 09 50 72 69     ter found....Pri
  108b94:	6d 61 72 79 20 73 6c 61 76 65 20 66 6f 75 6e 64     mary slave found
  108ba4:	0a 00 00 00 09 09 44 72 69 76 65 20 64 69 61 67     ......Drive diag
  108bb4:	6e 6f 73 74 69 63 20 73 65 63 6f 6e 64 61 72 79     nostic secondary
  108bc4:	20 49 44 45 20 63 6f 6e 74 72 6f 6c 6c 65 72 0a      IDE controller.
  108bd4:	00 00 00 00 09 09 44 72 69 76 65 20 64 69 61 67     ......Drive diag
  108be4:	6e 6f 73 74 69 63 20 66 6f 72 20 53 45 43 4f 4e     nostic for SECON
  108bf4:	44 41 52 59 20 72 65 74 75 72 6e 73 3a 20 00 09     DARY returns: ..
  108c04:	09 53 65 63 6f 6e 64 61 72 79 20 6d 61 73 74 65     .Secondary maste
  108c14:	72 20 66 6f 75 6e 64 0a 00 09 09 53 65 63 6f 6e     r found....Secon
  108c24:	64 61 72 79 20 73 6c 61 76 65 20 66 6f 75 6e 64     dary slave found
  108c34:	0a 00 00 00 20 62 79 74 65 73 20 70 65 72 20 73     .... bytes per s
  108c44:	65 63 74 6f 72 20 69 73 20 69 6e 76 61 6c 69 64     ector is invalid
  108c54:	2e 20 49 6e 76 61 6c 69 64 20 46 41 54 2e 0a 00     . Invalid FAT...
  108c64:	20 73 65 63 74 6f 72 73 20 70 65 72 20 63 6c 75      sectors per clu
  108c74:	73 74 65 72 20 69 73 20 69 6e 76 61 6c 69 64 2e     ster is invalid.
  108c84:	20 49 6e 76 61 6c 69 64 20 46 41 54 2e 0a 00 00      Invalid FAT....
  108c94:	52 65 73 65 72 76 65 64 20 73 65 63 74 6f 72 20     Reserved sector 
  108ca4:	63 6f 75 6e 74 20 63 61 6e 6e 6f 74 20 62 65 20     count cannot be 
  108cb4:	30 2e 20 49 6e 76 61 6c 69 64 20 46 41 54 0a 00     0. Invalid FAT..
  108cc4:	4e 75 6d 62 65 72 20 6f 66 20 46 41 54 20 74 61     Number of FAT ta
  108cd4:	62 6c 65 73 20 63 61 6e 6e 6f 74 20 62 65 20 30     bles cannot be 0
  108ce4:	2e 20 49 6e 76 61 6c 69 64 20 46 41 54 0a 00 20     . Invalid FAT.. 
  108cf4:	69 73 20 74 68 65 20 6d 65 64 69 61 20 74 79 70     is the media typ
  108d04:	65 0a 00 46 41 54 31 32 20 76 6f 6c 75 6d 65 20     e..FAT12 volume 
  108d14:	64 65 74 65 63 74 65 64 0a 00 46 41 54 31 36 20     detected..FAT16 
  108d24:	76 6f 6c 75 6d 65 20 64 65 74 65 63 74 65 64 0a     volume detected.
  108d34:	00 00 00 00 54 68 69 73 20 69 73 20 6e 6f 74 20     ....This is not 
  108d44:	61 20 46 41 54 20 66 69 6c 65 20 73 79 73 74 65     a FAT file syste
  108d54:	6d 0a 00 46 41 54 33 32 20 76 6f 6c 75 6d 65 20     m..FAT32 volume 
  108d64:	64 65 74 65 63 74 65 64 0a 00 00 00 4c 6f 61 64     detected....Load
  108d74:	69 6e 67 20 46 41 54 31 32 2f 46 41 54 31 36 20     ing FAT12/FAT16 
  108d84:	69 6e 66 6f 72 6d 61 74 69 6f 6e 0a 00 4c 6f 61     information..Loa
  108d94:	64 69 6e 67 20 46 41 54 33 32 20 69 6e 66 6f 72     ding FAT32 infor
  108da4:	6d 61 74 69 6f 6e 0a 00 4f 45 4d 20 4e 61 6d 65     mation..OEM Name
  108db4:	3a 00 0a 00 54 61 73 6b 20 69 6e 66 6f 72 6d 61     :...Task informa
  108dc4:	74 69 6f 6e 20 6c 6f 63 61 74 65 64 20 61 74 3a     tion located at:
  108dd4:	20 00 0a 54 61 73 6b 20 74 73 73 20 6c 6f 63 61      ..Task tss loca
  108de4:	74 65 64 20 61 74 3a 20 00 0a 00 2c 20 00 54 61     ted at: ..., .Ta
  108df4:	73 6b 20 32 2e 00 00 00                             sk 2....

00108dfc <_global_impure_ptr>:
  108dfc:	00 92 10 00 00 00 00 00 00 00 00 00 00 00 00 00     ................
	...
